Lc:_glClearStencil
Con:__ZN6il2cpp6icalls8mscorlib6System10Reflection10MemberInfo17get_MetadataTokenEP12Il2CppObject
rgc:__ZN5physx2Gu19gjkLocalPenetrationINS0_8CapsuleVENS0_17ShrunkConvexHullVEEEjRKT_RKT0_RKNS_6shdfnd3aos6FloatVERNSB_5Vec3VESG_SG_RSC_PhSI_Rhb
Rop:_mbrlen
hsf:_RuntimeTypeHandle_GetObjectData_m3567098501
rKh:_XsdBuilder_SendValidationEvent_m959461635
rtn:__Z79RuntimeInvoker_RuntimeObject_Int64_t909078037_Int64_t909078037_Int64_t909078037PFvvEPK10MethodInfoPvPS4_
eDo:__ZL61IRemotingFormatter_t4112065742_CustomAttributesCacheGeneratorP21CustomAttributesCache
tHf:_Array_UnsafeLoad_TisInt32_t2071877448_m2408960517_gshared
JOf:_CultureData_get_IsInvariantCulture_m1142516247
xSd:__ZN15DownloadHandler7OnAbortEv
jNf:_Exception__ctor_m3886110570
Luk:_FieldInfo_GetHashCode_m3019391709
Rzk:_MonoProperty_GetCustomAttributesData_m3279687445
fKf:_NumberFormatInfo_ValidateParseStyleFloatingPoint_m2060805133
Lva:__Z30GetIntermediateRendererManagerv
Q1d:_XmlNamespaceManager_LookupNamespaceDecl_m1209156795
cXh:_WaitHandle_WaitAll_internal_m2381273899
tNn:__Z116RuntimeInvoker_Boolean_t3825574718_RuntimeObject_RuntimeObject_Int32_t2071877448_Int32_t2071877448_Int32_t2071877448PFvvEPK10MethodInfoPvPS4_
yVk:_ObjectEqualityComparer_1_Equals_m2213808370_gshared
o6:__Z21SourceMipLevelForBlitiiii
tOa:__Z23SetSpriteMeshIndexCountP14SharedMeshDataj
S7o:__ZL87Component_t3819376471_CustomAttributesCacheGenerator_Component_GetComponent_m1409092944P21CustomAttributesCache
v7i:_GenericTypeParameterBuilder_GetEvent_m4210567427
p8f:_NamespaceList_get_Enumerate_m906321460
H$h:_TZifHead_get_Length_m3225519663
Fof:_RuntimeFieldHandle_get_Value_m3963757144
vBn:__Z94RuntimeInvoker_Void_t1841601450_DecimalU26_t1613489971_DecimalU26_t1613489971_SByte_t454417549PFvvEPK10MethodInfoPvPS4_
kHo:__ZL108ResourceReader_t2463923611_CustomAttributesCacheGenerator_ResourceReader_CompareStringEqualsName_m1816004255P21CustomAttributesCache
GUl:_ConfigurationLocation__ctor_m3125296074
lWo:__ZL122XmlSchemaAttribute_t4015859774_CustomAttributesCacheGenerator_XmlSchemaAttribute_t4015859774____QualifiedName_PropertyInfoP21CustomAttributesCache
pTf:_DateTimeFormatInfo_get_FormatFlags_m148174727
bOd:__ZN11UnityEngine7Connect14AppUpdateEventD0Ev
c0n:__Z112RuntimeInvoker_Int32_t2071877448_RuntimeObject_RangePositionInfo_t2780802922_Int32_t2071877448_Int32_t2071877448PFvvEPK10MethodInfoPvPS4_
Fcn:__ZN6il2cpp2vm5Array13GetByteLengthEP11Il2CppArray
Lsn:__Z41RuntimeInvoker_IntPtr_t_IntPtr_t_IntPtr_tPFvvEPK10MethodInfoPvPS4_
tvk:_RuntimeConstructorInfo_SerializationToString_m2841250229
d7c:__ZNK5physx2Sc5Scene24getContactModifyCallbackEv
y9f:_ParticleContentValidator_AddNamespaceList_m61246585
JJ:__ZdlPv
C$n:__Z56RuntimeInvoker_Boolean_t3825574718_Ephemeron_t1875076633PFvvEPK10MethodInfoPvPS4_
Yr:__ZN11UnityEngine9Animation28GenericAnimationBindingCacheD2Ev
jad:__ZN5physx2Sq10AABBPruner10addObjectsEPjPKNS_9PxBounds3EPKNS0_13PrunerPayloadEj
x0l:_DecimalConstantAttribute__ctor_m71487003
jDo:__ZL68RemotingSurrogateSelector_t2821375126_CustomAttributesCacheGeneratorP21CustomAttributesCache
num:__ZL25UnresolvedVirtualCall_311P12Il2CppObjectiPK10MethodInfo
CZn:__Z52RuntimeInvoker_Void_t1841601450_ObjectU26_t597476745PFvvEPK10MethodInfoPvPS4_
Cik:_List_1_System_Collections_IList_IndexOf_m39706221_gshared
Sfn:__ZN6il2cpp6icalls8mscorlib6System17RuntimeTypeHandle9GetModuleEP27Il2CppReflectionRuntimeType
y6g:_BitSet__ctor_m1066503347
xKi:_Dictionary_2_Remove_m1849931834_gshared
W4e:_Decimal_op_Implicit_m2971610317
EYl:_ConfigurationProperty_set_CollectionAttribute_m21883792
DUf:_GregorianCalendar_OnDeserialized_m1701616192
URg:_CancellationToken__ctor_m1867876153_AdjustorThunk
kj:_emscripten_glFramebufferRenderbuffer
uyf:__ZN21InterfaceFuncInvoker2IixxE6InvokeEjP11Il2CppClassP12Il2CppObjectxx
Sb:invoke_viiiifiiiiif
YJb:__Z18RestoreRenderStateR20CameraRenderOldStateR17ShaderPassContext
Ekb:__Z18Transfer_BlittableI18StreamedBinaryReadILb1EELb1E5RectTIfEEvRK29SerializationCommandArgumentsR31RuntimeSerializationCommandInfo
Ifm:_UnityEventBase_RebuildPersistentCallsIfNeeded_m2776978024
Xwk:_MonoMethod_ConvertValues_m612939586
wgb:__Z18Transfer_BlittableI24GenerateTypeTreeTransferLb0E11ColorRGBA32EvRK29SerializationCommandArgumentsR31RuntimeSerializationCommandInfo
nQ:__Z25scripting_class_from_name17ScriptingImagePtrPKcS1_
ALl:_Dictionary_2__ctor_m2391180541_gshared
uVm:__ZN14dense_hash_mapI10KeyWrapperINSt3__24pairIPK12PropertyInfoP11Il2CppClassEEEj17ReflectionMapHashIS8_ENS9_14EqualsComparerINS1_8equal_toIS8_EEEENS1_9allocatorINS2_IKS9_jEEEEE15set_deleted_keyERSH_
Iqb:__Z29scripting_class_enum_basetype17ScriptingClassPtr
EWk:_Queue_1_get_Count_m3795587777_gshared
ypc:__ZN5physx6shdfnd8PoolBaseINS_2Sc10NPhaseCore16ClothListElementENS0_19ReflectionAllocatorIS4_EEE17releaseEmptySlabsEv
ZIg:_Encoder_Reset_m1665107349
_sa:__ZNK12BaseRenderer18GetRenderNodeCountEv
Jio:__ZL81Decimal_t724701077_CustomAttributesCacheGenerator_Decimal_op_Equality_m2278618154P21CustomAttributesCache
Gyn:__Z64RuntimeInvoker_UInt16_t986882611_RuntimeObject_Int32_t2071877448PFvvEPK10MethodInfoPvPS4_
Swm:_Collision_t2876846408_marshal_pinvoke_back
vLg:_DefaultDecoder_GetCharCount_m1710512497
gtd:__ZN5physx2Sc14ConstraintCore10breakApartEv
o8i:_GenericTypeParameterBuilder_GetHashCode_m867619899
kIj:__Z30il2cpp_codegen_resolve_pinvokeIPFiiijiPDsiPiELj9ELj14EET_RAT0__KcRAT1__S5_20Il2CppCallConvention13Il2CppCharSetib
pnj:_Converter_IsPrimitiveArray_m2484185550
ffe:_XmlValidatingReader_get_BaseURI_m3029620725
Eve:_XmlSchema_SetIsCompiled_m3887345354
ptp:__ZNKSt3__220__time_get_c_storageIcE3__XEv
mIh:_XmlSchemaType_SetDerivedBy_m1063086707
jHf:_Array_InternalArray__IReadOnlyList_get_Item_TisHitInfo_t1761367055_m3115054707_gshared
Z7a:__ZNK20LocalFileSystemPosix6ParentERK13FileEntryDataRN4core12basic_stringIcNS3_20StringStorageDefaultIcEEEE
dna:__ZN15dense_hashtableINSt3__24pairIKN4core12basic_stringIcNS2_20StringStorageDefaultIcEEEEP20ArchiveStorageReaderEES6_20StringHash32FunctionIS6_EN14dense_hash_mapIS6_S9_SC_NS0_8equal_toIS6_EE13stl_allocatorISA_L18MemLabelIdentifier55ELi16EEE9SelectKeyESF_SI_E4swapERSL_
Wzd:__ZN5physx7Cooking20loadTriangleMeshDescERKNS_18PxTriangleMeshDescERNS_19TriangleMeshBuilderE
nVm:__ZN15dense_hashtableINSt3__24pairIK10KeyWrapperINS1_IPK9EventInfoP11Il2CppClassEEEjEES9_17ReflectionMapHashIS8_EN14dense_hash_mapIS9_jSD_NS9_14EqualsComparerINS0_8equal_toIS8_EEEENS0_9allocatorISB_EEE9SelectKeyESI_SK_E15set_deleted_keyERKSB_
Bsc:__ZN5physx9NpFactory21releaseConnectorArrayEPNS_16NpConnectorArrayE
Ldh:_Socket_Accept_m678452185
KSl:_GenericEqualityComparer_1_GetHashCode_m665122461_gshared
Ttp:__ZNKSt3__220__time_get_c_storageIwE3__cEv
kdd:__ZNK5physx2Gu29EPASupportMapPairRelativeImplINS0_9TriangleVENS0_4BoxVEE6getDirEv
w1m:__ZN15dense_hashtableINSt3__24pairIK10KeyWrapperIiEPNS0_6vectorIP12Il2CppObjectN6il2cpp2gc9AllocatorIS7_EEEEEES3_21ThreadPoolStateHasherN14dense_hash_mapIS3_SD_SF_NS3_14EqualsComparerINS0_8equal_toIiEEEENS0_9allocatorISE_EEE9SelectKeyESK_SM_E8min_sizeEjj
Iak:_Enumerator_MoveNext_m1386285227_gshared
f9j:_Enumerator_MoveNextRare_m3227566889_AdjustorThunk
DPb:__Z13RegisterClassI12InputManagerEvv
Ayg:_Evidence_AddHost_m366224665
Zwf:_Array_InternalArray__set_Item_TisLowerCaseMapping_t2153935826_m803830825_gshared
T3:__ZN7ApiGLES17CopyBufferSubDataEjjlll
a6h:_UInt64_System_IConvertible_ToDecimal_m4205696037
o0n:__Z50RuntimeInvoker_Int32_t2071877448_Entry_t3688716734PFvvEPK10MethodInfoPvPS4_
Pae:_XmlTextReaderImpl_AddDefaultAttributesAndNormalize_m1840426459
wZj:_SimpleResolver_System_IDisposable_Dispose_m690541372
T0b:__ZN5Unity9rapidjson15GenericDocumentINS0_4UTF8IcEE13JSONAllocatorS4_E11ParseStreamILj1ES3_NS0_25GenericInsituStringStreamIS3_EEEERS5_RT1_
xAm:__ZNSt3__26vectorIPK10Il2CppTypeNS_9allocatorIS3_EEE7reserveEj
YBb:__ZN25CameraStackRenderingState20GetOrCreateBuiltinRTE24BuiltinRenderTextureTypeii17DepthBufferFormat19RenderTextureFormatj22RenderTextureReadWrite14VRTextureUsagei
vTj:_CookieTokenizer_set_Quoted_m3863202475
Bpp:_wmemmove
EAa:__Z32TransferEnumWithNameForceIntSizeI14SafeBinaryRead16LightmappingMaskEvRT_RT0_PKc17TransferMetaFlags
Xdi:_BinaryWriter_Write_m3366420716
mB:__ZN11AudioModule26SetDefaultMicrophoneDriverEPv
RRc:__ZNK5physx15NpActorTemplateINS_15PxParticleFluidEE22getClientBehaviorFlagsEv
Vmm:_AesManaged_CreateEncryptor_m1729287824
lRl:_GenericComparer_1__ctor_m3558611152_gshared
MPa:__ZNK14Texture2DArray26CanReuploadDataToGfxDeviceEv
rGb:__ZN17PrePassRenderLoop14RenderBasePassEP13RenderTextureRK14LightingLayersR13dynamic_arrayI16RenderObjectDataLj4EERbR10MinMaxAABB
pme:_SchemaInfo_Contains_m1238677288
Nqh:_Array_InternalArray__ICollection_Remove_TisKeyValuePair_2_t4275477795_m475342951_gshared
QLk:_NetworkInterface_GetIPProperties_m2611844833
Vqa:__ZN17GlobalGameManager23VirtualRedirectTransferER17RemapPPtrTransfer
qTd:__ZNK20UnityWebRequestProtoI24UnityWebRequestTransport16AtomicRefCounter14RedirectHelper14ResponseHelper15DownloadHandler13UploadHandler12HeaderHelper14AsyncOperationE14GetUploadBytesEv
aAk:_ParameterInfo_t2249040075_marshal_pinvoke_back
oAe:_XmlSchemaIdentityConstraint_set_CompiledConstraint_m1558522541
kFh:_XmlSchemaObject_set_LinePosition_m264600708
fUe:_Char_System_IConvertible_ToInt16_m2741348777_AdjustorThunk
lqe:_XdrEndChildFunction_EndInvoke_m867924037
jsp:__ZNKSt3__27num_getIwNS_19istreambuf_iteratorIwNS_11char_traitsIwEEEEE6do_getES4_S4_RNS_8ios_baseERjRPv
mtp:__ZNKSt3__220__time_get_c_storageIcE3__cEv
FTn:__Z177RuntimeInvoker_Void_t1841601450_RuntimeObject_RuntimeObject_Int32U26_t455636984_RuntimeObject_Int32_t2071877448_RuntimeObject_Int32_t2071877448_SByte_t454417549_SByte_t454417549PFvvEPK10MethodInfoPvPS4_
Pel:_SimpleCollator_IndexOf_m2575613007
ido:__ZL78Buffer_t3497320070_CustomAttributesCacheGenerator_Buffer_ZeroMemory_m328161905P21CustomAttributesCache
hQl:_EqualityComparer_1_System_Collections_IEqualityComparer_GetHashCode_m929053650_gshared
w2k:_ReadOnlyCollection_1_System_Collections_Generic_IListU3CTU3E_set_Item_m1547026160_gshared
Bua:__ZNK15dense_hashtableINSt3__24pairIKN9ShaderLab7Program23ShaderKeywordSetAndHashEPKNS2_10SubProgramEEES4_NS3_24ShaderKeywordHashFunctorEN14dense_hash_mapIS4_S8_SA_NS0_8equal_toIS4_EE13stl_allocatorIS9_L18MemLabelIdentifier67ELi16EEE9SelectKeyESD_SG_E23find_position_with_hashERS5_j
NEo:__ZL61MarshalAsAttribute_t2900773360_CustomAttributesCacheGeneratorP21CustomAttributesCache
xDa:__ZN7Texture13SetFilterModeEi
trh:_Array_InternalArray__ICollection_Remove_TisILExceptionInfo_t1490154598_m3787603145_gshared
I7o:__ZL87Camera_t189460977_CustomAttributesCacheGenerator_Camera_get_allCamerasCount_m1873043770P21CustomAttributesCache
yhj:_TrackingServices_NotifyDisconnectedObject_m2594105274
tYj:_DnsPacket__ctor_m1180953626
Bme:_SchemaInfo_System_Xml_IDtdInfo_get_HasDefaultAttributes_m3559083515
Rq:__ZNSt3__26vectorIN4core12basic_stringIcNS1_20StringStorageDefaultIcEEEENS_9allocatorIS5_EEE7reserveEj
s3e:_Convert_ToUInt16_m2130758075
anf:_OptionalFieldAttribute_set_VersionAdded_m1447671603
vOk:_List_1_RemoveAt_m4232884678_gshared
imh:_X509BasicConstraintsExtension_Encode_m3505127076
xXl:_ConfigurationElementCollection_System_Collections_ICollection_CopyTo_m3947886345
bCk:_TypeDelegator_GetConstructors_m249912809
Z7m:__ZNSt3__26__treeINS_12__value_typeIjN6il2cpp2os17SocketHandleEntryEEENS_19__map_value_compareIjS5_NS_4lessIjEELb1EEENS_9allocatorIS5_EEE25__emplace_unique_key_argsIjJNS_4pairIKjS4_EEEEENSE_INS_15__tree_iteratorIS5_PNS_11__tree_nodeIS5_PvEEiEEbEERKT_DpOT0_
a_:__ZN13GfxDeviceGLES11SetViewportERK5RectTIiE
zmf:_ObjectIDGenerator_HasId_m3452805087
qin:__ZN6il2cpp6icalls8mscorlib6System10Reflection6Module15GetGuidInternalEP33mscorlib_System_Reflection_Module
eef:_Decimal_System_IConvertible_ToInt64_m2504363272
Emk:_List_1__ctor_m2300058426_gshared
Ib:invoke_vifiiii
Yqg:_Array_GetValue_m3182152438
ee:_emscripten_glDepthRange
wvf:_DESTransform_CipherFunct_m3559419566
wUl:_ConfigurationErrorsException__ctor_m3506512730
$Cp:dynCall_viiififii
pbc:__ZN5physx2Gu24contactConvexHeightfieldERKNS0_13GeometryUnionES3_RKNS_11PxTransformES6_RKfRNS0_5CacheERNS0_13ContactBufferE
cuc:__ZN5physx6shdfnd5ArrayIPvNS0_19ReflectionAllocatorINS_2Cm5BlockIS2_Lj8EEEEEE15growAndPushBackERKS2_
fMb:__ZNSt3__26vectorINS_4pairIN4core12basic_stringIcNS2_20StringStorageDefaultIcEEEES6_EE13stl_allocatorIS7_L18MemLabelIdentifier38ELi16EEE12__move_rangeEPS7_SC_SC_
f1a:__Z14resize_trimmedINSt3__26vectorIN9ShaderLab20SerializedSubProgram12UAVParameterENS0_9allocatorIS4_EEEEEvRT_j
l1b:__ZN5Unity9rapidjson13GenericReaderINS0_4UTF8IcEES3_13JSONAllocatorE11ParseObjectILj1ENS0_25GenericInsituStringStreamIS3_EENS0_15GenericDocumentIS3_S4_S4_EEEEvRT0_RT1_
Kif:_SerializationInfo_AddValue_m1781549036
qHe:_RegexCharClass_CharInCategory_m500839547
CLl:_Dictionary_2__ctor_m3143729840_gshared
C5g:_BaseProcessor_get_NameTable_m638865258
Ezh:_Array_InternalArray__ICollection_Add_TisKeyValuePair_2_t1483742713_m3546344178_gshared
ZXb:__ZN13BuildSettings34ConvertScenePathToDisplayScenePathERKN4core12basic_stringIcNS0_20StringStorageDefaultIcEEEE
gGl:_U3CU3Ec__DisplayClass35_1_U3CFromAsyncImplU3Eb__1_m1851394884_gshared
Dli:_StreamWriter__ctor_m2392877680
tS:__ZNSt3__218__insertion_sort_3IRNS_6__lessI14ObjectLoadDataS2_EEPS2_EEvT0_S6_T_
KYg:_Task_get_Exception_m1877859852
Gef:_DefaultBinder_SelectProperty_m3525757950
VIl:_InvokableCall_1_Find_m2337296995_gshared
RBh:_Array_InternalArray__ICollection_CopyTo_TisInternalCodePageDataItem_t1742109366_m1498245339_gshared
flf:_WriteObjectInfo_PutObjectInfo_m643100650
O5:__ZN4crndL20crnd_default_reallocEPvjPjbS0_
p5f:_FacetsChecker__ctor_m1671270445
SCl:_ConfiguredTaskAwaitable_1__ctor_m2250484098_gshared
ino:__ZL54DTSubString_t4037085109_CustomAttributesCacheGeneratorP21CustomAttributesCache
eyp:__ZNSt3__26locale5__imp7installINS_9money_putIwNS_19ostreambuf_iteratorIwNS_11char_traitsIwEEEEEEEEvPT_
mid:__ZN5physx24PxsComputeAABBLocalSpaceERKNS_18PxcAABBDataDynamicERNS_9PxBounds3E
Fee:_Namespace_t1808381789_marshal_pinvoke_back
Yij:_ProviderData_CopyFrom_m431414335
Z0g:_ParamInfo_get_ArgTypes_m56562046
jPa:__ZN18SpriteAtlasManager19AddRequestingSpriteE4PPtrI6SpriteE
wPg:_UTF32Encoding_GetPreamble_m767706727
YYg:_Task_get_CapturedContext_m4026823081
Ehk:_List_1_System_Collections_Generic_IEnumerableU3CTU3E_GetEnumerator_m2246728181_gshared
kMe:_ThrowHelper_ThrowArgumentOutOfRangeException_m232766338
MGm:__ZN6il2cpp6icalls6System6System3Net7Sockets27UnpackIPv6AddressFromBufferEPKhiPtPhPj
D6d:_XmlRegisteredNonCachedStream_Flush_m117675691
aJb:__ZN23ScriptableRenderContextC2Ev
Prh:_Array_InternalArray__ICollection_Remove_TisTZifType_t1855764066_m1081031376_gshared
mSi:_SHA256Managed_RotateRight_m3738840696
$va:__ZN4PPtrI13RenderTextureE8TransferI18StreamedBinaryReadILb0EEEEvRT_
cbo:__ZL107Environment_t3662374671_CustomAttributesCacheGenerator_Environment_GetResourceString_m3280810056____values1P21CustomAttributesCache
R_g:_XPathNode_get_PageInfo_m4024882799_AdjustorThunk
dzh:_Array_CheckComparerAvailable_TisUInt64_t2909196914_m2129264954_gshared
SNo:__ZL77Encoder_t751367874_CustomAttributesCacheGenerator_Encoder_GetBytes_m511812980P21CustomAttributesCache
E_f:_Guid_FastNewGuidArray_m890293114
g3k:_ReadOnlyCollection_1_System_Collections_Generic_IListU3CTU3E_RemoveAt_m352618588_gshared
dlb:__Z18Transfer_BlittableI18StreamedBinaryReadILb1EELb1EdEvRK29SerializationCommandArgumentsR31RuntimeSerializationCommandInfo
Hsm:__ZL25UnresolvedVirtualCall_223P12Il2CppObject37Win32_IP_ADAPTER_ADDRESSES_t680756680S1_PK10MethodInfo
Yyi:_Enumerator_System_Collections_IEnumerator_get_Current_m229223308_gshared
Nad:__ZN5physx6shdfnd8internal8HashBaseINS0_4PairIKNS_2Sq13PrunerPayloadEjEES5_NS0_4HashIS5_EENS1_11HashMapBaseIS5_jS9_NS0_9AllocatorEE6GetKeyESB_Lb1EE5eraseERS6_
Rqb:__Z26BuildSerializationCacheFor17ScriptingClassPtrRb
tGk:_FtpWebRequest_GetPortV4_m3293124448
EMn:__Z104RuntimeInvoker_Boolean_t3825574718_TimeSpanTokenizerU26_t619601477_Int32_t2071877448_Int32U26_t455636984PFvvEPK10MethodInfoPvPS4_
Uba:__ZN7ApiGLES15BlitFramebufferEN2gl6HandleILNS0_10ObjectTypeE9EEENS0_15FramebufferReadES3_S3_iiiiiiiiNS0_15FramebufferTypeE
Fud:__ZN5physx13GuMeshFactory16createConvexMeshERNS_13PxInputStreamE
WEd:__ZN5physx6shdfnd8internal8HashBaseINS0_4PairIKPKcjEES5_NS0_4HashIS5_EENS1_11HashMapBaseIS5_jS9_NS_7profile26WrapperReflectionAllocatorIjEEE6GetKeyESD_Lb1EE6createERS6_Rb
avm:_UnityEvent_1_GetDelegate_m2559549291_gshared
AEo:__ZL55GCHandleType_t1970708122_CustomAttributesCacheGeneratorP21CustomAttributesCache
ONf:_GC_get_ephemeron_tombstone_m228257728
Uok:_List_1_CopyTo_m3996706997_gshared
fuk:_UnmanagedMarshal_t4270021860_marshal_pinvoke_back
Zin:__ZN6il2cpp6icalls8mscorlib6System7Runtime16CompilerServices14RuntimeHelpers15InitializeArrayEP11Il2CppArrayi
jVb:__ZN13ProduceHelperI10GUIElementLb1EE7ProduceE18MemLabelIdentifier18ObjectCreationMode
Jrf:_RuntimeType_GetGenericTypeDefinition_m3586635621
_tl:_InternalEnumerator_1_MoveNext_m488449285_AdjustorThunk
BZl:_U3CGetEnumeratorU3Ed__17_U3CU3Em__Finally1_m1690377974
jip:_UnitySynchronizationContext__ctor_m1804960286
pwi:_Comparer_1_CreateComparer_m2010657334_gshared
isb:__Z9InitInputv
CEn:__Z85RuntimeInvoker_Boolean_t3825574718_Int64_t909078037_Int64_t909078037_SByte_t454417549PFvvEPK10MethodInfoPvPS4_
ZPm:__ZN15dense_hashtableINSt3__24pairIK10KeyWrapperINS1_IPK9FieldInfoP11Il2CppClassEEEjEES9_17ReflectionMapHashIS8_EN14dense_hash_mapIS9_jSD_NS9_14EqualsComparerINS0_8equal_toIS8_EEEENS0_9allocatorISB_EEE9SelectKeyESI_SK_ED2Ev
W3l:_ActivatedClientTypeEntry_ToString_m1505819693
uhb:__Z29Transfer_Blittable_ArrayFieldI24GenerateTypeTreeTransfer11ColorRGBA32EvRT_R9ArrayInfoRK23StaticTransferFieldInfo
Dud:__ZNK5physx13GuMeshFactory15getConvexMeshesEPPNS_12PxConvexMeshEjj
wFh:_XmlSchemaObject_set_IdAttribute_m1076091189
Brf:_RuntimeType_GetEnumName_m1935239308
UQm:__ZN6il2cpp2gc19AppendOnlyGCHashMapINSt3__24pairIPK10MethodInfoP11Il2CppClassEEP22Il2CppReflectionMethod17ReflectionMapHashIS9_ENS2_8equal_toIS9_EEE3AddERKS9_SB_
Wog:_AppDomain_getCurDomain_m591611373
c9a:__ZN16MemoryFileSystem6DeleteER13FileEntryDatab
pHm:__ZN6il2cpp6icalls6System6System3Net7Sockets6Socket23RemoteEndPoint_internalEiiPi
_Fl:_U3CU3Ec__DisplayClass35_0_U3CFromAsyncImplU3Eb__0_m3569840074_gshared
r3j:_AttributeCollection_get_Item_m3713562356
G6:__ZL21BlitScaleStbImageImplRK14ImageReferenceRS_NS_10ColorSpaceE
eJc:__ZN5physx10NpMaterial17setStaticFrictionEf
L7l:_TlsStream_set_Position_m378064217
u4o:__ZL66BypassElementCollection_t3411512674_CustomAttributesCacheGeneratorP21CustomAttributesCache
g3a:__ZN18StreamedBinaryReadILb0EE21TransferSTLStyleArrayI13dynamic_arrayIjLj4EEEEvRT_17TransferMetaFlags
KVj:_FtpDataStream_BeginWrite_m3360549687
D1c:__ZNK5physx7NpScene19getFilterShaderDataEv
ocb:__Z29Transfer_Blittable_ArrayFieldI14SafeBinaryReadyEvRT_R9ArrayInfoRK23StaticTransferFieldInfo
iz:__ZN20SoundChannelInstance15setChannelGroupEPN4FMOD12ChannelGroupE
e1j:_NameObjectCollectionBase_BaseAdd_m2553984848
hEc:__ZN5physx2Sc19ShapeInstancePairLL26onPoseChangedWhileSleepingEv
H2f:_Datatype_QNameXdr_get_ValueType_m3646135839
Amg:_X509Stores__ctor_m3059208642
ucd:__ZN5physx22PxcSweepCapsuleCapsuleERKNS_11PxsCCDShapeES2_PKNS_12PxsRigidBodyES5_RKNS_11PxTransformES8_S8_S8_fRNS_6PxVec3ESA_RNS_10PxcNpCacheERNS_18PxcNpThreadContextEf
Orl:_InternalEnumerator_1_MoveNext_m3389738333_AdjustorThunk
Qnb:__Z35Transfer_Blittable_FixedBufferFieldI18StreamedBinaryReadILb0EEaEvRK29SerializationCommandArgumentsR31RuntimeSerializationCommandInfo
h0m:__ZN6il2cpp2vm9Exception27RaiseNullReferenceExceptionEv
slc:__ZNK5physx3Cct17CapsuleController21getHalfHeightInternalEv
Joa:__ZNK25MultiBlocksMemoryFileData5CloneEv
s3k:_ReadOnlyCollection_1_System_Collections_IList_IndexOf_m3466286536_gshared
hmn:_GC_add_ext_descriptor
Dkc:__ZN5physx21PxQueryFilterCallbackD2Ev
GEo:__ZL83Marshal_t785896760_CustomAttributesCacheGenerator_Marshal_PtrToStructure_m673412918P21CustomAttributesCache
L2g:_DtdParser_ScanElement7_m4281294458
PNo:__ZL49Encoder_t751367874_CustomAttributesCacheGeneratorP21CustomAttributesCache
Hnn:__ZN6il2cpp2os14WindowsRuntime22GetRestrictedErrorInfoEv
bih:_WebConnectionStream_EndWrite_m3252995173
qfj:_RemotingServices_GetMethodBaseFromName_m3271095947
tJp:_glInvalidateFramebuffer__wrapper
NZl:_ConfigurationXmlDocument_CreateElement_m403531351
Nna:__ZN17ArchiveFileSystem11CreateAsDirER13FileEntryData
Jrc:__ZL30GeomOverlapCallback_CapsuleBoxRKN5physx10PxGeometryERKNS_11PxTransformES2_S5_PNS_2Gu12TriggerCacheE
oBp:dynCall_iiiiiiiiiiii
jSk:_ObjectComparer_1_Compare_m2650065743_gshared
PKd:__Z38Rigidbody_CUSTOM_INTERNAL_get_velocityP12Il2CppObjectP8Vector3f
Dri:_InternalEnumerator_1_MoveNext_m2289229080_AdjustorThunk
fVi:_X509CertificateImplApple_GetValidFrom_m2451066733
cKh:_XmlAttribute__ctor_m2157586764
CXf:_TaiwanCalendar_GetEra_m1644448566
Wha:__ZN22VertexDeclarationCacheD0Ev
fbo:__ZL68Guid_t_CustomAttributesCacheGenerator_Guid_StringToShort_m3227393496P21CustomAttributesCache
XMd:__Z54Register_UnityEngine_Analytics_CustomEventData_AddCharv
y8:__ZN6prcoreL17RemapGenericFloatI16TexFormatRGFloat17TexFormatRGBAHalfEEvPKNS_9InnerInfoE
Ft:__ZN12AudioManager22CreateFMODSoundFromWWWEP10IWWWStream15FMOD_SOUND_TYPE17FMOD_SOUND_FORMATjjbbP10SampleClip
uTb:__ZNK32RendererMaterialAnimationBinding15GenerateBindingERKN4core12basic_stringIcNS0_20StringStorageDefaultIcEEEEbRN11UnityEngine9Animation14GenericBindingE
zsl:_InternalEnumerator_1_MoveNext_m3074289735_gshared
tyh:_AsyncTaskCache_CreateCacheableTask_TisBoolean_t3825574718_m2536151589_gshared
SRn:__Z40RuntimeInvoker_HandshakeType_t2540099417PFvvEPK10MethodInfoPvPS4_
Usg:_ReflectionPermission_FromXml_m3665335477
CP:__ZN8Remapper23GetOrGenerateInstanceIDERK26SerializedObjectIdentifier
EJm:__ZN14dense_hash_mapI10KeyWrapperIPK9EventInfoEP11Il2CppClassN6il2cpp6icalls8mscorlib6System19Il2CppEventInfoHashENS4_14EqualsComparerINSA_22Il2CppEventInfoCompareEEENSt3__29allocatorINSF_4pairIKS4_S6_EEEEEC2EjRKSB_RKSE_
Ili:_StreamWriter_Flush_m3426120024
Una:__ZN17FileSystemHandler10AtomicMoveER13FileEntryDataS1_
xii:_MemoryStream__ctor_m1489366847
gvg:_SecurityElement_IsValidTag_m64902195
Zyi:_Enumerator_System_Collections_IEnumerator_get_Current_m229223308_AdjustorThunk
oBi:_KeyCollection_System_Collections_Generic_ICollectionU3CTKeyU3E_Remove_m1144254255_gshared
FAk:_PropertyInfo_SetValue_m2961483868
X2l:_Marshal_PtrToStringAnsi_m2970070000
xPj:_CaseInsensitiveAscii_FastGetHashCode_m2558534179
dRl:_GenericComparer_1__ctor_m1501074793_gshared
mag:_SchemaAttDef__ctor_m3265559109
gwf:_Array_InternalArray__set_Item_TisKeyValuePair_2_t3800763530_m1672435878_gshared
_qi:_InternalEnumerator_1_MoveNext_m1079491047_gshared
cAp:__ZNSt9exceptionD2Ev
Ysn:__Z32RuntimeInvoker_Int32_t2071877448PFvvEPK10MethodInfoPvPS4_
Qpe:_XdrBuilder_XDR_InitGroup_m1475976871
xZn:__Z168RuntimeInvoker_Void_t1841601450_RuntimeObject_RuntimeObject_CancellationToken_t1851405782_Int32_t2071877448_Int32_t2071877448_RuntimeObject_StackCrawlMarkU26_t725225610PFvvEPK10MethodInfoPvPS4_
A_d:_XmlDownloadManager__ctor_m1963870567
m3i:_ConstructorInfo_Invoke_m2144827141
GOa:__ZN6Sprite8TransferI24GenerateTypeTreeTransferEEvRT_
Lch:_Socket_BeginSend_m3334229134
Vcp:__ZL77Physics_t634932869_CustomAttributesCacheGenerator_Physics_Raycast_m2519603653P21CustomAttributesCache
qCn:__Z61RuntimeInvoker_Void_t1841601450_CancellationToken_t1851405782PFvvEPK10MethodInfoPvPS4_
JOa:__ZN7SubMesh8TransferI24GenerateTypeTreeTransferEEvRT_
zYl:_ConfigurationProperty__ctor_m1536343945
ONj:_GZipStream_Seek_m265045829
uzk:_MonoProperty_get_CanWrite_m2124922514
GBn:__Z102RuntimeInvoker_Boolean_t3825574718_RuntimeObject_Int32_t2071877448_RuntimeObject_DoubleU26_t1208767207PFvvEPK10MethodInfoPvPS4_
RGg:_TermInfoDriver_IsSpecialKey_m3036269876
pac:__ZN5physx3Cct10Controller6setPosERKNS_14PxExtendedVec3E
Dpj:_PrimeGeneratorBase_get_Confidence_m3927471963
$Hm:__ZN6il2cpp6icalls8mscorlib6SystemL16CheckMemberMatchI9FieldInfoNS_5utils10functional6FilterINSt3__212basic_stringIcNS8_11char_traitsIcEENS8_9allocatorIcEEEENS5_13VmStringUtils23CaseInsensitiveComparerEEEEEbPKT_PK11Il2CppClassSN_iRKT0_
wcc:__ZN5physx2GuL14testFaceNormalERKNS0_13PolygonalDataES3_PNS0_12SupportLocalES5_RKNS_6shdfnd3aos15PsMatTransformVESA_RKNS7_6FloatVERSB_RjRNS7_5Vec3VENS0_13FeatureStatusERSI_
vep:__ZL96RemoteSettings_t392466225_CustomAttributesCacheGenerator_RemoteSettings_CallOnUpdate_m1092852243P21CustomAttributesCache
fBk:_RuntimeEventInfo_get_BindingFlags_m1724436278
Qne:_DecimalStruct__ctor_m2271194909
Nzh:_Array_InternalArray__ICollection_Add_Tisbucket_t976591655_m3940110802_gshared
UCh:_Array_InternalArray__ICollection_CopyTo_TisXPathResultType_t1521569578_m408444316_gshared
Z0o:__ZL57DnsQType_t1279797630_CustomAttributesCacheGenerator_MINFOP21CustomAttributesCache
_le:_SchemaInfo_get_DocTypeName_m3496713926
wak:_Enumerator_MoveNext_m2019024253_gshared
ERb:__ZN13ProduceHelperI14Texture2DArrayLb0EE7ProduceE18MemLabelIdentifier18ObjectCreationMode
E5h:_UInt64_GetTypeCode_m3053128089_AdjustorThunk
wep:__ZL63AnalyticsSessionState_t935548771_CustomAttributesCacheGeneratorP21CustomAttributesCache
ukf:_SerializationInfoEnumerator_get_Value_m3437991400
Iyo:__ZL91X509Certificate_t283079845_CustomAttributesCacheGenerator_X509Certificate_Reset_m1676863543P21CustomAttributesCache
Prc:__ZL32GeomOverlapCallback_ConvexConvexRKN5physx10PxGeometryERKNS_11PxTransformES2_S5_PNS_2Gu12TriggerCacheE
ivh:_Array_InternalArray__IEnumerable_GetEnumerator_TisMap_t2552390023_m2519692519_gshared
l$e:_SortedList_GetKeyList_m3012651170
WJh:_XsdBuilder_SendValidationEvent_m2171215572
j6m:__ZN6il2cpp8metadata15GenericMetadata15GetGenericClassEiPK17Il2CppGenericInst
MEn:__Z118RuntimeInvoker_CancellationTokenRegistration_t1708859357_RuntimeObject_RuntimeObject_SByte_t454417549_SByte_t454417549PFvvEPK10MethodInfoPvPS4_
SQe:_Boolean_System_IConvertible_ToInt16_m977801621
Pab:__Z18Transfer_BlittableI14SafeBinaryReadLb0E10Matrix4x4fEvRK29SerializationCommandArgumentsR31RuntimeSerializationCommandInfo
hqb:__Z24GetFixedBehaviourManagerv
_qn:__ZNSt3__26__treeINS_12__value_typeIPFvvEPK10MethodInfoEENS_19__map_value_compareIS3_S7_NS_4lessIS3_EELb1EEENS_9allocatorIS7_EEE16__construct_nodeIJNS_4pairIS3_S6_EEEEENS_10unique_ptrINS_11__tree_nodeIS7_PvEENS_22__tree_node_destructorINSC_ISL_EEEEEEDpOT_
jzb:__ZN12FlareManager9UpdateJobEP25FlareManagerUpdateJobData
wNk:_LocalCertSelectionCallback__ctor_m1239230490
n$l:_SectionInformation_set_AllowLocation_m1178294342
Ump:_vfprintf
xro:__ZL92ThreadHelper_t1887861858_CustomAttributesCacheGenerator_ThreadHelper_ThreadStart_m3087896771P21CustomAttributesCache
Off:_SerializationException__ctor_m1019897788
dkf:_WriteObjectInfo_CheckTypeForwardedFrom_m1613691574
ACk:_TypeFilter_BeginInvoke_m2395188690
Gza:__ZN19ShaderPropertySheet20ReservePropertyCountEj
h_m:__ZN6il2cpp6icalls8mscorlib6System7Runtime15InteropServices7Marshal12BufferToBSTREP11Il2CppArrayi
Tzb:__ZN20DynamicPropertySheetD0Ev
ugn:__ZN6il2cpp5utils11StringUtils6PrintfEPKcz
kMb:__ZN14SafeBinaryRead17RegisterConverterEPKcS1_PFbPvRS_E
iL:__ZN35RegisterRuntimeInitializeAndCleanup8RegisterEPFvPvES2_iS0_
gXc:__ZNK5physx19NpRigidBodyTemplateINS_14PxRigidDynamicEE17getRigidBodyFlagsEv
cle:_SchemaElementDecl_set_AnyAttribute_m3100780733
qam:_X509CertificateCollection_GetHashCode_m1043795447
gsg:_AsyncCallback__ctor_m3071689932
cDd:__ZN14PhysicMaterial8TransferI18StreamedBinaryReadILb0EEEEvRT_
n4j:_CultureInfoConverter_ConvertFrom_m1481396941
iih:_WebConnectionStream_get_RequestWritten_m1381033641
D6m:__ZN6il2cpp6icalls8mscorlib6System11RuntimeType11getFullNameEP27Il2CppReflectionRuntimeTypebb
Kcg:_RuntimeEventHandle_get_Value_m2183926062_AdjustorThunk
Ubn:__ZNSt3__26vectorIN6il2cpp2os10ThreadImpl10APCRequestENS_9allocatorIS4_EEE21__push_back_slow_pathIS4_EEvOT_
dDa:__ZN20SphericalHarmonicsL215AddAmbientLightERK10ColorRGBAf
ycd:__ZN5physx25PxcSweepConvexHeightfieldERKNS_11PxsCCDShapeES2_PKNS_12PxsRigidBodyES5_RKNS_11PxTransformES8_S8_S8_fRNS_6PxVec3ESA_RNS_10PxcNpCacheERNS_18PxcNpThreadContextEf
_0n:__Z62RuntimeInvoker_Int32_t2071877448_ParameterModifier_t1820634920PFvvEPK10MethodInfoPvPS4_
_hg:_DSAManaged_NormalizeArray_m2287089393
q0b:__Z21Object_CUSTOM_DestroyP12Il2CppObjectf
Gug:_StrongNameIdentityPermission__ctor_m2269785344
iQh:_Ucs4Encoding__ctor_m2464034903
t5a:__ZN8Material26ResetAllCachedMaterialDataEP6Shader
iQe:_BitConverter_ToUInt32_m4153360341
zao:__ZL66RuntimeArray_CustomAttributesCacheGenerator_Array_Sort_m3002148658P21CustomAttributesCache
L$l:_AsyncTaskMethodBuilder_Create_m2365585067
Tjp:_Cover__ctor_m3185626888
ca:invoke_diddi
P7j:_Enumerator_System_Collections_IEnumerator_get_Current_m203376360_gshared
Nyg:_Hash__ctor_m3045600999
fZn:__Z56RuntimeInvoker_Void_t1841601450_KeyValuePair_2_t38854645PFvvEPK10MethodInfoPvPS4_
CFh:_XmlSchemaObject_set_IsProcessing_m3024508410
y$j:_MonoSslStreamImpl_AuthenticateAsClient_m2763496729
wql:_InternalEnumerator_1_Dispose_m1743466569_AdjustorThunk
Mxk:_MonoField_get_Attributes_m4138688533
UOl:_EqualityComparer_1_get_Default_m225068151_gshared
E0h:_Type_get_IsUserType_m1070862145
$9a:__Z18Transfer_BlittableI14SafeBinaryReadLb0EiEvRK29SerializationCommandArgumentsR31RuntimeSerializationCommandInfo
pGm:__ZN6il2cpp2vm13MetadataCache30GetPropertyDefinitionFromIndexEi
KDk:_ResourceEnumerator__ctor_m1679839941
kWc:__ZN5physx14NpRigidDynamic7releaseEv
Zei:_MonoIO_GetException_m2577367044
xQd:__ZN22BaseUnityConnectClient17InitializeSessionERKN4core12basic_stringIcNS0_20StringStorageDefaultIcEEEES6_N19CloudServiceHandler13InitModeFlagsE
Tvk:_MethodInfo_Equals_m1577433884
WDi:_Enumerator_MoveNext_m1404007384_gshared
Z_i:_NumberFormatter_get_IsZero_m1325357749
O8c:__ZN5physx6shdfnd8PoolBaseINS_21PxsBodyTransformVault13PxsBody2WorldENS0_19ReflectionAllocatorIS3_EEE15disposeElementsEv
uTj:_CookieTokenizer_set_Name_m1460114739
tHp:_emscripten_glDeleteBuffers__wrapper
yLf:_Enum_ToObject_m322320225
JZo:__ZL113XmlSchemaType_t1795078578_CustomAttributesCacheGenerator_XmlSchemaType_t1795078578____ValueConverter_PropertyInfoP21CustomAttributesCache
TTi:_X509Certificate__ctor_m3860837120
jtp:__ZNKSt3__220__time_get_c_storageIcE7__weeksEv
mvo:__ZL69FileDialogPermissionAccess_t4165817673_CustomAttributesCacheGeneratorP21CustomAttributesCache
yic:__ZN5physx2Gu30computeCapsule_TriangleMeshMTDERKNS_22PxTriangleMeshGeometryERKNS_11PxTransformERNS0_8CapsuleVEffbRNS_10PxSweepHitE
aac:__ZThn8_N5physx3Cct13BoxControllerD0Ev
_zf:_Array_Sort_TisRuntimeObject_m3674422195_gshared
DYa:__ZN30RuntimeInitializeOnLoadManager8TransferI18StreamedBinaryReadILb0EEEEvRT_
DLl:_Dictionary_2__ctor_m1206668798_gshared
Vrk:_TypeBuilder_not_supported_m3178173643
rZb:__ZL34GetComponentsImplementationRecurseILb1ELi0ELi2EEbR10GameObjectbRK17CompareParametersRK39GetComponentsImplementation_ReturnValue
Qan:__ZN6il2cpp2os10SocketImpl11SetBlockingEb
fTo:__ZL105DateTimeFormatInfo_t2187473504_CustomAttributesCacheGenerator_DateTimeFormatInfo_OnSerializing_m560403014P21CustomAttributesCache
cNj:_DeflateStream_get_CanWrite_m2090715306
Tfg:_X509Stores_get_TrustedRoot_m346131232
s0o:__ZL78IInternalConfigConfigurationFactory_t2261973434_CustomAttributesCacheGeneratorP21CustomAttributesCache
Dxn:__Z121RuntimeInvoker_ListBuilder_1_t3704337562_RuntimeObject_Int32_t2071877448_Int32_t2071877448_RuntimeObject_SByte_t454417549PFvvEPK10MethodInfoPvPS4_
ito:__ZL100StackGuard_t1348285595_CustomAttributesCacheGenerator_StackGuard_CheckForSufficientStack_m1961481249P21CustomAttributesCache
nzb:__ZNK6Camera18WorldToScreenPointERK8Vector3fPb
Eid:__ZN5physx2Cm12DelegateTaskINS_10PxsContextEXadL_ZNS2_28mergeCMDiscreteUpdateResultsEPNS_10PxBaseTaskEEEE11runInternalEv
yLd:__ZN14UnityAnalyticsD0Ev
hTl:_GenericEqualityComparer_1__ctor_m2828795098_gshared
qwl:_InternalEnumerator_1__ctor_m3084132532_gshared
rzd:__ZN5physx19TriangleMeshBuilder10importMeshERKNS_18PxTriangleMeshDescERKNS_15PxCookingParamsEb
IWo:__ZL153XmlSchemaComplexContentRestriction_t1722137421_CustomAttributesCacheGenerator_XmlSchemaComplexContentRestriction_t1722137421____BaseTypeName_PropertyInfoP21CustomAttributesCache
wok:__ZN23InterfaceActionInvoker2IP26TimeSpanU5BU5D_t1313935688iE6InvokeEjP11Il2CppClassP12Il2CppObjectS1_i
VZm:__ZNSt3__215basic_stringbufIcNS_11char_traitsIcEENS_9allocatorIcEEED2Ev
AEf:_Array_InternalArray__get_Item_TisILTokenInfo_t149559338_m2004750537_gshared
oba:__Z18IsCompressedFormat14GraphicsFormat
drm:__ZL25UnresolvedVirtualCall_139P12Il2CppObjectS0_S0_S0_S0_iiPK10MethodInfo
Mrl:_InternalEnumerator_1_Dispose_m549215360_AdjustorThunk
_Te:_Convert_ToSByte_m2665932200
OO:__ZNSt3__227__insertion_sort_incompleteIRPFbRKN18AwakeFromLoadQueue4ItemES4_EPS2_EEbT0_S9_T_
Iop:_strrchr
pNo:__ZL144InternalDecoderBestFitFallbackBuffer_t925729930_CustomAttributesCacheGenerator_InternalDecoderBestFitFallbackBuffer_InternalFallback_m2372942407P21CustomAttributesCache
rEm:__ZN14dense_hash_mapI10KeyWrapperIN6il2cpp5utils13dynamic_arrayIPK10Il2CppTypeLj4EEEEPFvvENS1_8metadata19Il2CppSignatureHashENS8_14EqualsComparerINSB_22Il2CppSignatureCompareEEENSt3__29allocatorINSG_4pairIKS8_SA_EEEEE15set_deleted_keyERSJ_
BRo:__ZL102EncodingTable_t1040637825_CustomAttributesCacheGenerator_EncodingTable_GetCodePageDataItem_m3298145185P21CustomAttributesCache
eZo:__ZL124XmlSchemaSimpleContent_t2303138587_CustomAttributesCacheGenerator_XmlSchemaSimpleContent_t2303138587____Content_PropertyInfoP21CustomAttributesCache
k7g:_Compiler_CompileElement_m1067365263
Xvn:__Z76RuntimeInvoker_Boolean_t3825574718_RuntimeObject_RuntimeObject_RuntimeObjectPFvvEPK10MethodInfoPvPS4_
lPc:__ZN5physx6shdfnd5ArrayINS_18PxClothFabricPhaseENS0_19ReflectionAllocatorIS2_EEE8recreateEj
MKa:__ZN26EnlightenSystemInformation8TransferI14SafeBinaryReadEEvRT_
JAj:_TypeConverter_CanConvertFrom_m1277808141
Iio:__ZL80Decimal_t724701077_CustomAttributesCacheGenerator_Decimal_op_Multiply_m363076371P21CustomAttributesCache
d2j:_OrderedDictionaryKeyValueCollection__ctor_m3330578960
rBh:_Array_InternalArray__ICollection_CopyTo_TisEntry_t1422871999_m646712475_gshared
ajm:_Comparison_1__ctor_m96466507_gshared
bYf:_TextInfo_CompareOrdinalIgnoreCaseEx_m3031886726
RRd:__ZN11UnityEngine15PlatformWrapper20SetPlayerPrefsUInt64ERKN4core12basic_stringIcNS1_20StringStorageDefaultIcEEEEy
DSa:__ZN12MeshRendererD0Ev
BC:__ZN12AudioManager35GetCurrentSpatializerDefinitionNameEv
Cgc:__ZN5physx2Gu16sweepBoxTriangleERKNS_10PxTriangleERKNS_9PxBounds3ERKNS_6PxVec3ES9_RS7_SA_Rf
Jsm:__ZL25UnresolvedVirtualCall_225P12Il2CppObjectffPK10MethodInfo
OYe:_Hashtable__ctor_m2702360557
Wh:_utime
bAd:__ZN5physx10writeChunkEaaaaRNS_14PxOutputStreamE
ERj:_WebRequestModuleElement_get_Type_m63808568
Y4n:__Z60RuntimeInvoker_ResourceLocator_t2156390884_Int32_t2071877448PFvvEPK10MethodInfoPvPS4_
s0k:_ReadOnlyCollection_1_System_Collections_IList_set_Item_m3193612146_gshared
sOm:__ZNSt3__26vectorIN6il2cpp2vm17TypeNameParseInfoENS_9allocatorIS3_EEE8allocateEj
WPl:_EqualityComparer_1_IndexOf_m2972214137_gshared
HPo:__ZL94UTF32Encoding_t549530865_CustomAttributesCacheGenerator_UTF32Encoding_GetByteCount_m3183615393P21CustomAttributesCache
uRn:__Z121RuntimeInvoker_Boolean_t3825574718_RuntimeObject_RuntimeObject_RuntimeObject_RuntimeObject_X509CertificateU26_t2146329763PFvvEPK10MethodInfoPvPS4_
Jtm:__ZL25UnresolvedVirtualCall_279P12Il2CppObjectxxPK10MethodInfo
Lpj:_PrimalityTest_Invoke_m4058801829
gpe:_XdrBuilder_ParseInteger_m2793348660
pUn:__Z91RuntimeInvoker_RuntimeObject_RuntimeObject_RuntimeObject_Int32_t2071877448_SByte_t454417549PFvvEPK10MethodInfoPvPS4_
mn:FUNCTION_TABLE_viiiiif
Ljj:_RemotingConfiguration_SetCustomErrorsMode_m1844153208
epf:_RuntimeType_CreateInstanceSlow_m3417127260
Tn:FUNCTION_TABLE_viiiiii
o4f:_Datatype_yearMonthDuration_get_TypeCode_m3216553330
RUg:_ManualResetEventSlim_set_Waiters_m400855668
Gsl:_InternalEnumerator_1__ctor_m3708844878_gshared
Fwi:_Comparer_1_CreateComparer_m3888292209_gshared
gyg:_DefaultPolicies_get_LocalIntranet_m917665752
sIi:_Dictionary_2_System_Collections_Generic_ICollectionU3CSystem_Collections_Generic_KeyValuePairU3CTKeyU2CTValueU3EU3E_Add_m627006978_gshared
_Fc:__ZN5physx2Sc9RigidCore13onShapeChangeERNS0_9ShapeCoreENS_7PxFlagsINS0_21ShapeChangeNotifyFlag4EnumEjEENS4_INS_11PxShapeFlag4EnumEhEE
IRf:_CultureInfo_GetFormat_m3560116485
tGh:_XmlSchemaParticle_get_MaxOccursString_m365438406
MXf:_TextInfo_ToLowerInternal_m1927706523
AXf:_TaiwanCalendar_GetDayOfWeek_m295459432
KTc:__ZN5physx6shdfnd5ArrayIPvNS0_15InlineAllocatorILj256ENS0_19ReflectionAllocatorINS_2Sc19ParticlePacketShapeEEEEEE15growAndPushBackERKS2_
bfd:__ZN5physx17solveContactBlockEPKNS_23PxcSolverConstraintDescEjRNS_16PxcSolverContextE
kAd:__ZN5physx6shdfnd10FoundationD2Ev
xGb:__ZN15LightmapSTCacheC2ER13BatchRendererR15RenderLoopStats
Zgo:__ZL76Convert_t2607082565_CustomAttributesCacheGenerator_Convert_ToInt64_m44696721P21CustomAttributesCache
vYa:__ZNSt3__26vectorIN4core12basic_stringIcNS1_20StringStorageDefaultIcEEEE13stl_allocatorIS5_L18MemLabelIdentifier13ELi16EEE8__appendEj
ekj:_TrackingServices__cctor_m3639412334
uVh:_ThreadStart__ctor_m3015256841
uIf:_GameObject_GetComponentsInChildren_TisRuntimeObject_m3906671769_gshared
EH:__ZN19CloudServiceHandler20StartEventDispatcherERKN11UnityEngine15CloudWebService18CloudServiceConfigERNS1_23WebRequestRestHeaderMapE
vvg:_StrongNamePublicKeyBlob_Equals_m2407250401
UGi:_ValueCollection_System_Collections_IEnumerable_GetEnumerator_m1773104428_gshared
Tqa:__ZN17GlobalGameManager23VirtualRedirectTransferER19StreamedBinaryWriteILb0EE
B8b:__ZN27PerformanceReportingManager21OnSceneTimingCallbackERK15SceneLoadTimingRKN4core12basic_stringIcNS3_20StringStorageDefaultIcEEEE
hsm:__ZL25UnresolvedVirtualCall_197P12Il2CppObjectiaPK10MethodInfo
NGh:_XmlSchemaSequence_get_Items_m558320949
j9c:__ZN5physx2Sc10NPhaseCoreD2Ev
Mtc:__ZN5physx2Sc7BodySim18onConstraintDetachEv
_8k:_ReadOnlyCollection_1_System_Collections_Generic_ICollectionU3CTU3E_Clear_m2622689326_gshared
byg:_FileCodeGroup__ctor_m1981837369
zNm:__ZN6il2cpp2os4File9SetLengthEPNS0_10FileHandleExPi
qMk:_sockaddr_in6_t2899168071_marshal_pinvoke
KIk:_HttpWebResponse__ctor_m2248254905
qUb:__ZZL23RegisterLightPropertiesR22GenericPropertyBindingEN20Wrapper_LightColorr013SetFloatValueEPvf
JAk:_PropertyInfo_GetConstantValue_m937088709
zi:_emscripten_glGetTexParameteriv
J1c:__ZN5physx7NpScene8simulateEfPNS_10PxBaseTaskEPvjb
o0c:__ZThn8_N5physx2Sc24ElementInteractionMarker10onActivateEj
Cfm:_UnityEvent_RemoveListener_m3048567659
Jql:_InternalEnumerator_1_get_Current_m3206960238_gshared
rIi:_Dictionary_2_Add_m2429188034_gshared
$rj:_RSAManaged_ImportParameters_m3060955884
Blg:_DeriveBytes__ctor_m3089550878
pdi:_MemoryStream_InternalReadInt32_m3765849075
Ezf:_Array_Sort_TisDateTime_t693205669_m1593980430_gshared
JPb:__Z13RegisterClassI4MeshEvv
odi:_BinaryReader_ReadInt32_m1811936587
gKf:_Double_TryParse_m815528105
Pbe:_XmlTextReaderImpl_get_IsResolverSet_m242420327
JBk:_StrongNameKeyPair_GetRSA_m2992233029
gv:__ZN12AudioManager8TransferI19StreamedBinaryWriteILb0EEEEvRT_
GCl:_ConfiguredTaskAwaitable_1__ctor_m1905790602_gshared
lii:_WriteDelegate_Invoke_m2103848735
snf:_SafeSerializationManager_OnDeserialized_m1586876701
QVl:_ConfigurationProperty_get_IsElement_m12977767
nse:_XmlBaseConverter_ToDateTime_m914294991
$dp:__ZL51TileBase_t4130003429_CustomAttributesCacheGeneratorP21CustomAttributesCache
G9j:_Enumerator_get_Current_m1111730852_AdjustorThunk
mXo:__ZL103XmlSchema_t880472818_CustomAttributesCacheGenerator_XmlSchema_t880472818____IsPreprocessed_PropertyInfoP21CustomAttributesCache
odo:__ZL88String_t_CustomAttributesCacheGenerator_String_CompareOrdinalIgnoreCaseHelper_m964621052P21CustomAttributesCache
tTb:__ZNK32RendererMaterialAnimationBinding12GetPPtrValueERKN11UnityEngine9Animation10BoundCurveE
$mb:__Z18Transfer_BlittableI18StreamedBinaryReadILb0EELb0E8Vector2fEvRK29SerializationCommandArgumentsR31RuntimeSerializationCommandInfo
OCc:__ZN5physx18NpArticulationLink10clearForceENS_11PxForceMode4EnumE
Ymg:___DTString__ctor_m981507327_AdjustorThunk
jni:_NullTextWriter_WriteLine_m3548124046
mdc:__ZN5physx2Gu30distanceSegmentTriangleSquaredERKNS_6PxVec3ES3_S3_S3_S3_PfS4_S4_
Vrf:_RuntimeType_FormatTypeName_m1823158961
iWj:_CFDictionary__ctor_m882209310
NSj:_CookieCollectionEnumerator_System_Collections_IEnumerator_Reset_m1109519469
xhf:_SerStack__ctor_m1632652053
H7a:__ZN22LocalFileSystemHandler9MakeLocalER13FileEntryDatab
Toe:_XdrValidator_CheckDefaultValue_m1908846847
Dwg:_String_op_Inequality_m304203149
ypk:_List_1_System_Collections_Generic_ICollectionU3CTU3E_get_IsReadOnly_m3086935881_gshared
Zef:_Delegate_arg_type_match_this_m906553673
RVj:_CFArray__ctor_m1132569923
yGk:_NetworkCredential_InternalGetPassword_m1924511716
ZWi:_FileIOPermissionAttribute_CreatePermission_m1105139803
aY:__Z13FormatOrderedPKcz
Sei:_Path_IsPathRooted_m1347207448
HHj:_DefaultExtendedTypeDescriptor_System_ComponentModel_ICustomTypeDescriptor_GetConverter_m1534642667_AdjustorThunk
IXd:_XmlDocument_GetResolver_m1892781087
nNc:__ZNK5physx15NpActorTemplateINS_7PxClothEE12getAggregateEv
bCl:_ConfiguredTaskAwaiter_OnCompleted_m3754851881_AdjustorThunk
dQb:__Z13RegisterClassI15QualitySettingsEvv
Yxf:__ZN21InterfaceFuncInvoker2Ii18Decimal_t724701077S0_E6InvokeEjP11Il2CppClassP12Il2CppObjectS0_S0_
c5l:_ClientIdentity_set_ClientProxy_m3932647473
gGb:__ZN25DeferredRenderLoopScratchD0Ev
Djk:_List_1_System_Collections_IList_Remove_m1245566105_gshared
IV:__ZN14PlayableOutput26ClearInvalidSourcePlayableEv
eTg:_CancellationTokenSource_Dispose_m2531076100
Dbd:__ZNK5physx2Cm12DelegateTaskINS_13PxsCCDContextEXadL_ZNS2_14postCCDAdvanceEPNS_10PxBaseTaskEEEE7getNameEv
wZm:__ZThn28_N46ManagedErrorInfo_t914761495_ComCallableWrapper37IErrorInfo_GetHelpContext_m3383284997EPjPi
P_:__ZN13GfxDeviceGLES9SkinOnGPUERK18VertexStreamSourceP9GfxBufferP17GPUSkinPoseBufferS4_ii17ShaderChannelMaskb
sUk:_ObjectEqualityComparer_1_Equals_m3481200139_gshared
O0a:__ZN15dense_hashtableINSt3__24pairIKiN4core17string_with_labelILi1EEEEEi18SInt32HashFunctionN14dense_hash_mapIiS5_S7_NS0_8equal_toIiEE13stl_allocatorIS6_L18MemLabelIdentifier1ELi16EEE9SelectKeyESA_SD_E9copy_fromERKSG_j
Qva:__ZN6Camera11ResetAspectEv
W1h:_Type_get_IsGenericType_m3396841573
dXa:__ZN15ResourceManagerD0Ev
kmh:_X509BasicConstraintsExtension_get_HasPathLengthConstraint_m3788532759
Fza:__ZNK17InstancedPropInfo22FillInstancePropertiesER19ShaderPropertySheetjPK17BatchInstanceDatajRK15RenderNodeQueue
f2o:__ZL115SimpleResolverEventArgs_t4294564137_CustomAttributesCacheGenerator_SimpleResolverEventArgs_set_HostEntry_m626370242P21CustomAttributesCache
Nua:__ZN22CreateGpuProgramOutputD2Ev
OOk:_List_1_System_Collections_Generic_ICollectionU3CTU3E_get_IsReadOnly_m2090231332_gshared
smc:__ZNK5physx3Cct15ObstacleContext14getNbObstaclesEv
rib:__Z18Transfer_BlittableI19StreamedBinaryWriteILb0EELb1EsEvRK29SerializationCommandArgumentsR31RuntimeSerializationCommandInfo
Fpg:_AppDomainSetup_get_ApplicationBase_m1978500372
Kgf:_FormatterServices_get_formatterServicesSyncObject_m4136787239
IQi:_RSACryptoServiceProvider_EncryptValue_m802714447
l4o:__ZL62IPAddressCollection_t2986660307_CustomAttributesCacheGeneratorP21CustomAttributesCache
xco:__ZL64MonoLimitationAttribute_t17004303_CustomAttributesCacheGeneratorP21CustomAttributesCache
j3o:__ZL63DecompressionMethods_t2530166567_CustomAttributesCacheGeneratorP21CustomAttributesCache
H7h:_VersionResult_SetFailure_m3977921922_AdjustorThunk
bxd:__ZN5physx6shdfnd8PoolBaseINS_11NpAggregateENS0_19ReflectionAllocatorIS2_EEE12allocateSlabEv
QZh:_TimeZoneInfo__ctor_m2916511705
VVc:__ZN5physx16NpParticleSystem23setParticleReadDataFlagENS_22PxParticleReadDataFlag4EnumEb
eMk:_UnixNetworkInterface_SetLinkLayerInfo_m963974689
cak:_Enumerator_get_Current_m276962674_AdjustorThunk
Qye:_XmlSchemaDatatype_DeriveByUnion_m1031622243
Zzk:_MonoPropertyInfo_t486106184_marshal_pinvoke_back
EUc:__ZN5physx7NpScene26removeFromParticleBaseListERNS_14PxParticleBaseE
RSf:_DateTimeFormatInfo_GetInstance_m3133223810
rpj:_ModulusRing_BarrettReduction_m2802101099
sUc:__ZN5physx23NpParticleFluidReadData18getDataAccessFlagsEv
S6a:__ZN12HandlerChain4OpenER13FileEntryData14FilePermission16FileAutoBehavior
uWi:_FileDialogPermission_ToXml_m2633979114
u2j:_OrderedDictionary_System_Runtime_Serialization_IDeserializationCallback_OnDeserialization_m1457654302
Qwk:_MonoMethodInfo_GetParametersInfo_m3456861922
YQm:__ZN15dense_hashtableINSt3__24pairIK10KeyWrapperINS1_IPK10MethodInfoP11Il2CppClassEEEjEES9_17ReflectionMapHashIS8_EN14dense_hash_mapIS9_jSD_NS9_14EqualsComparerINS0_8equal_toIS8_EEEENS0_9allocatorISB_EEE9SelectKeyESI_SK_E6insertERKSB_
N8b:__ZN27PerformanceReportingManager29OnSceneLoadedAfterAwakeStaticEPS_iR18AwakeFromLoadQueueN19RuntimeSceneManager11LoadingModeE
spj:_Kernel_MultiplyMod2p32pmod_m874406394
OR:__ZN14FileCacherReadD2Ev
n_a:__ZN13RendererScene23UpdatePreviousFrameDataEii
vRi:_RSAPKCS1SignatureDeformatter_VerifySignature_m1825067195
T0i:_ParsingInfo_t442145320_marshal_pinvoke_back
Q_b:__Z50Register_UnityEngine_CullingGroup_FinalizerFailurev
S5j:_KeyValuePair_2_ToString_m2613351884_gshared
X_a:__ZN27UnloadUnusedAssetsOperationD0Ev
Vso:__ZL88Task_t1843236107_CustomAttributesCacheGenerator_Task_ExecutionContextCallback_m553759868P21CustomAttributesCache
kdk:_List_1_Sort_m2623993033_gshared
HOf:_NumberFormatInfo_ReadOnly_m2289393823
WYj:_DnsResourceRecordAAAA__ctor_m1749576842
mKl:_Dictionary_2_Resize_m2807616086_gshared
bcd:__ZN5physx10PxsCCDPair12updateShapesEv
aSo:__ZL86TextInfo_t3620182823_CustomAttributesCacheGenerator_TextInfo_OnDeserialized_m186802719P21CustomAttributesCache
kQh:_Ucs4Encoding1234_GetPreamble_m2237950777
$Ii:_Dictionary_2__ctor_m3111963761_gshared
aSi:_SHA256Managed_HashCore_m4111458495
rlp:_MouseOverMaterialSwap__ctor_m1239250100
uRf:_CultureInfo_get_CompareInfo_m3085280862
IFn:__Z108RuntimeInvoker_Void_t1841601450_RuntimeObject_SByte_t454417549_SByte_t454417549_StackCrawlMarkU26_t725225610PFvvEPK10MethodInfoPvPS4_
e8d:_XmlTextReader_LookupNamespace_m2461338842
qBi:_KeyCollection_System_Collections_IEnumerable_GetEnumerator_m1359985486_gshared
sDh:_Array_InternalArray__Insert_TisEntry_t1114109354_m1716981637_gshared
Qmf:_ObjectManager_RecordDelayedFixup_m1895730844
MOf:_Calendar_IsValidYear_m1298443129
sGm:__ZN6il2cpp2vm13MetadataCache25GetIndexForTypeDefinitionEPK11Il2CppClass
Xs:__ZN9AudioClip23VirtualRedirectTransferER18StreamedBinaryReadILb0EE
nvj:_ClientSessionInfo_CheckDisposed_m1394638186
Jsf:_SByte_Parse_m2544167007
wMe:_UriParser_InFact_m1536069688
h4a:__ZNSt3__26vectorIPN9ShaderLab9SubShaderENS_9allocatorIS3_EEE21__push_back_slow_pathIKS3_EEvRT_
nze:_XmlSchemaElement_set_IsLocalTypeDerivationChecked_m422721699
$Fj:_TypeDescriptor_get_ComObjectType_m2976006721
dGo:__ZL50U3CU3Ec_t3289834461_CustomAttributesCacheGeneratorP21CustomAttributesCache
MIf:_StackFrame_GetILOffset_m115192054
xve:_XmlNumeric2Converter_ToSingle_m1571723791
R6d:_XmlResolver_ResolveUri_m1553678733
lsf:_RuntimeTypeHandle_GetHashCode_m3697629454_AdjustorThunk
mfl:_BigInteger__ctor_m2945783161
Pwj:_TlsClientHello_Update_m1723542631
PCo:__ZL96ProxyAttribute_t4031752430_CustomAttributesCacheGenerator_ProxyAttribute_IsContextOK_m2391079277P21CustomAttributesCache
M8h:_IndexOutOfRangeException__ctor_m3497760912
Uuc:__ZN5physx16PxsIslandManager25setArticulationLinkHandleEjPvRKNS_20PxsIslandManagerHookIjLj4294967295EEE
A0d:_XmlParserContext_get_BaseURI_m2575991943
Yj:_glCopyTexSubImage2D
kjj:_RealProxy_InternalGetTransparentProxy_m3415358600
CTb:__ZNK24RendererAnimationBinding13GetFloatValueERKN11UnityEngine9Animation10BoundCurveE
lif:_ObjectManager_DoNewlyRegisteredObjectFixups_m3886515649
DG:__ZNK15DownloadHandler14HasPendingDataEv
wKp:_glActiveTexture__wrapper
eLo:__ZL91BinaryReader_t2491843768_CustomAttributesCacheGenerator_BinaryReader_ReadSingle_m4288435823P21CustomAttributesCache
rKj:_SharedListenerElementsCollection__ctor_m3086307015
qzj:_SslClientStream_NegotiateAsyncWorker_m2862430224
CLb:__ZN18ScreenManagerWebGL13SetShowCursorEb
pTi:_SymmetricAlgorithm_CreateDecryptor_m4240570785
dnp:_frexp
v2i:_AssemblyCompanyAttribute__ctor_m1217508649
JEc:__ZN5physx6shdfnd5ArrayIPNS_3Scb5ShapeENS0_15InlineAllocatorILj16ENS0_19ReflectionAllocatorIS4_EEEEE15growAndPushBackERKS4_
Lab:__Z18Transfer_BlittableI14SafeBinaryReadLb0E5RectTIfEEvRK29SerializationCommandArgumentsR31RuntimeSerializationCommandInfo
R0:__ZN9GfxDevice18InsertCustomMarkerEi
Zmp:_fmt_u
SSf:_DateTimeFormatInfo_GetFormat_m3676195179
w4:__ZN14GfxContextGLES14GetFramebufferEv
KHp:_emscripten_glGenVertexArrays__wrapper
j7:__ZN6prcoreL21CreateRemapAnyBlitterE13TextureFormatS0_
Hrn:__ZN6il2cpp2os5Event4WaitEjb
PXb:__ZN17AnimationCurveTplIfE16StripInvalidKeysEv
CQg:_UTF8Encoding_GetChars_m4254629357
T0g:_XPathScanner_get_CanBeFunction_m353030991
Kzh:_Array_InternalArray__ICollection_Add_TisKeyValuePair_2_t3716250094_m2381539361_gshared
Wem:_InvokableCall_add_Delegate_m1994890856
vmg:_X509Extension_WriteLine_m2850991173
I4n:__Z62RuntimeInvoker_HeaderVariantInfo_t2058796272_Int32_t2071877448PFvvEPK10MethodInfoPvPS4_
klj:_Converter_ToType_m1024860700
NMm:_il2cpp_method_has_attribute
zPb:__Z13RegisterClassI17GlobalGameManagerEvv
tMa:__ZN8Renderer24SetupNewRendererForSceneEv
sAn:__Z61RuntimeInvoker_Decimal_t724701077_RuntimeObject_RuntimeObjectPFvvEPK10MethodInfoPvPS4_
A9j:_Enumerator__ctor_m1305469837_AdjustorThunk
Bih:_U3CU3Ec__DisplayClass80_0_U3CWriteRequestAsyncU3Eb__0_m2549911274
I3g:_EmptyEnumerator_System_Collections_IEnumerator_MoveNext_m3120956441
F_i:_Number_ParseUInt64_m354836256
hrh:_Array_InternalArray__ICollection_Remove_TisInt64_t909078037_m2653583130_gshared
SMn:__Z80RuntimeInvoker_Void_t1841601450_MonoAssemblyNameU26_t3855859660_SByte_t454417549PFvvEPK10MethodInfoPvPS4_
Gcd:__ZN5physx8CCDSweepINS_2Gu8CapsuleVENS1_4BoxVEEEbRT_RT0_RKNS_6shdfnd3aos15PsMatTransformVERKNS9_12PsTransformVERKNS9_5Vec3VERKNS9_6FloatVESI_SI_RSJ_RSG_SN_f
nDf:_BaseInvokableCall_ThrowOnInvalidArg_TisInt32_t2071877448_m2823200566_gshared
btk:_TypeBuilder_get_GenericParameterPosition_m730571200
J5b:__Z35Transfer_Blittable_FixedBufferFieldI8JSONReadtEvRK29SerializationCommandArgumentsR31RuntimeSerializationCommandInfo
Vuj:_RecordProtocol_get_Context_m2688493529
mxa:__ZN4PPtrI7TextureE8TransferI14SafeBinaryReadEEvRT_
bjk:_List_1_System_Collections_IList_get_IsReadOnly_m3023651230_gshared
ynd:__ZN5physx2Sc8ClothSim16addCollisionMeshEPKNS0_8ShapeSimE
Qbj:_SynchronizedClientContextSink__ctor_m978504596
ENl:_EqualityComparer_1_IndexOf_m3966005000_gshared
bOa:__ZNK6Sprite22GetTypeVirtualInternalEv
NHf:_Volatile_Read_TisRuntimeObject_m3496239476_gshared
I9d:_XmlTextReaderImpl_ParseNamedCharRefInline_m1975988262
hEl:_U3CU3Ec_U3C_cctorU3Eb__64_0_m2836396924_gshared
Nn:FUNCTION_TABLE_iiiiiiiiiiiiii
eUn:__Z100RuntimeInvoker_Void_t1841601450_SByte_t454417549_SByte_t454417549_Int32_t2071877448_SByte_t454417549PFvvEPK10MethodInfoPvPS4_
Bsd:__ZN5physx6shdfnd5ArrayIPKNS_10PxsCCDBodyENS0_19ReflectionAllocatorIS4_EEE8recreateEj
Nmj:___BinaryWriter_WriteInt16_m2063286531
Jrm:__ZL25UnresolvedVirtualCall_171P12Il2CppObjectiPK10MethodInfo
DEc:__ZN5physx6shdfnd4sortINS_2Cm19PreallocatingRegionENS0_4LessIS3_EENS0_19ReflectionAllocatorIS3_EEEEvPT_jRKT0_RKT1_j
oSd:__ZN19UnityConnectService18OnPlayerQuitStaticEPS_
EBa:__ZN11Tetrahedron8TransferI24GenerateTypeTreeTransferEEvRT_
RUi:_X509CertificateImplApple_get_IsValid_m4032366851
NNk:__ZN21InterfaceFuncInvoker0IjE6InvokeEjP11Il2CppClassP12Il2CppObject
aIg:_DecoderExceptionFallback_GetHashCode_m2972426052
whb:__Z29Transfer_Blittable_ArrayFieldI24GenerateTypeTreeTransfer5RectTIiEEvRT_R9ArrayInfoRK23StaticTransferFieldInfo
mCa:__ZN16ReflectionProbes8ScheduleEN18ReflectionProbeJob7JobTypeEP15ReflectionProbei
SOe:_UriParser_NotAny_m3368871516
M3o:__ZL101ConnectionState_t2608615043_CustomAttributesCacheGenerator_ConnectionState_set_Connection_m1832916506P21CustomAttributesCache
ago:__ZL77Convert_t2607082565_CustomAttributesCacheGenerator_Convert_ToSByte_m883113940P21CustomAttributesCache
ZTo:__ZL61SafeGPtrArrayHandle_t547714345_CustomAttributesCacheGeneratorP21CustomAttributesCache
HTn:__Z67RuntimeInvoker_Char_t3454481338_Int16_t4041245914_Int16_t4041245914PFvvEPK10MethodInfoPvPS4_
j0m:__ZN6il2cpp2vm9Exception25GetNullReferenceExceptionERKNS_5utils10StringViewIDsEE
tma:__Z18IsDirectoryCreatedRKN4core12basic_stringIcNS_20StringStorageDefaultIcEEEE
Igl:_Action_1_BeginInvoke_m3341085586_gshared
Ssj:_ContentInfo__ctor_m3579805263
JHo:__ZL62CustomAttributeData_t3093286891_CustomAttributesCacheGeneratorP21CustomAttributesCache
cXc:__ZN5physx19NpRigidBodyTemplateINS_14PxRigidDynamicEE20setRigidDynamicFlagsENS_7PxFlagsINS_15PxRigidBodyFlag4EnumEhEE
n3l:_MarshalDirectiveException__ctor_m3894820706
VUg:_PlatformHelper_get_IsSingleProcessor_m1585124801
IEf:_Array_InternalArray__get_Item_TisGCHandle_t3409268066_m826530402_gshared
peh:_U3CU3Ec__DisplayClass241_0__ctor_m1820537047
Suh:_Array_InternalArray__IEnumerable_GetEnumerator_TisResourceLocator_t2156390884_m1286330066_gshared
yMk:_UnixIPInterfaceProperties_get_DnsAddresses_m2661625179
TDk:_ResourceReader_DeserializeObject_m617031929
Hwh:_Array_InternalArray__IndexOf_TisEntry_t1114109354_m256767846_gshared
fJl:_InvokableCall_1_Invoke_m3360715817_gshared
EBm:__ZN15dense_hashtableINSt3__24pairIK10KeyWrapperIPKcEP11Il2CppClassEES5_N6il2cpp5utils11StringUtils12StringHasherIS4_EEN14dense_hash_mapIS5_S8_SE_NS5_14EqualsComparerINSB_13VmStringUtils21CaseSensitiveComparerEEENS0_9allocatorIS9_EEE9SelectKeyESJ_SL_E15set_deleted_keyERKS9_
mDe:_X509KeyUsageExtension_ToString_m1992050580
CVi:_HostSecurityManager_ProvideAssemblyEvidence_m922894567
W6h:_ValueType_DefaultEquals_m2245650968
h4k:_ReadOnlyCollection_1_CopyTo_m996197656_gshared
B7d:_XmlTextReaderImpl_InitStreamInput_m652462801
EUo:__ZL97SafeRegistryHandle_t1955425892_CustomAttributesCacheGenerator_SafeRegistryHandle__ctor_m185793312P21CustomAttributesCache
Gdj:_ConstructionCall__ctor_m1143766850
wmk:_List_1_Sort_m2325014356_gshared
h3l:_Marshal_SecureStringToBSTR_m1179361682
Weh:_U3CU3Ec_U3C_cctorU3Eb__307_6_m4023609191
NVc:__ZN5physx22NpParticleBaseTemplateINS_16PxParticleSystemENS_16NpParticleSystemEE20setMaxMotionDistanceEf
$vj:_Context_get_RandomSC_m1687420621
eVd:_XmlConvert_ToString_m3785086318
vin:__ZN6il2cpp6icalls6System6System3Net3Dns15GetHostByAddr40EP12Il2CppStringPS6_PP11Il2CppArraySA_i
svg:_SNIP_IsSubsetOf_m1312559857_AdjustorThunk
f$g:_XPathNodeInfoAtom_Equals_m1811422862
$Re:_Byte_CompareTo_m1850579028
Yve:_XmlSchemaAll_SetItems_m2574020431
Kfd:__ZN5physx18ComputeSortedListsEPNS_2Cm10BitMapBaseINS_6shdfnd9AllocatorEEEjjPKjPPNS_8SapBox1DES7_PjSB_jRKNS_2Gu4AxesESB_RjSB_SG_RbSH_
UHb:__ZNK21IntermediateRenderers16GetBoundingBoxesEv
WAj:_DecimalConverter_get_TargetType_m3816609218
Znb:__Z35Transfer_Blittable_FixedBufferFieldI18StreamedBinaryReadILb0EEdEvRK29SerializationCommandArgumentsR31RuntimeSerializationCommandInfo
Xop:_htons
Uhi:_FileStream_Seek_m950719389
$Oj:_AutoWebProxyScriptEngine_set_AutomaticConfigurationScript_m1991323022
Acg:_RuntimeClassHandle_Equals_m4285637620
$Fn:__Z68RuntimeInvoker_Void_t1841601450_SByte_t454417549_Int32U26_t455636984PFvvEPK10MethodInfoPvPS4_
_cn:_il2cpp_z_zcfree
LAn:__Z139RuntimeInvoker_Void_t1841601450_Int32_t2071877448_Int32_t2071877448_Int32_t2071877448_Int32_t2071877448_Int32_t2071877448_Int32_t2071877448PFvvEPK10MethodInfoPvPS4_
weo:__ZL68Type_t_CustomAttributesCacheGenerator_Type_GetConstructors_m52202211P21CustomAttributesCache
mZ:__ZN9GfxDevice20SetMaxBufferedFramesEi
$Sn:__Z110RuntimeInvoker_Boolean_t3825574718_Int16_t4041245914_Int16_t4041245914_BooleanU26_t3168250738_SByte_t454417549PFvvEPK10MethodInfoPvPS4_
GNn:__Z98RuntimeInvoker_Void_t1841601450_Int32_t2071877448_Int32_t2071877448_RuntimeObject_SByte_t454417549PFvvEPK10MethodInfoPvPS4_
efn:__ZN6il2cpp8metadata13GenericMethod9GetMethodEPK19Il2CppGenericMethod
y4n:__Z50RuntimeInvoker_bucket_t976591655_Int32_t2071877448PFvvEPK10MethodInfoPvPS4_
S0h:_TypeSpec_GetDisplayFullName_m3746718192
kde:_DtdParserProxy_System_Xml_IDtdParserAdapter_ParseNamedCharRef_m1229752421
Wff:_MemberPrimitiveTyped_Write_m4030772498
cIl:_Tuple_4_get_Item1_m446721184_gshared
CGf:_Array_InternalArray__IReadOnlyList_get_Item_TisResourceLocator_t2156390884_m2906879736_gshared
FNb:__Z23ConvertIntegerToTypePtrIsEbPvR14SafeBinaryRead
uSn:__Z82RuntimeInvoker_Int32_t2071877448_RuntimeObject_Double_t4078015681_SByte_t454417549PFvvEPK10MethodInfoPvPS4_
tMk:_sockaddr_ll_t1681025498_marshal_pinvoke
vp:FUNCTION_TABLE_iiidiii
DXo:__ZL78XmlSchemaDerivationMethod_t3165007540_CustomAttributesCacheGenerator_ExtensionP21CustomAttributesCache
qyl:_Nullable_1_ToString_m678068069_AdjustorThunk
Szc:__ZNK5physx14NpArticulation17releaseDriveCacheERNS_24PxArticulationDriveCacheE
Apj:_BigInteger_Incr2_m505983313
rQh:_UTF16Decoder__ctor_m1333683294
gVe:_ArrayList_get_Count_m523955479
lXj:_CFProxyAutoConfigurationResultCallback_BeginInvoke_m3007414337
wIn:__Z96RuntimeInvoker_Void_t1841601450_SByte_t454417549_RuntimeObject_SByte_t454417549_SByte_t454417549PFvvEPK10MethodInfoPvPS4_
e7n:__Z37RuntimeInvoker_Enumerator_t1117962959PFvvEPK10MethodInfoPvPS4_
hdm:_CameraCallback_Invoke_m2640212610
mUh:_ThreadPoolTaskScheduler_QueueTask_m246474625
r7:__ZN6prcoreL29inner_stretch_rgb565_bilinearEPKNS_9InnerInfoE
Uyg:_Url_Prepare_m732234308
WPc:__ZNK5physx2Sc9ClothCore25getSelfCollisionStiffnessEv
d3f:_Datatype_token_get_BuiltInWhitespaceFacet_m825978299
FLj:_TraceListenerCollection_Clear_m102051271
jPm:__ZNK15dense_hashtableINSt3__24pairIK10KeyWrapperINS1_IPK14Il2CppAssemblyP11Il2CppClassEEEjEES9_17ReflectionMapHashIS8_EN14dense_hash_mapIS9_jSD_NS9_14EqualsComparerINS0_8equal_toIS8_EEEENS0_9allocatorISB_EEE9SelectKeyESI_SK_E12test_deletedEj
L5f:_DtdValidator_ProcessTokenizedType_m2486832626
Bpo:__ZL81Thread_t241561612_CustomAttributesCacheGenerator_Thread_SetStartHelper_m867044504P21CustomAttributesCache
jOl:_EqualityComparer_1__ctor_m3330910501_gshared
C$g:_Axis_get_TypeOfAxis_m325348025
grg:_Array_UnsafeCreateInstance_m3260562319
mGd:__ZN5physx7profile11EventBufferINS_24PxDefaultContextProviderENS_6shdfnd6MutexTINS0_26WrapperReflectionAllocatorIhEEEENS0_14ScopedLockImplIS7_EENS_24PxProfileNullEventFilterEE9sendEventINS0_10EventValueEEEvRNS0_11EventHeaderERT_
fso:__ZL94ThreadPool_t3989917080_CustomAttributesCacheGenerator_ThreadPool_QueueUserWorkItem_m2209660682P21CustomAttributesCache
Ijm:_EventHandler_1__ctor_m805401670_gshared
b_l:_ExeConfigurationHost_GetStreamName_m4070417723
rFb:__ZNK14RenderSettings19GetFlatAmbientColorEv
L6:__ZN6prcoreL10inner_flipILj4EEEvPhS1_j
QVa:__ZN18StreamedBinaryReadILb0EE21TransferSTLStyleArrayI10vector_mapIPKN5Unity4TypeE7Hash128NSt3__24lessIS6_EENS8_9allocatorINS8_4pairIS6_S7_EEEEEEEvRT_17TransferMetaFlags
SJf:_Double_GetHashCode_m3403732029
xie:_XmlSchema_set_IsPreprocessed_m3830717547
H1o:__ZL58DnsType_t1822475631_CustomAttributesCacheGenerator_NSAPPTRP21CustomAttributesCache
eBg:_String_Concat_m56707527
Jlp:_PlayerControl_OnEnable_m3481939085
$we:_XmlSchemaAttributeGroup_set_AnyAttribute_m1179955211
Esh:_Array_QSortArrange_TisDouble_t4078015681_m2308074771_gshared
wzj:_SslClientStream_get_HaveRemoteValidation2Callback_m3555576758
wCn:__Z56RuntimeInvoker_TimeSpan_t3430258949_TimeSpan_t3430258949PFvvEPK10MethodInfoPvPS4_
UPa:__ZN14Texture2DArray17UploadToGfxDeviceEv
bIl:_Tuple_4_System_ITupleInternal_ToString_m1956958357_gshared
cEj:_StandardValuesCollection_get_Count_m3305999829
Ow:__Z14FMODMemoryFreePvjPKc
Nil:_InternalEnumerator_1_System_Collections_IEnumerator_Reset_m3731327620_AdjustorThunk
Whe:_SchemaCollectionPreprocessor_PreprocessNotation_m2773512499
Mqo:__ZL92ExecutionContext_t1392266323_CustomAttributesCacheGenerator_ExecutionContext_Run_m4019832821P21CustomAttributesCache
Zkj:___BinaryParser_ReadObject_m1024549918
rjp:_YieldInstruction_t3462875981_marshal_pinvoke_cleanup
UXh:_TimeoutException__ctor_m2770079177
F5c:__ZN5physx3Scb4Body9syncStateEv
yvn:__Z72RuntimeInvoker_Boolean_t3825574718_DateTime_t693205669_Int32_t2071877448PFvvEPK10MethodInfoPvPS4_
PDe:_Capture__ctor_m2965900721
Ncp:__ZL77AudioSourceExtension_t1813599864_CustomAttributesCacheGenerator_m_audioSourceP21CustomAttributesCache
Dbf:_DateTimeOffset__ctor_m1796624924
$bj:_Identity_get_ChannelSink_m3989446673
rid:__ZN5physx20SingleAABBUpdateTaskD0Ev
z8h:_GuidResult_t2567604379_marshal_pinvoke_cleanup
Idp:__ZL112Rigidbody_t4233889191_CustomAttributesCacheGenerator_Rigidbody_AddExplosionForce_m1704645831____upwardsModifier3P21CustomAttributesCache
aEc:__ZN5physx12PxsRigidBody23updatePoseDependenciesVERNS_10PxsContextE
Sqh:_Array_InternalArray__ICollection_Remove_TisKeyValuePair_2_t3716250094_m2566517826_gshared
I_e:_ReadOnlyCollectionBase_get_InnerList_m3583535210
fwd:__ZN5physx2Gu12TriangleMesh4loadERNS_13PxInputStreamE
gjo:__ZL82Enum_t2459695545_CustomAttributesCacheGenerator_Enum_GetUnderlyingType_m3513899012P21CustomAttributesCache
yTa:__Z32TransferEnumWithNameForceIntSizeI14SafeBinaryRead25ProceduralLoadingBehaviorEvRT_RT0_PKc17TransferMetaFlags
pmn:_GC_is_heap_ptr
pZd:_XmlLoader_LoadNode_m2784310510
Clp:_Movement_OnDisable_m1714188211
eUi:_X509CertificateImpl_ThrowIfContextInvalid_m3867213957
z5k:_ReadOnlyCollection_1_System_Collections_Generic_IListU3CTU3E_RemoveAt_m257854449_gshared
Btb:__Z21PlayerStartFirstSceneb
pXn:__Z36RuntimeInvoker_Matrix4x4_t2933234003PFvvEPK10MethodInfoPvPS4_
hWo:__ZL116XmlSchemaAttribute_t4015859774_CustomAttributesCacheGenerator_XmlSchemaAttribute_t4015859774____RefName_PropertyInfoP21CustomAttributesCache
xzi:_Enumerator__ctor_m252254681_AdjustorThunk
Y1h:_Type_get_IsGenericParameter_m161434704
s9i:_MethodBuilder_get_Attributes_m3678061338
Cm:_emscripten_glIsTexture
REj:_PropertyDescriptorCollection_System_Collections_IList_Contains_m3192600021
Dgo:__ZL79Convert_t2607082565_CustomAttributesCacheGenerator_Convert_ToUInt16_m3265369225P21CustomAttributesCache
hl:_emscripten_glHint
sxg:_ApplicationTrust_FromXml_m1699647667
q7e:_DateTime_AddMilliseconds_m1813199744_AdjustorThunk
$Wg:_AsyncCausalityTracer_TraceOperationRelation_m893411125
Rsf:_SByte_System_IConvertible_ToSByte_m108774324_AdjustorThunk
rlf:_FormatterServices_nativeGetUninitializedObject_m2372258694
nnm:_DelegatePInvokeWrapper_PCMReaderCallback_t3007145346
Akb:__Z35Transfer_Blittable_FixedBufferFieldI18StreamedBinaryReadILb1EEtEvRK29SerializationCommandArgumentsR31RuntimeSerializationCommandInfo
yCe:_X509ChainStatus_t4278378721_marshal_pinvoke
RDj:_TypeDescriptor_get_MetadataVersion_m193505346
qto:__ZL152SynchronizationContextAwaitTaskContinuation_t2253979809_CustomAttributesCacheGenerator_SynchronizationContextAwaitTaskContinuation_PostAction_m115170738P21CustomAttributesCache
U4f:_DatatypeImplementation_IsDerivedFrom_m798779016
Aug:_SiteIdentityPermission_ToXml_m1091657897
Rrj:_RSAManaged__ctor_m1680944437
Fm:_SDL_UpperBlit
Ive:_XmlSchema_set_FinalDefault_m2370505361
m2l:_IErrorInfo_GetSource_m2851584934
Hfg:_X509ExtensionCollection_get_Item_m1381258735
iCa:__Z35GetTextureDecodeValuesWithIntensity16TextureUsageMode17TextureColorSpace10ColorSpacef
BAn:__Z60RuntimeInvoker_RuntimeObject_Int16_t4041245914_RuntimeObjectPFvvEPK10MethodInfoPvPS4_
gSe:_Byte_GetHashCode_m2885528842_AdjustorThunk
FQe:_Boolean_TryParse_m3918169608
KLc:__ZNK5physx7NpShape16getContactOffsetEv
Fhd:__ZN5physx14PxsAABBManager21processAggregatePairsEPKNS_19AggregateSortedDataE
c6g:_BaseValidator_set_DtdInfo_m3576018281
uwh:_Array_InternalArray__IndexOf_TisXPathNodeRef_t2092605142_m85549903_gshared
BJi:_Dictionary_2_OnDeserialization_m2092139626_gshared
aId:_PxCreateCooking
qNh:_XsdDateTime_get_Second_m1143327371_AdjustorThunk
pqb:__ZN14SafeBinaryRead20OverrideRootTypeNameEPKc
jon:__ZN6il2cpp2os7CpuInfo6CreateEv
xym:__ZNK10KeyWrapperIPK22Il2CppGenericParameterE14EqualsComparerINSt3__28equal_toIS2_EEEclERKS3_SA_
jpm:__ZL24UnresolvedVirtualCall_37P12Il2CppObjectiiPK10MethodInfo
SR:__ZN14FileCacherRead16UnlockCacheBlockEj
Cqf:_RuntimeType_GetPropertyImpl_m240682872
gTk:_ObjectEqualityComparer_1_Equals_m2053271268_gshared
fgg:_X509Certificate_GetUnsignedBigInteger_m3491353542
Lan:__ZN6il2cpp2os10SocketImpl13GetHostByNameERKNSt3__212basic_stringIcNS2_11char_traitsIcEENS2_9allocatorIcEEEERS8_RNS2_6vectorIS8_NS6_IS8_EEEESF_
FNj:_GZipStream_get_CanRead_m1081651800
GGp:_emscripten_glVertexAttrib1f__wrapper
YGc:__ZNK5physx12NpBatchQuery23getFilterShaderDataSizeEv
hol:_InternalEnumerator_1_System_Collections_IEnumerator_get_Current_m2849042299_AdjustorThunk
Lql:_InternalEnumerator_1_System_Collections_IEnumerator_Reset_m3080260213_AdjustorThunk
kKo:__ZL57StackBehaviour_t1390406961_CustomAttributesCacheGeneratorP21CustomAttributesCache
yhf:_ObjectReader_get_TopObject_m1433270575
k_g:_XPathDocumentNavigator_get_NamespaceURI_m2506528869
bSg:_CancellationTokenSource_ThrowObjectDisposedException_m2762972733
bcf:_DateTimeRawInfo_Init_m1640851873_AdjustorThunk
Xc:_emscripten_glUniform1f
xFm:__ZNK15dense_hashtableINSt3__24pairIK10KeyWrapperIPKcEP11Il2CppClassEES5_N6il2cpp5utils11StringUtils12StringHasherIS4_EEN14dense_hash_mapIS5_S8_SE_NS5_14EqualsComparerINSB_13VmStringUtils21CaseSensitiveComparerEEENS0_9allocatorIS9_EEE9SelectKeyESJ_SL_E12test_deletedERK24dense_hashtable_iteratorIS9_S5_SE_SN_SJ_SL_E
eGd:__ZN5physx7profile11EventBufferINS_24PxDefaultContextProviderENS_6shdfnd6MutexTINS0_26WrapperReflectionAllocatorIhEEEENS0_14ScopedLockImplIS7_EENS_24PxProfileNullEventFilterEE10doAddEventINS0_17RelativeStopEventEEEvhtRKT_
_xi:_Enumerator_get_Current_m988727462_AdjustorThunk
hWl:_ConfigurationLockCollection_SetFromList_m2739237306
IZj:_SimpleResolver_ProcessResponse_m167188997
Ubm:_SecurityParser__ctor_m979873179
ad:_emscripten_glUniform1i
LWe:_ReadOnlyArrayList_RemoveAt_m1458661331
jsl:_InternalEnumerator_1_System_Collections_IEnumerator_Reset_m651165750_AdjustorThunk
Ufb:__Z18Transfer_BlittableI24GenerateTypeTreeTransferLb1EN4math12int3_storageEEvRK29SerializationCommandArgumentsR31RuntimeSerializationCommandInfo
jrd:__ZN5physx2Sc19ShapeInstancePairLL23postIslandGenSecondPassEv
kDd:__ZN14PhysicsManager23VirtualRedirectTransferER19StreamedBinaryWriteILb0EE
Ouf:_U3CReadAsyncInternalU3Ed__34_MoveNext_m3791566083
r2a:__ZN9ShaderLab16SerializedTagMapaSERKS0_
ZE:__ZN11UnityEngine15CloudWebService16SessionContainer20RestoreSessionHeaderERKN4core12basic_stringIcNS2_20StringStorageDefaultIcEEEES8_RNS0_13SessionHeaderE
kHd:__ZN5physx26PxPhysicsInsertionCallbackD2Ev
KTd:__ZN22UnityWebRequestManager13BackendRetainEv
SEl:_Task_1__ctor_m298167690_gshared
Uad:__ZN5physx2Sq16BucketPrunerCore12updateObjectERKNS_9PxBounds3ERKNS0_13PrunerPayloadE
wqd:__ZN5physx18PxsDynamicsContext23atomIntegrationParallelEfPKPNS_11PxsBodyCoreEPKPNS_12PxsRigidBodyEjPKNS_2Cm13SpatialVectorEPNS_13PxcSolverBodyEPNS_17PxcSolverBodyDataEPSA_RjSI_RNS_10PxBaseTaskE
CSk:_ObjectComparer_1__ctor_m885239550_gshared
bzm:__ZN24dense_hashtable_iteratorINSt3__24pairIK10KeyWrapperIPK22Il2CppGenericParameterEP11Il2CppClassEES6_N6il2cpp5utils11PointerHashIS4_EEN14dense_hash_mapIS6_S9_SE_NS6_14EqualsComparerINS0_8equal_toIS5_EEEENS0_9allocatorISA_EEE9SelectKeyESJ_SL_E30advance_past_empty_and_deletedEv
XNf:_Bootstring_Encode_m413482647
u8o:__ZL77Gradient_t3600583008_CustomAttributesCacheGenerator_Gradient_Init_m3042650694P21CustomAttributesCache
gPh:_SecureStringHasher_GetHashCode_m955962527
$yf:__ZN21InterfaceFuncInvoker1IitE6InvokeEjP11Il2CppClassP12Il2CppObjectt
ixg:_AllMembershipCondition_ToXml_m2771543339
T2i:_AssemblyName_get_Version_m3495645648
aQ:__ZN14MessageHandler3GetEv
pd:_emscripten_glAttachShader
dVl:_Configuration_SetSectionXml_m2783526347
lZ:__ZN9GfxDevice13SetActiveTierE12GraphicsTier
nIi:_Dictionary_2_get_Values_m160941142_gshared
VTa:__ZNSt3__26vectorIN4core12basic_stringIcNS1_20StringStorageDefaultIcEEEENS_9allocatorIS5_EEE6assignIPS5_EENS_9enable_ifIXaasr21__is_forward_iteratorIT_EE5valuesr16is_constructibleIS5_NS_15iterator_traitsISC_E9referenceEEE5valueEvE4typeESC_SC_
Ugg:_KeyPairPersistence_get_UserPath_m3433052783
Zjc:__ZN5physx2Gu19GetRaycastFuncTableEv
Zgk:_List_1_ToArray_m233350167_gshared
Fre:_XmlBaseConverter__ctor_m2406862505
i2f:_Datatype_NOTATION_get_ValueType_m2569943215
sOn:__Z105RuntimeInvoker_RuntimeObject_RuntimeObject_Int32_t2071877448_Int64_t909078037_RuntimeObject_RuntimeObjectPFvvEPK10MethodInfoPvPS4_
icl:_UnixRegistryApi_ToString_m3521687076
V0o:__ZL54DnsQType_t1279797630_CustomAttributesCacheGenerator_MRP21CustomAttributesCache
EIj:_DefaultConfig__cctor_m3326348429
uSh:_XmlCharType_IsOnlyCharData_m2494138474_AdjustorThunk
H_n:__Z36RuntimeInvoker_Enumerator_t975728254PFvvEPK10MethodInfoPvPS4_
IRg:_ExecutionContextSwitcher_UndoNoThrow_m2962501538
Uho:__ZL58Decimal_t724701077_CustomAttributesCacheGenerator_MinusOneP21CustomAttributesCache
ZZh:_TimeZoneInfo_TryGetLocalTzFile_m2301331427
NZe:_KeyCollection_GetEnumerator_m3592988900
wvh:_Array_InternalArray__IEnumerable_GetEnumerator_TisKeyframe_t1449471340_m3949799719_gshared
sab:__Z18Transfer_BlittableI14SafeBinaryReadLb0E11QuaternionfEvRK29SerializationCommandArgumentsR31RuntimeSerializationCommandInfo
Bvi:_Comparer_1__ctor_m3855093372_gshared
brd:__ZN5physx17EdgeChangeManager23cleanupBrokenEdgeEventsEPKNS_4EdgeE
Hnb:__Z18Transfer_BlittableI18StreamedBinaryReadILb0EELb1E12PropertyNameEvRK29SerializationCommandArgumentsR31RuntimeSerializationCommandInfo
kcj:_SoapFieldAttribute__ctor_m3200752676
TAo:__ZL108BinaryMethodCallMessage_t3709702807_CustomAttributesCacheGenerator_BinaryMethodCallMessage__ctor_m1680434021P21CustomAttributesCache
uJ:_tlsf_walk_heap
gHo:__ZL92ResourceReader_t2463923611_CustomAttributesCacheGenerator_ResourceReader_Dispose_m3925831971P21CustomAttributesCache
blg:_PKCS12_Decode_m731190390
_Xm:__ZNK15dense_hashtableINSt3__24pairIK10KeyWrapperIP11Il2CppClassES4_EES5_N6il2cpp8metadata16SZArrayClassHashEN14dense_hash_mapIS5_S4_SA_NS5_14EqualsComparerINS9_19SZArrayClassCompareEEENS0_9allocatorIS7_EEE9SelectKeyESE_SG_E10test_emptyERK24dense_hashtable_iteratorIS7_S5_SA_SI_SE_SG_E
yKm:__ZN6il2cpp2vm7Runtime6InvokeEPK10MethodInfoPvPS5_PP15Il2CppException
tul:_InternalEnumerator_1_get_Current_m1550231132_gshared
Z0i:_PointerSpec__ctor_m965985318
rb:invoke_vif
sb:invoke_vid
azp:__ZNSt3__212basic_stringIcNS_11char_traitsIcEENS_9allocatorIcEEE6insertEjPKc
NOh:_XsdValidator_FastGetElementDecl_m2762453062
ub:invoke_vii
Oyb:__ZNK12ImageFilters8DoRenderER17ShaderPassContextP13RenderTextureS3_RKNSt3__26vectorI11ImageFilterNS4_9allocatorIS6_EEEE
A3h:_UInt16_GetHashCode_m1468226569
Y3c:__ZN5physx13NpVolumeCacheD2Ev
G0g:_XPathParser_ParseNodeTest_m2943173194
aCo:__ZL106__BinaryParser_t1222443990_CustomAttributesCacheGenerator___BinaryParser_ReadObjectWithMapTyped_m942254985P21CustomAttributesCache
aIf:_CustomAttributeData_UnboxValues_TisCustomAttributeTypedArgument_t1498197914_m2657049192_gshared
ela:__ZN12TLSAllocatorI14StackAllocatorE16ThreadInitializeEP13BaseAllocator
oDn:__Z95RuntimeInvoker_Boolean_t3825574718_DateTimeResultU26_t3472303078_DateTimeRawInfoU26_t3913472741PFvvEPK10MethodInfoPvPS4_
QCh:_Array_InternalArray__ICollection_CopyTo_TisParsingState_t1278724163_m269496868_gshared
MZ:__ZN9GfxDevice32UpdateStereoViewProjectionMatrixE21MonoOrStereoscopicEye
igk:__ZN21InterfaceFuncInvoker0IdE6InvokeEjP11Il2CppClassP12Il2CppObject
Y6o:__ZL82Enumerable_t2148412300_CustomAttributesCacheGenerator_Enumerable_Where_m1602106588P21CustomAttributesCache
yvb:__ZN15dense_hashtableINSt3__24pairIKN4core12basic_stringIcNS2_20StringStorageDefaultIcEEEEP20ArchiveStorageReaderEES6_20StringHash32FunctionIS6_EN14dense_hash_mapIS6_S9_SC_NS0_8equal_toIS6_EE13stl_allocatorISA_L18MemLabelIdentifier55ELi16EEE9SelectKeyESF_SI_E12resize_deltaEjj
Ynd:__ZThn8_N5physx2Sc35ParticleElementRbElementInteraction12onDeactivateEj
qep:__ZL113UnityAnalyticsHandler_t3238795095_CustomAttributesCacheGenerator_UnityAnalyticsHandler_InternalDestroy_m483041424P21CustomAttributesCache
e1h:_Type_GetTypeCodeImpl_m1389134229
a$e:_SortedList_get_SyncRoot_m3299704254
Vqk:_SymbolType_IsPointerImpl_m282503802
Pdd:__ZN5physx16PxsThreadContextC2EPNS_10PxsContextE
rSm:__ZN15dense_hashtableINSt3__24pairIK10KeyWrapperINS1_IPK12PropertyInfoP11Il2CppClassEEEjEES9_17ReflectionMapHashIS8_EN14dense_hash_mapIS9_jSD_NS9_14EqualsComparerINS0_8equal_toIS8_EEEENS0_9allocatorISB_EEE9SelectKeyESI_SK_E8min_sizeEjj
swp:__ZNKSt3__27codecvtIwc11__mbstate_tE6do_outERS1_PKwS5_RS5_PcS7_RS7_
yie:_XmlSchema_get_Includes_m3401500551
DLn:__Z69RuntimeInvoker_UInt32_t2149682021_Int16_t4041245914_Int16_t4041245914PFvvEPK10MethodInfoPvPS4_
WXn:__Z54RuntimeInvoker_Boolean_t3825574718_Vector3_t2243707580PFvvEPK10MethodInfoPvPS4_
aij:_SoapAttribute_get_XmlNamespace_m1436066016
upa:__ZN25SingleBlockMemoryFileDataD0Ev
ola:__ZNSt3__26vectorI14ConstantStringNS_9allocatorIS1_EEE6assignINS_11__wrap_iterIPS1_EEEENS_9enable_ifIXaasr21__is_forward_iteratorIT_EE5valuesr16is_constructibleIS1_NS_15iterator_traitsISA_E9referenceEEE5valueEvE4typeESA_SA_
qac:__ZN5physx3Cct10Controller4moveERNS0_11SweptVolumeERKNS_6PxVec3EffRKNS_19PxControllerFiltersEPKNS_17PxObstacleContextEb
UE:__ZN11UnityEngine15CloudWebService16SessionContainer21ConvertFromFolderTimeERKN4core12basic_stringIcNS2_20StringStorageDefaultIcEEEEPjPt
Mfl:_BigInteger_Randomize_m3622044292
Rge:_XmlWriter_Dispose_m689512602
x0f:_Datatype_float__ctor_m703527433
dcb:__ZNSt3__26vectorI8GUIStyle13stl_allocatorIS1_L18MemLabelIdentifier1ELi16EEE7reserveEj
BIj:_ConfigurationSettings__cctor_m1127819917
cHf:_Array_InternalArray__IReadOnlyList_get_Item_TisState_t563545493_m1209717405_gshared
sPo:__ZL98UnicodeEncoding_t4081757012_CustomAttributesCacheGenerator_UnicodeEncoding_GetByteCount_m662995793P21CustomAttributesCache
Bxf:__ZN21InterfaceFuncInvoker2IibbE6InvokeEjP11Il2CppClassP12Il2CppObjectbb
EFm:__ZN6il2cpp2vm13MetadataCache14AddPointerTypeEP11Il2CppClassS3_
Rxh:_Array_InternalArray__IndexOf_TisUInt32_t2149682021_m3231515987_gshared
pIm:__ZNSt3__26__treeIP11Il2CppClassNS_4lessIS2_EENS_9allocatorIS2_EEE7destroyEPNS_11__tree_nodeIS2_PvEE
mJm:__ZN15dense_hashtableINSt3__24pairIK10KeyWrapperIPK9EventInfoEP11Il2CppClassEES6_N6il2cpp6icalls8mscorlib6System19Il2CppEventInfoHashEN14dense_hash_mapIS6_S9_SF_NS6_14EqualsComparerINSE_22Il2CppEventInfoCompareEEENS0_9allocatorISA_EEE9SelectKeyESJ_SL_E6insertERKSA_
ARb:__Z31CalculateHierarchyTransformType23TransformAccessReadOnly
YPb:__Z13RegisterClassI11TimeManagerEvv
Fw:__ZN4FMOD8ChannelI11setPositionEjj
nQj:_BypassElementCollection_GetElementKey_m3025198001
y4g:_SafeAsciiDecoder_GetCharCount_m650213563
Cef:_BinderState__ctor_m2485970461
D_h:_TimeZoneInfo_GetTzEnvironmentVariable_m2027793806
Jcj:_LeaseManager_StartManager_m281998993
xWc:__ZN5physx15NpActorTemplateINS_14PxRigidDynamicEE17setDominanceGroupEh
kkn:_GC_set_fl_marks
rfn:__ZL7z_allocPvjj
Awc:__ZN5physx6shdfnd8PoolBaseINS_2Sc12SimStateDataENS0_19ReflectionAllocatorIS3_EEE17releaseEmptySlabsEv
YOg:_Decoder_get_HasState_m1244353245
PZ:__ZN9GfxDevice17SetStereoViewportE15StereoscopicEyeRK5RectTIiE
aX:__ZN17BaseObjectManager13StaticDestroyEPv
xJm:__ZN15dense_hashtableINSt3__24pairIK10KeyWrapperIPK9EventInfoEP11Il2CppClassEES6_N6il2cpp6icalls8mscorlib6System19Il2CppEventInfoHashEN14dense_hash_mapIS6_S9_SF_NS6_14EqualsComparerINSE_22Il2CppEventInfoCompareEEENS0_9allocatorISA_EEE9SelectKeyESJ_SL_E9copy_fromERKSO_j
e_n:__Z67RuntimeInvoker_ConfiguredTaskAwaitable_1_t34161435_SByte_t454417549PFvvEPK10MethodInfoPvPS4_
X9m:__ZL21remove_working_threadP20Il2CppInternalThread
txo:__ZL68PKCS1MaskGenerationMethod_t3159630323_CustomAttributesCacheGeneratorP21CustomAttributesCache
wzl:_Predicate_1_EndInvoke_m3351206924_gshared
scf:_DBNull_System_IConvertible_ToChar_m3344298044
SYn:__Z65RuntimeInvoker_Boolean_t3825574718_RuntimeObject_Int64_t909078037PFvvEPK10MethodInfoPvPS4_
fec:__ZN5physx2Gu22closestPtPointTriangleEPNS_6shdfnd3aos5Vec3VES4_S4_Rj
Jvn:__Z113RuntimeInvoker_DateTime_t693205669_DateTime_t693205669_TimeSpan_t3430258949_TimeSpan_t3430258949_SByte_t454417549PFvvEPK10MethodInfoPvPS4_
hmg:_X509Certificate_GetObjectData_m3888130484
Wrm:__ZL25UnresolvedVirtualCall_184P12Il2CppObjectS0_S0_S0_S0_S0_iPK10MethodInfo
vGc:__ZN5physx2Cm8PtrTableC2Ev
Jkk:_List_1_TrimExcess_m3129914921_gshared
yv:__ZN4FMOD6Reverb13setPropertiesEPK22FMOD_REVERB_PROPERTIES
iSc:__ZNK5physx22NpParticleBaseTemplateINS_15PxParticleFluidENS_15NpParticleFluidEE14getRestitutionEv
AAb:__ZN9DepthPass13PrepareSubsetEjRK10RenderNodeifRK17ShaderReplaceData
Zgd:__ZN5physx16PxsBroadPhaseMBP6updateEjjRKNS_23PxcBroadPhaseUpdateDataEPNS_10PxBaseTaskE
jKc:__ZN5physx9NpPhysics18createRigidDynamicERKNS_11PxTransformE
prc:__ZN5physx6shdfnd5ArrayIPvNS0_19ReflectionAllocatorINS_2Sc18TriggerInteractionEEEE15growAndPushBackERKS2_
W9k:_Comparison_1_EndInvoke_m4001365168_gshared
a9l:_X509CertificateCollection_Add_m4008705157
cjm:_Comparison_1_BeginInvoke_m3523839944_gshared
Qgj:_MonoMethodMessage_set_Uri_m3218581120
kdn:__ZN6il2cpp6icalls8mscorlib6System11Environment22get_HasShutdownStartedEv
GHf:_CustomAttributeExtensions_GetCustomAttribute_TisRuntimeObject_m134386045_gshared
enm:_AudioMixerPlayable_GetHandle_m3697423575_AdjustorThunk
QOf:_Calendar_ToFourDigitYear_m939354306
P0h:_TypeSpec_get_DisplayFullName_m3760497518
Z$f:_Datatype_duration_get_ValidRestrictionFlags_m578450276
gza:__ZN4PPtrI6ShaderE8TransferI19StreamedBinaryWriteILb0EEEEvRT_
vwh:_Array_InternalArray__IndexOf_TisOp_t1831748991_m3754125050_gshared
xsn:__ZN6il2cpp2vm5Event8GetTokenEPK9EventInfo
Pfn:__ZN6il2cpp6icalls8mscorlib6System17RuntimeTypeHandle12GetArrayRankEP27Il2CppReflectionRuntimeType
zhc:__ZN5physx2Gu17intersectRayAABB2ERKNS_6shdfnd3aos5Vec3VES5_S5_S5_RKNS2_6FloatVERS6_S9_
Kq:__ZN4core20StringStorageDefaultIcE6assignEPKcj
UHk:_HttpWebRequest_get_ReadWriteTimeout_m2226574868
UFl:_Task_1_get_Factory_m4079909032_gshared
Spk:_List_1_GetEnumerator_m861431194_gshared
rLc:__ZNK5physx7NpShape17getSphereGeometryERNS_16PxSphereGeometryE
QRk:_ObjectComparer_1__ctor_m596935712_gshared
Bjc:__ZL18intersectAnyVsMeshILi1EEbPKN5physx2Gu6SphereEPKNS1_7CapsuleEPKNS1_3BoxERKNS1_13RTreeMidphaseERKNS0_11PxTransformERKNS0_11PxMeshScaleEP14LimitedResults
G7m:__ZN15dense_hashtableINSt3__24pairIK10KeyWrapperIP12Il2CppObjectEN6il2cpp2gc9CachedCCWEEES5_NS7_5utils11PointerHashIS3_EEN14dense_hash_mapIS5_S9_SD_NS5_14EqualsComparerINS0_8equal_toIS4_EEEENS0_9allocatorISA_EEE9SelectKeyESI_SK_E3endEv
rOn:__Z81RuntimeInvoker_Int32_t2071877448_RuntimeObject_Int32_t2071877448_Int64_t909078037PFvvEPK10MethodInfoPvPS4_
XIk:_AuthorizationState_t3879143100_marshal_pinvoke_back
DJl:_UnityAction_1__ctor_m4133546812_gshared
ITg:_Reader_DangerousGetRawExecutionContext_m510988906
Iuc:__ZN5physx6shdfnd5ArrayIPvNS0_15InlineAllocatorILj256ENS0_19ReflectionAllocatorINS_2Cm5BlockIhLj128EEEEEEEE15growAndPushBackERKS2_
wzh:_Array_InternalArray__ICollection_Add_TisEntry_t4214607081_m386577517_gshared
JJb:__ZN6Camera6SetFarEf
Y8l:_DeriveBytes_DeriveIV_m3343375195
qUi:_X509Certificate_ToString_m1582581274
hQi:_RNGCryptoServiceProvider_GetBytes_m167497991
$7:__ZN6prcoreL12RemapGenericI17TexFormatABGR888817TexFormatARGB8888EEvPKNS_9InnerInfoE
Fqa:__ZN11GameManager17MainThreadCleanupEv
whp:_SetupCoroutine_InvokeMember_m170868586
uVi:_X509CertificateImplMono_Equals_m3181305973
_xg:_CodeGroup_ToXml_m4247539845
AXn:__Z60RuntimeInvoker_Boolean_t3825574718_PlayableOutput_t988259697PFvvEPK10MethodInfoPvPS4_
Tyn:__Z73RuntimeInvoker_UnicodeCategory_t682236799_RuntimeObject_Int32_t2071877448PFvvEPK10MethodInfoPvPS4_
P2l:_Marshal_GetHRForException_m344472616
Gal:_KeyHandler_GetRootFromDir_m86975914
Hrk:_TypeBuilder_get_Assembly_m492491492
aCk:_TypeDelegator_GetConstructorImpl_m3778518431
Ntj:_CipherSuite_set_Context_m4127897124
VNc:__ZNK5physx7NpCloth24getParticleAccelerationsEPNS_6PxVec4E
rwb:__ZZ23InitPlayerLoopCallbacksvEN41PostLateUpdateUpdateResolutionRegistrator7ForwardEv
Qvh:_Array_FindLastIndex_TisRuntimeObject_m986818300_gshared
npb:__Z25scripting_array_class_get17ScriptingClassPtrj
L3b:__ZL22Transfer_ManagedObjectI9JSONWriteLb1EEvRK29SerializationCommandArgumentsR31RuntimeSerializationCommandInfo
Fs:__ZNK10SampleClip22GetTypeVirtualInternalEv
U_:__ZN9GfxDevice20DestroyRenderSurfaceER12ObjectHandleI17RenderSurface_TagP17RenderSurfaceBaseE
fpn:__ZNSt3__26__treeINS_12__value_typeINS_12basic_stringIcNS_11char_traitsIcEENS_9allocatorIcEEEEPFvvEEENS_19__map_value_compareIS7_SA_NS_4lessIS7_EELb1EEENS5_ISA_EEE25__emplace_unique_key_argsIS7_JRKNS_21piecewise_construct_tENS_5tupleIJOS7_EEENSL_IJEEEEEENS_4pairINS_15__tree_iteratorISA_PNS_11__tree_nodeISA_PvEEiEEbEERKT_DpOT0_
SX:__ZN18SpriteAtlasManagerC2Ev
Pnn:__ZNSt3__24listIPN6il2cpp5utils10MemoryPool6RegionENS_9allocatorIS5_EEE9push_backERKS5_
CLi:_Dictionary_2_System_Collections_IDictionary_Add_m2319898299_gshared
Eha:__ZN9GfxDevice22UpdateComputeResourcesEjPK9TextureIDPK16TextureDimensionPKijPKjjPK15ComputeBufferIDS7_PK20ComputeBufferCounterjSC_S2_S5_S9_SF_
Ota:__ZN12_GLOBAL__N_15qAsinEff
UJl:_Dictionary_2_get_Keys_m2644956864_gshared
fla:__ZN12TLSAllocatorI14StackAllocatorE13ThreadCleanupEv
tPi:_RijndaelManagedTransform_GenerateKeyExpansion_m2452879087
ft:__Z18GetAudioManagerPtrv
Dtp:__ZNKSt3__28time_getIcNS_19istreambuf_iteratorIcNS_11char_traitsIcEEEEE10__get_yearERiRS4_S4_RjRKNS_5ctypeIcEE
kYm:__ZN6il2cpp2vm6Thread12UnInitializeEv
M6n:__Z47RuntimeInvoker_XmlSchemaObjectEntry_t2510586510PFvvEPK10MethodInfoPvPS4_
olp:_Map_IsCoveredAndNotFlagged_m4111536071
jhn:__ZThn4_N6il2cpp2vm13ComObjectBase16MarshalInterfaceEP13Il2CppIStreamRK10Il2CppGuidPvjS7_j
fze:_XmlSchemaElement_set_SubstitutionGroup_m2831415413
fRa:__ZN4Mesh27SwizzleVertexColorsIfNeededEb
_rb:__Z27FindActiveTransformWithPathPKc
K$c:__ZN5physx16PxsIslandManager14setEdgeRigidCMERKNS_20PxsIslandManagerHookIjLj4294967295EEEPNS_17PxsContactManagerE
nth:_Array_QSortArrange_TisUInt16_t986882611_m2185388234_gshared
Ssa:__ZN12BaseRendererD0Ev
wNb:__Z29StdTemplateConversionFunctionIbyEbPvR14SafeBinaryRead
xdi:_BinaryReader_ReadString_m2084208171
bOe:_UriParser_get_IsSimple_m1320602069
MDa:__ZN7Texture5ResetEv
vih:_WebConnectionStream_get_Length_m2687402700
Dzc:__ZN5physx14NpArticulation25setStabilizationThresholdEf
Gmg:_SecurityParser_OnEndElement_m2909940377
yvd:__ZN5physx2Gu11HeightField7releaseEv
qta:__ZNK6Camera7GetNearEv
Phh:_WebConnectionStream_get_CompleteRequestWritten_m2866283642
hba:__ZN7ApiGLES11UnmapBufferEjN2gl12BufferTargetE
xhn:__ZN6il2cpp5utilsL24Utf32CharToSurrogatePairEjRA2_Ds
wJa:__Z25GetNextAllowedTextureSizeib13TextureFormat
Srb:__ZN20LocalFileSystemWebGL4CopyER13FileEntryDataS1_
A8f:_NamespaceListNode_ExpandTree_m2613690403
PXf:_TextInfo_IsAscii_m1351637231
R4k:_ReadOnlyCollection_1_System_Collections_Generic_IListU3CTU3E_get_Item_m3071300160_gshared
qgn:__ZN6il2cpp6icalls8mscorlib6System9Threading11Interlocked10Exchange64EPxx
tH:__ZN19CloudServiceHandler6RetainEv
grn:__ZN6il2cpp2os9Semaphore4WaitEb
wAg:_StrongName_Equals_m67226644
Rta:__ZN12BaseRenderer20FlattenToRenderQueueER15RenderNodeQueueRK20DeprecatedSourceData
vyh:_AsyncTaskCache_CreateCacheableTask_TisRuntimeObject_m3733017058_gshared
znd:__ZN5physx2Sc8ClothSim23addCollisionHeightfieldEPKNS0_8ShapeSimE
Gxf:__ZN21InterfaceFuncInvoker2IihhE6InvokeEjP11Il2CppClassP12Il2CppObjecthh
lKf:_Double_GetTypeCode_m1289324046_AdjustorThunk
aag:_QNameFacetsChecker_CheckValueFacets_m91970534
n$a:__Z34scripting_liveness_calculation_endPv
M0b:__ZNK19RectangleCellLayout13GetCellCenterEv
Wdn:__ZN6il2cpp2os6ThreadC2Ev
S5k:__ZN21InterfaceFuncInvoker1I20TimeSpan_t3430258949iE6InvokeEjP11Il2CppClassP12Il2CppObjecti
RWj:_U3CU3Ec__DisplayClass13_0__ctor_m2874435016
k8d:_XmlTextReader_get_LinePosition_m874032802
FQn:__Z42RuntimeInvoker_XmlSeverityType_t3547578624PFvvEPK10MethodInfoPvPS4_
hSg:_CancellationTokenSource_InternalGetStaticSource_m2075691162
Xqh:_Array_InternalArray__ICollection_Remove_TisDateTime_t693205669_m1275668216_gshared
MJl:_Dictionary_2__ctor_m871840915_gshared
o4j:_CultureInfoMapper_GetCultureInfoName_m687798883
uum:__ZL25UnresolvedVirtualCall_318P12Il2CppObjectyPK10MethodInfo
Kfb:__Z18Transfer_BlittableI24GenerateTypeTreeTransferLb1EhEvRK29SerializationCommandArgumentsR31RuntimeSerializationCommandInfo
l5b:__Z18Transfer_BlittableI8JSONReadLb0E8Vector3fEvRK29SerializationCommandArgumentsR31RuntimeSerializationCommandInfo
G4l:_ChannelServices__cctor_m3534779830
EKe:_RegexInterpreter_Textstart_m2553970629
_1g:_DtdParser_ParseNotationDecl_m698494241
nog:_AggregateException__ctor_m837286394
Yfg:_X509Store_CheckStore_m2104973896
bvo:__ZL71StrongNameMembershipCondition_t552614029_CustomAttributesCacheGeneratorP21CustomAttributesCache
vSg:_CancellationToken_ThrowIfSourceDisposed_m1757739378_AdjustorThunk
zVo:__ZL65XmlAnyElementAttribute_t2502375235_CustomAttributesCacheGeneratorP21CustomAttributesCache
j3e:_Convert_ToInt16_m416789348
hDc:__ZNK5physx18NpArticulationLink13isSubordinateEv
Jnc:__GLOBAL__sub_I_runtime_dynamics_2_cpp
l6j:_Enumerator_System_Collections_IEnumerator_Reset_m1061591080_AdjustorThunk
iPk:_List_1_System_Collections_IEnumerable_GetEnumerator_m2137219008_gshared
TLm:_il2cpp_class_get_name
gCn:__Z79RuntimeInvoker_Single_t2076509932_RuntimeObject_Int32_t2071877448_RuntimeObjectPFvvEPK10MethodInfoPvPS4_
_vh:_Array_IndexOf_TisInt16_t4041245914_m3423763998_gshared
evj:_Context_get_ChangeCipherSpecDone_m495252906
xre:_XmlAnyConverter_ToNavigator_m833154564
ssi:_InternalEnumerator_1_System_Collections_IEnumerator_Reset_m3669601605_AdjustorThunk
DBm:__ZN14dense_hash_mapI10KeyWrapperIPKcEP11Il2CppClassN6il2cpp5utils11StringUtils12StringHasherIS2_EENS3_14EqualsComparerINS7_13VmStringUtils21CaseSensitiveComparerEEENSt3__29allocatorINSF_4pairIKS3_S5_EEEEE15set_deleted_keyERSI_
Awf:_Array_InternalArray__set_Item_TisWSABUF_t2199312694_m3409373131_gshared
lgd:__ZN5physx14SapPairManager12shrinkMemoryEv
qbm:_X509ExtensionCollection_System_Collections_IEnumerable_GetEnumerator_m2600902401
V3b:__ZN9JSONWrite8TransferI13GUIStyleStateEEvRT_PKc17TransferMetaFlags
HWe:_ReadOnlyArrayList_IndexOf_m3721240274
Mzd:__ZN5physx6shdfnd8internal7median3IjKNS_19SortBoundsPredicateEEEvPT_iiRT0_
IAk:_PropertyInfo_CreateNIE_m2598389941
$Kl:_Dictionary_2_System_Collections_Generic_IEnumerableU3CSystem_Collections_Generic_KeyValuePairU3CTKeyU2CTValueU3EU3E_GetEnumerator_m3968773920_gshared
kHp:_glBindSampler__wrapper
uxm:_Physics_RaycastAll_m3853279464
vqa:__ZNSt3__26vectorIN20ArchiveStorageHeader12StorageBlockE13stl_allocatorIS2_L18MemLabelIdentifier55ELi16EEE8__appendEj
Zf:_emscripten_set_mouseup_callback
x0a:__Z14resize_trimmedINSt3__26vectorIN9ShaderLab14SerializedPassENS0_9allocatorIS3_EEEEEvRT_j
cop:_logb
tha:__ZN9GfxDevice27SetRandomWriteTargetTextureEi9TextureID
pDk:_ResourceManager_Init_m1758343903
zQk:_List_1__ctor_m1212533451_gshared
bof:_SerializationInfo_AddValue_m3568057294
w2c:__ZN5physx7NpScene22removeBroadPhaseRegionEj
n$:__ZN9GfxDevice47SwitchColorRenderSurfaceOutOfFastMemoryPlatformEP17RenderSurfaceBaseb
Irc:__ZL34GeomOverlapCallback_CapsuleCapsuleRKN5physx10PxGeometryERKNS_11PxTransformES2_S5_PNS_2Gu12TriggerCacheE
_Eh:_XmlSchemaNotation_get_Public_m3665679395
GLb:__ZNK18ScreenManagerWebGL8GetWidthEv
E1c:__ZNK5physx7NpScene23getFilterShaderDataSizeEv
$pk:_List_1_System_Collections_IList_Remove_m3525422725_gshared
kGm:__ZN6il2cpp2vm13MetadataCache33GetFieldDefaultValueDataFromIndexEi
jve:_XmlNumeric10Converter_ToString_m134279580
Cs:__ZN10SampleClipD2Ev
k$g:_XPathNodeRef__ctor_m3079452463
ixn:__Z81RuntimeInvoker_Int64_t909078037_RuntimeObject_Int32_t2071877448_Int32_t2071877448PFvvEPK10MethodInfoPvPS4_
Vbj:_SynchronizationAttribute_EnterContext_m2984912761
$dj:_MessageDictionary__ctor_m4073894756
cGm:__ZN6il2cpp2vm13MetadataCache38GetGenericParameterConstraintFromIndexEs
xjo:__ZL73Enum_t2459695545_CustomAttributesCacheGenerator_Enum_ToObject_m2601523252P21CustomAttributesCache
KRf:_CultureInfo_construct_internal_locale_from_name_m971766383
Ykd:__ZN5physx2Gu27generateFullContactManifoldERKNS0_8CapsuleVERNS0_13PolygonalDataEPNS0_12SupportLocalERKNS_6shdfnd3aos15PsMatTransformVEPNS0_17PersistentContactERjRKNS9_6FloatVERNS9_5Vec3VEb
Zbn:__ZN6il2cpp2os10ThreadImpl13SetWaitObjectEPNS0_5posix15PosixWaitObjectE
eSe:_Byte_Equals_m368616327_AdjustorThunk
G_a:__Z13GetGISettingsv
dH:__ZN11UnityEngine15CloudWebService20WebRequestRestClientC2Ev
wyb:__ZNSt3__224__buffered_inplace_mergeIRN10vector_mapIiN17InstancedPropInfo12PropertyTypeENS_4lessIiEE13stl_allocatorINS_4pairIiS3_EEL18MemLabelIdentifier1ELi16EEE13value_compareENS_11__wrap_iterIPS8_EEEEvT0_SH_SH_T_NS_15iterator_traitsISH_E15difference_typeESL_PNSK_10value_typeE
wLf:_Enum_ToObject_m2460371738
eIk:_HttpWebRequest_get_TransferEncoding_m3466636497
rcg:_PrimalityTests_Test_m1088386156
VR:__ZN14FileCacherRead13GetFileLengthEv
bgh:_WebAsyncResult_SetCompleted_m1412952062
OOo:__ZL69EncodingCharBuffer_t1740573429_CustomAttributesCacheGenerator_byteEndP21CustomAttributesCache
Yai:_Int64_Equals_m2821075083
Lop:_readlink
QSm:__ZN15dense_hashtableINSt3__24pairIK10KeyWrapperINS1_IPK9EventInfoP11Il2CppClassEEEjEES9_17ReflectionMapHashIS8_EN14dense_hash_mapIS9_jSD_NS9_14EqualsComparerINS0_8equal_toIS8_EEEENS0_9allocatorISB_EEE9SelectKeyESI_SK_E12resize_deltaEjj
kFf:_Array_InternalArray__get_Item_TisKeyframe_t1449471340_m1003508933_gshared
Z5k:_ReadOnlyCollection_1_System_Collections_Generic_IListU3CTU3E_get_Item_m2776561447_gshared
Nwg:_PermissionSet_Union_m2363188946
WLn:__Z119RuntimeInvoker_InternalCodePageDataItem_t1742109366_Int16_t4041245914_Int16_t4041245914_RuntimeObject_Int32_t2071877448PFvvEPK10MethodInfoPvPS4_
ebp:__ZL123UnitySynchronizationContext_t1205147244_CustomAttributesCacheGenerator_UnitySynchronizationContext_ExecuteTasks_m1920809885P21CustomAttributesCache
rLg:_Encoding_ThrowCharsOverflow_m3832405584
$Ri:_SHA256Managed_Initialize_m2091245045
v5m:__ZNSt3__23mapIP24Il2CppReflectionAssemblyPvNS_4lessIS2_EENS_9allocatorINS_4pairIKS2_S3_EEEEEixERS8_
Kyn:__Z50RuntimeInvoker_Double_t4078015681_Int64_t909078037PFvvEPK10MethodInfoPvPS4_
fHo:__ZL90ResourceReader_t2463923611_CustomAttributesCacheGenerator_ResourceReader__ctor_m1529095691P21CustomAttributesCache
gkg:_StrongName_get_PublicKeyToken_m1968460885
XIe:_RegexCompiler_Bne_m402739011
bTa:__ZNK6Sprite9GetBoundsE8Vector2fbb
Owa:__ZNK19RenderEventsContext21CleanupCommandBuffersEv
oLh:_XsdBuilder_InitSimpleTypeUnion_m526036986
whf:_ObjectReader_get_ValueFixupStack_m4123900463
z6k:_ReadOnlyCollection_1_CopyTo_m2344997330_gshared
rZl:_ConfigurationSection_DeserializeSection_m1139223106
F2:__ZN11ContextGLES6CreateEi
$ic:__ZN5physx6shdfnd5ArrayINS_10PxTriangleENS0_19ReflectionAllocatorIS2_EEE15growAndPushBackERKS2_
edi:_BinaryReader_Dispose_m4249456877
aWl:_ElementMap_get_Properties_m169107978
A8g:_Datatype_anyAtomicType_get_TypeCode_m3389466248
XJf:_Double_ToString_m1085043609
FHm:_build_tree_12559
vob:__Z19TransferField_ArrayI18StreamedBinaryReadILb0EE27Converter_SimpleNativeClassI17AnimationCurveTplIfEEEvRK23StaticTransferFieldInfoR31RuntimeSerializationCommandInfoRT0_
sTi:_TailStream_get_CanSeek_m977998366
Kka:__ZN14StackAllocator16FrameMaintenanceEb
rec:__ZL11SweepBoxBoxPKN5physx3Cct9SweepTestEPKNS0_11SweptVolumeEPKNS0_11TouchedGeomERKNS_14PxExtendedVec3ERKNS_6PxVec3ERNS0_12SweptContactE
IVd:_XmlConvert_ToDouble_m720485344
Pma:__Z18ReadStringFromFilePN4core17string_with_labelILi1EEERKNS_12basic_stringIcNS_20StringStorageDefaultIcEEEE
CS:__ZNK10GameObject20QueryComponentByTypeEPKN5Unity4TypeE
lsj:_MonoRemoteCertificateValidationCallback__ctor_m2875522950
P9f:_ParticleContentValidator_CheckUniqueParticleAttribution_m7494295
bbj:_OpCode_GetHashCode_m2974727122
Bag:_SchemaAttDef_System_Xml_IDtdDefaultAttributeInfo_get_ValueLineNumber_m1178984088
Ttj:_CipherSuite_createDecryptionCipher_m1118350455
sWd:_XmlTextReaderImpl__ctor_m2614676031
vKf:_Double_System_IConvertible_ToInt16_m4200640326
HIa:__ZN11TextureData5ResetEv
g8i:_GenericTypeParameterBuilder_get_IsGenericType_m1883522222
tY:__ZN15dense_hashtableINSt3__24pairIKN4core12basic_stringIcNS2_20StringStorageDefaultIcEEEE13dynamic_arrayI4PPtrI6SpriteELj4EEEES6_20StringHash32FunctionIS6_EN14dense_hash_mapIS6_SC_SF_NS0_8equal_toIS6_EE13stl_allocatorISD_L18MemLabelIdentifier81ELi16EEE9SelectKeyESI_SL_EC2ERKSO_j
ON:__ZL30InitializeCoreScriptingClassesv
n4d:_XmlNodeReader_System_Xml_IXmlNamespaceResolver_LookupPrefix_m1065493447
Yg:_glBlitFramebuffer
USj:_CookieContainer_IsLocalDomain_m367105750
Yna:__ZN17ArchiveFileSystem5TouchER13FileEntryData
z9b:__ZNK5physx3Cct13BoxController13getStepOffsetEv
nxj:_SecurityParameters_set_Cipher_m3888132335
cek:_List_1_RemoveAt_m3118830626_gshared
ugl:_BigInteger_GeneratePseudoPrime_m2606361440
BSf:_DateTimeFormatInfo_get_ShortTimePattern_m20923983
Rdb:__Z35Transfer_Blittable_SingleValueFieldI14SafeBinaryReadhEvRT_R17GeneralMonoObjectRK23StaticTransferFieldInfo
Uue:_XmlMiscConverter_ChangeTypeWildcardDestination_m2617351706
zeo:__ZL88Type_t_CustomAttributesCacheGenerator_Type_MakeGenericType_m2765875033____typeArguments0P21CustomAttributesCache
PAm:_fill_window_12388
ZRc:__ZN5physx22NpParticleBaseTemplateINS_15PxParticleFluidENS_15NpParticleFluidEE13setVelocitiesEjRKNS_16PxStrideIteratorIKjEERKNS4_IKNS_6PxVec3EEE
HRd:__ZN22BaseUnityConnectClientC2ERN11UnityEngine7Connect20BasePersistentValuesE
Tmg:___DTString_t420639831_marshal_pinvoke
aPh:_XsdValidator_get_HasIdentityConstraints_m197113164
Rig:_EncryptedPrivateKeyInfo_get_Algorithm_m2779196942
mhj:_RemotingServices_GetRealProxy_m620317996
OAb:__ZN13dynamic_arrayI11CulledLightLj4EE6insertEPS0_PKS0_S4_
CWg:_SpinLock_ContinueTryEnter_m1120040600_AdjustorThunk
LHa:__ZNK12CubemapArray22GetTypeVirtualInternalEv
OBa:__ZN11Tetrahedron8TransferI18StreamedBinaryReadILb0EEEEvRT_
lo:FUNCTION_TABLE_vif
mo:FUNCTION_TABLE_vid
oo:FUNCTION_TABLE_vii
y$a:__Z40scripting_liveness_calculation_from_root18ScriptingObjectPtrPv
yZj:_SimpleResolver_GetQuery_m4126646420
REa:__ZN7Texture23VirtualRedirectTransferER24GenerateTypeTreeTransfer
sTb:__ZNK32RendererMaterialAnimationBinding12SetPPtrValueERKN11UnityEngine9Animation10BoundCurveEi
ygi:_FileLoadException__ctor_m900251456
Cli:_StreamWriter__ctor_m4268791735
RGp:_glDeleteFramebuffers__wrapper
BXg:_AwaitTaskContinuation_ThrowAsyncIfNecessary_m1041594797
J7g:_Compiler_IsChoiceFromChoiceSubstGroup_m2194529737
T0n:__Z54RuntimeInvoker_Int32_t2071877448_LabelData_t3712112744PFvvEPK10MethodInfoPvPS4_
mpj:_BigInteger_ModInverse_m1881894572
f7h:_VersionResult_GetVersionParseException_m852833228
STb:__ZZN12MeshRenderer15InitializeClassEvEN29FunctorImpl_134kDidDeleteMesh4CallEPviR11MessageData
wTh:_TaskExceptionHolder_GetExceptionDispatchInfos_m1982614742
Cqm:__ZL25UnresolvedVirtualCall_110P12Il2CppObjectyPK10MethodInfo
fej:_MessageDictionary_SetMethodProperty_m3362316095
Nqm:__ZL25UnresolvedVirtualCall_121P12Il2CppObjectS0_ii29CancellationToken_t1851405782PK10MethodInfo
Frb:__ZNSt3__26__treeIN4core12basic_stringIcNS1_20StringStorageDefaultIcEEEENS_4lessIS5_EE13stl_allocatorIS5_L18MemLabelIdentifier38ELi16EEE7destroyEPNS_11__tree_nodeIS5_PvEE
WJl:_Dictionary_2_System_Collections_Generic_IDictionaryU3CTKeyU2CTValueU3E_get_Values_m328018700_gshared
ISk:_ObjectComparer_1_Equals_m2309391766_gshared
QAm:_longest_match_12389
GUm:__ZN30dense_hashtable_const_iteratorINSt3__24pairIK10KeyWrapperIPK22Il2CppGenericParameterEPK24MonoGenericParameterInfoEES6_N6il2cpp5utils11PointerHashIS4_EEN14dense_hash_mapIS6_SA_SF_NS6_14EqualsComparerINS0_8equal_toIS5_EEEENS0_9allocatorISB_EEE9SelectKeyESK_SM_E30advance_past_empty_and_deletedEv
NKa:__ZN28EnlightenRendererInformation8TransferI14SafeBinaryReadEEvRT_
jNn:__Z88RuntimeInvoker_RuntimeObject_RuntimeObject_Int32_t2071877448_RuntimeObject_RuntimeObjectPFvvEPK10MethodInfoPvPS4_
hCi:_KeyCollection_get_Count_m1838078283_gshared
lJn:__Z127RuntimeInvoker_Void_t1841601450_RuntimeObject_RuntimeObject_SByte_t454417549_SByte_t454417549_SByte_t454417549_SByte_t454417549PFvvEPK10MethodInfoPvPS4_
Mxe:_XmlSchemaCollectionEnumerator_get_CurrentNode_m146258416
Kpa:__ZNK15Lz4Decompressor16DecompressMemoryEPKvPjPvS2_
CRl:_GenericEqualityComparer_1_IndexOf_m2798671620_gshared
Hrl:_InternalEnumerator_1_System_Collections_IEnumerator_Reset_m413447610_AdjustorThunk
_5d:_XmlReaderSettings__ctor_m3408230456
Xmn:__ZN6il2cpp6icalls8mscorlib6System9Threading16NativeEventCalls20CreateEvent_internalEbbP12Il2CppStringPi
mni:_SyncTextWriter_get_Encoding_m115735777
EQk:_List_1_get_Count_m3346111197_gshared
EGa:__Z35UnityPropertySheet_MakeSortedColorsRKNSt3__23mapIN9ShaderLab16FastPropertyNameE10ColorRGBAfNS_4lessIS2_EENS_9allocatorINS_4pairIKS2_S3_EEEEEER10vector_mapIS2_S3_S5_NS6_INS7_IS2_S3_EEEEE
qef:_Decimal_System_IConvertible_ToType_m3828527724_AdjustorThunk
jLk:_UnixIPGlobalProperties__ctor_m2983914321
sld:__ZN5physx2GuL34fullContactsGenerationSphereConvexERKNS0_8CapsuleVERKNS0_11ConvexHullVERKNS_6shdfnd3aos12PsTransformVESB_PNS0_17PersistentContactERjRNS0_13ContactBufferEbRNS0_25PersistentContactManifoldERNS8_5Vec3VERKNS8_6FloatVEb
dXc:__ZN5physx19NpRigidBodyTemplateINS_14PxRigidDynamicEE16setRigidBodyFlagENS_15PxRigidBodyFlag4EnumEb
Iqj:_HMAC_get_Key_m2528863640
Xpj:_ASN1_get_Count_m3992276234
_Qo:__ZL93StringBuilder_t1221177846_CustomAttributesCacheGenerator_StringBuilder_AppendLine_m1686706871P21CustomAttributesCache
vnl:_InternalEnumerator_1_System_Collections_IEnumerator_get_Current_m888475750_AdjustorThunk
Pte:_XmlBaseConverter_DateTimeOffsetToString_m3486040552
YVd:_XmlConvert_CreateInvalidSurrogatePairException_m369037709
fVj:_FtpAsyncResult__ctor_m2490841827
hdb:__Z29Transfer_Blittable_ArrayFieldI14SafeBinaryRead8Vector4fEvRT_R9ArrayInfoRK23StaticTransferFieldInfo
X8o:__ZL87Time_t31991979_CustomAttributesCacheGenerator_Time_get_realtimeSinceStartup_m3888815444P21CustomAttributesCache
FDo:__ZL62IDynamicMessageSink_t3056162262_CustomAttributesCacheGeneratorP21CustomAttributesCache
Kuf:_CryptoStream_WriteAsync_m1747512670
ial:_mincore_EnumDynamicTimeZoneInformation_m2677638812
mJd:__ZNSt3__27__sort4IRNS_6__lessI24InterpolationDepthHandleS2_EEPS2_EEjT0_S6_S6_S6_T_
A2m:__ZN6il2cpp6icalls8mscorlib6System4Type15MakePointerTypeEP20Il2CppReflectionType
Ige:_XmlWhitespace_get_IsText_m2812984449
Brk:_SymbolType_HasElementTypeImpl_m824530259
SSn:__Z35RuntimeInvoker_DnsQType_t1279797630PFvvEPK10MethodInfoPvPS4_
Wan:__ZN6il2cpp2os10SocketImpl7ConnectEPKc
Mwn:__Z41RuntimeInvoker_TransitionTime_t3441274853PFvvEPK10MethodInfoPvPS4_
rac:__ZN5physx3Cct8SweptBoxD2Ev
iwb:__ZZ23InitPlayerLoopCallbacksvEN51PostLateUpdateUpdateCustomRenderTexturesRegistrator7ForwardEv
MYn:__Z133RuntimeInvoker_Boolean_t3825574718_Vector3U26_t425862308_Vector3U26_t425862308_Single_t2076509932_Int32_t2071877448_Int32_t2071877448PFvvEPK10MethodInfoPvPS4_
Pbd:__ZN5physx2Cm12DelegateTaskINS_13PxsCCDContextEXadL_ZNS2_12postCCDSweepEPNS_10PxBaseTaskEEEED0Ev
Ydf:_Decimal_System_IConvertible_ToInt16_m3159038792
Kfi:_Path_GetFullPathInternal_m1507868136
yRl:_GenericEqualityComparer_1_GetHashCode_m1288758066_gshared
rcn:__ZN6il2cpp2vmL17AreParametersSameEPK13ParameterInfoS3_i
Rsc:__ZN5physx3Scb5Scene20addArticulationJointERNS0_17ArticulationJointE
TOk:_List_1_IsCompatibleObject_m995232178_gshared
iIf:_XmlListConverter_ToArray_TisInt32_t2071877448_m1688780710_gshared
HJg:_EncoderNLS_GetByteCount_m1289725347
Dmc:__ZN5physx3Cct9SweepTest15onObstacleAddedEjPKNS_17PxObstacleContextERKNS_6PxVec3ES7_f
xVf:_IdnMapping_GetAscii_m3436035811
gsc:__ZN5physx2Gu10SupportMapD2Ev
R1m:__ZN14dense_hash_mapI10KeyWrapperIiEPNSt3__26vectorIP12Il2CppObjectN6il2cpp2gc9AllocatorIS5_EEEE21ThreadPoolStateHasherNS1_14EqualsComparerINS2_8equal_toIiEEEENS2_9allocatorINS2_4pairIKS1_SB_EEEEEC2EjRKSC_RKSG_
sge:_XmlValidatingReaderImpl_get_NamespaceManager_m1281681681
EXa:__ZNSt3__26vectorIN15ResourceManager10DependencyE13stl_allocatorIS2_L18MemLabelIdentifier52ELi16EEEC2INS_11__wrap_iterIPS2_EEEET_SB_RKS5_PNS_9enable_ifIXaasr21__is_forward_iteratorISB_EE5valuesr16is_constructibleIS2_NS_15iterator_traitsISB_E9referenceEEE5valueEvE4typeE
t3l:_SafeBuffer_AcquirePointer_m4019643305
YKa:__ZN4PPtrI11LightProbesE8TransferI18StreamedBinaryReadILb0EEEEvRT_
B1l:_ComVisibleAttribute__ctor_m1789587486
Nsi:_ArraySegment_1_get_Count_m4180506109_gshared
pCc:__ZNK5physx15NpActorTemplateINS_18PxArticulationLinkEE22getClientBehaviorFlagsEv
myk:_MonoMethodInfo_GetReturnType_m2864247130
MHk:_HttpWebRequest_get_ContentLength_m2183698788
zIb:__ZN13RenderManager29SetCurrentCameraAndStackStateEP6CameraP25CameraStackRenderingState
Esa:__ZNSt3__26__treeINS_12__value_typeIjN4core12basic_stringIcNS2_20StringStorageDefaultIcEEEEEENS_19__map_value_compareIjS7_NS_4lessIjEELb1EEE13stl_allocatorIS7_L18MemLabelIdentifier7ELi16EEE7destroyEPNS_11__tree_nodeIS7_PvEE
lXo:__ZL94XmlSchema_t880472818_CustomAttributesCacheGenerator_XmlSchema_t880472818____Items_PropertyInfoP21CustomAttributesCache
UXm:__ZN15dense_hashtableINSt3__24pairIK10KeyWrapperINS1_IP11Il2CppClassjEEES4_EES6_N6il2cpp8metadata14ArrayClassHashEN14dense_hash_mapIS6_S4_SB_NS6_14EqualsComparerINSA_17ArrayClassCompareEEENS0_9allocatorIS8_EEE9SelectKeyESF_SH_E12resize_deltaEjj
Mdg:_SafeGPtrArrayHandle_t547714345_marshal_pinvoke_cleanup
oi:_JS_WebRequest_Release
Sfi:_DirectoryNotFoundException__ctor_m2242202556
qCc:__ZNK5physx15NpActorTemplateINS_18PxArticulationLinkEE12getAggregateEv
sF:__ZN11UnityEngine15CloudWebService14DataErrorEventD0Ev
r2m:__ZN6il2cpp6icalls8mscorlib6System4Type20internal_from_handleEi
aDg:_String_CreateString_m2448464375
ejn:__ZN6il2cpp6icalls8mscorlib6System7Runtime15InteropServices8GCHandle18CheckCurrentDomainEi
oDe:_X509SubjectKeyIdentifierExtension__ctor_m2959112706
ETk:_ObjectEqualityComparer_1_Equals_m906556553_gshared
$Sj:_CookieTokenizer_Extract_m3267164971
Auk:_FieldInfo_get_IsNotSerialized_m2322769148
xRj:_WebProxyScriptElement__cctor_m3758071300
fIg:_DecoderExceptionFallbackBuffer_get_Remaining_m282446616
f2c:__ZNK5physx7NpScene18getStaticStructureEv
Bko:__ZL68Math_t2022911894_CustomAttributesCacheGenerator_Math_Max_m2671311541P21CustomAttributesCache
Sbd:__ZN5physx13PxsCCDContext12postCCDSweepEPNS_10PxBaseTaskE
t6m:__ZN6il2cpp8metadata15GenericMetadata7InflateEPK19Il2CppGenericMethodPK20Il2CppGenericContext
iKa:__ZN19ShaderPropertySheet16SetArrayPropertyEN9ShaderLab16FastPropertyNameENS_12PropertyTypeEPKvj
Cal:_KeyHandler__ctor_m3330959012
uBb:__ZN22PerThreadPageAllocatorC2Ev
M_h:_TimeZoneInfo_TransitionTimeFromTimeZoneInformation_m2176278403
sAd:__ZN5physx6shdfnd10Foundation19AlignCheckAllocator28deregisterAllocationListenerERNS_20PxAllocationListenerE
RBc:__ZN5physx2Sc21ArticulationJointCore12setChildPoseERKNS_11PxTransformE
dtl:_InternalEnumerator_1_get_Current_m4083613828_gshared
ngj:_MethodResponse_get_Uri_m4194004030
nwk:_Module_GetModuleVersionId_m272009108
mXl:_ConfigurationElementCollection_IndexOfKey_m1888078841
ufm:_UnityAction__ctor_m3825983746
qig:_KeyPairPersistence_Save_m471726936
RUc:__ZN5physx22NpParticleBaseTemplateINS_16PxParticleSystemENS_16NpParticleSystemEE7releaseEv
m3d:_XmlNodeReaderNavigator_get_IsDefault_m3164036452
Qei:_Path_InsecureGetFullPath_m2635272425
pxo:__ZL61KeyedHashAlgorithm_t1374150027_CustomAttributesCacheGeneratorP21CustomAttributesCache
oaf:_DateTime_System_IConvertible_ToUInt32_m1363211018
eed:__ZN5physx33solveContactCoulombBlockWriteBackEPKNS_23PxcSolverConstraintDescEjRNS_16PxcSolverContextEPNS_25PxcThresholdStreamElementEjPi
Yfp:_Quaternion_ToString_m1042358501
Qof:_RuntimeMethodHandle__ctor_m1162528746
Tld:__ZN5physx9PxTaskMgr17submitUnnamedTaskERNS_6PxTaskENS_10PxTaskType4EnumE
GLi:_DSA__ctor_m613430209
K2g:_DtdParser_ScanElement6_m4140131957
R2l:_Marshal__SetErrorInfo_m1392670507
y5:__ZN7Texture21GetMasterTextureLimitEv
ZXo:__ZL116XmlSchemaElement_t2433337156_CustomAttributesCacheGenerator_XmlSchemaElement_t2433337156____Constraints_PropertyInfoP21CustomAttributesCache
tvo:__ZL66HostProtectionAttribute_t1933600591_CustomAttributesCacheGeneratorP21CustomAttributesCache
pKb:__Z12CanAddScriptR10GameObject17ScriptingClassPtrPS1_S2_
QVm:__ZN6il2cpp2vm10Reflection12HasAttributeEP12Il2CppObjectP11Il2CppClass
jze:_XmlSchemaElement_get_BlockResolved_m3247069828
KM:__ZN9ShaderLabL25StaticInitializeShaderLabEPv
kIe:_RegexCompiler_CallToLower_m3733216259
L9c:__ZNK5physx2Sq12BucketPruner5sweepERKNS0_9ShapeDataERKNS_6PxVec3ERfRNS0_14PrunerCallbackE
V:Math_max
fIj:_WeakKeyComparer_System_Collections_IEqualityComparer_GetHashCode_m3296290725
kqm:__ZL24UnresolvedVirtualCall_92P12Il2CppObjectPK10MethodInfo
Y5n:__Z41RuntimeInvoker_KeyValuePair_2_t4275477795PFvvEPK10MethodInfoPvPS4_
SLm:_il2cpp_class_get_methods
Vln:_GC_generic_malloc_inner_ignore_off_page
gOg:_StringBuilder_FormatError_m3288331387
Zif:_SerializationEventsCache_GetSerializationEventsForType_m4133831174
wxi:_Enumerator_System_Collections_IEnumerator_get_Current_m1631145297_gshared
Xfb:__Z18Transfer_BlittableI24GenerateTypeTreeTransferLb0EN4math12int2_storageEEvRK29SerializationCommandArgumentsR31RuntimeSerializationCommandInfo
KVe:_ArrayList_Synchronized_m2395071980
Eal:_KeyHandler_Load_m3388995186
c0d:_XmlException__ctor_m47652749
ben:__ZN6il2cpp2os6Thread16GetCurrentThreadEv
AVd:_XmlConvert_ToInt64_m4199079136
gao:__ZL81RuntimeArray_CustomAttributesCacheGenerator_Array_SetValue_m169741241____indices1P21CustomAttributesCache
zJi:_Dictionary_2_Initialize_m1889692013_gshared
tNo:__ZL82Decoder_t3792697818_CustomAttributesCacheGenerator_Decoder_GetCharCount_m427443384P21CustomAttributesCache
q9e:_DateTimeFormat_FormatMonth_m466278903
$Vb:__ZN10GameObject13ComponentPair15SetComponentPtrEPN5Unity9ComponentE
FUk:_ObjectEqualityComparer_1_GetHashCode_m3491167717_gshared
eId:__ZN5physx6shdfnd8internal8HashBaseINS0_4PairIKPKNS0_14NamedAllocatorEPKcEES6_NS0_4HashIS6_EENS1_11HashMapBaseIS6_S9_SC_NS0_20NonTrackingAllocatorEE6GetKeyESE_Lb1EE15reserveInternalEj
r0o:__ZL61ProviderCollection_t2548499159_CustomAttributesCacheGeneratorP21CustomAttributesCache
Nni:_UnexceptionalStreamWriter_Write_m3206913035
KPb:__Z13RegisterClassI10MeshFilterEvv
xog:_AggregateException__ctor_m1303159826
g6j:_Enumerator_System_Collections_IEnumerator_get_Current_m3175039148_gshared
Msa:__ZN10TagManager8TransferI19StreamedBinaryWriteILb0EEEEvRT_
Q_a:__ZN11PreloadData23VirtualRedirectTransferER18StreamedBinaryReadILb0EE
odp:__ZL96Physics_t634932869_CustomAttributesCacheGenerator_Physics_RaycastAll_m2968588561____maxDistance1P21CustomAttributesCache
gPa:__ZN13sorted_vectorI4PPtrI11SpriteAtlasENSt3__24lessIS2_EE13stl_allocatorIS2_L18MemLabelIdentifier1ELi16EEE21sort_clear_duplicatesEv
zvf:_DESTransform_ProcessBlock_m2826669227
S8h:_Int16_CompareTo_m3493496879
gvo:__ZL66ZoneMembershipCondition_t3435127283_CustomAttributesCacheGeneratorP21CustomAttributesCache
a0k:__ZN21InterfaceFuncInvoker1IbsE6InvokeEjP11Il2CppClassP12Il2CppObjects
V8o:__ZL56RenderTexture_t2666733923_CustomAttributesCacheGeneratorP21CustomAttributesCache
rzf:__ZN21InterfaceFuncInvoker1Ii29RangePositionInfo_t2780802922E6InvokeEjP11Il2CppClassP12Il2CppObjectS0_
Xvi:_Comparer_1_CreateComparer_m2645496704_gshared
UAo:__ZL125BinaryMethodCallMessage_t3709702807_CustomAttributesCacheGenerator_BinaryMethodCallMessage_get_LogicalCallContext_m3805669420P21CustomAttributesCache
Xtm:__ZL25UnresolvedVirtualCall_293P12Il2CppObjectPK10MethodInfo
B_k:_ReadOnlyCollection_1_System_Collections_IList_get_IsFixedSize_m3519469129_gshared
FLk:_sockaddr_dl_t3955242742_marshal_pinvoke_cleanup
$Na:__ZN6Sprite17MainThreadCleanupEv
CQf:_CultureData_ShortDates_m2708701631
_Yl:_SectionInformation_ProtectSection_m230982508
ryo:__ZL61SignatureDescription_t89145500_CustomAttributesCacheGeneratorP21CustomAttributesCache
_7h:_WindowsConsoleDriver_IsModifierKey_m4105833994
gy:__ZN10AudioMixer14UpdateMuteSoloEv
nsh:_Array_QSortArrange_TisByte_t3683104436_TisRuntimeObject_m765696133_gshared
vFh:_XmlSchemaObject_get_IdAttribute_m665615692
wxb:__Z17GetMonoManagerPtrv
Wzo:__ZL96SerializationInfo_t228987430_CustomAttributesCacheGenerator_SerializationInfo_SetType_m499725474P21CustomAttributesCache
PKk:_CommonUnixIPGlobalProperties__ctor_m3898306218
s3l:_RuntimeEnvironment_get_SystemConfigurationFile_m1879048062
oSh:_XmlCharType_IsLowSurrogate_m1099211065
DJc:__ZN5physx6shdfnd5ArrayINS_3Scb13MaterialEventENS0_19ReflectionAllocatorIS3_EEE15growAndPushBackERKS3_
Rwf:_Array_InternalArray__set_Item_TisEphemeron_t1875076633_m4127456504_gshared
Hlf:_MemberHolder_GetHashCode_m4152518136
Qra:__ZN9Transform35SetLocalPositionWithoutNotificationERKN4math7_float3Ey
Dua:__ZN9ShaderLab10SubProgram7CompileEv
l4:__ZN7ApiGLES16SetPatchVerticesEi
G5g:_BaseProcessor_get_HasErrors_m2893495153
uFo:__ZL55GuidAttribute_t222072359_CustomAttributesCacheGeneratorP21CustomAttributesCache
Ujj:_RemotingServices_ProxyCheckCast_m961691937
lwc:__ZN5physx2Sc5Scene11onBodySleepEPNS0_7BodySimE
j1h:_Type_GetArrayRank_m4242213362
epa:__ZN10MemoryFileC2E18MemLabelIdentifierP14MemoryFileData14FilePermission
c1l:_TaskAwaiter_UnsafeOnCompleted_m4133231653_AdjustorThunk
Pij:_TrackingServices_NotifyUnmarshaledObject_m1794048369
Tym:__ZN6il2cpp2vm5Class20FromGenericParameterEPK22Il2CppGenericParameter
CCo:__ZL59RemotingServices_t2399536837_CustomAttributesCacheGeneratorP21CustomAttributesCache
SH:__ZN19CloudServiceHandler11FlushEventsEv
DW:__ZN15GlobalCallbacksC2Ev
akh:_WebRequest_get_Credentials_m2648907180
Jwf:_Array_InternalArray__set_Item_TisLabelFixup_t4090909514_m565370771_gshared
zDl:_ListBuilder_1_ToArray_m1877055377_gshared
dJc:__ZNK5physx10NpMaterial18getDynamicFrictionEv
pck:_List_1_Sort_m3869258499_gshared
g8o:__ZL99GameObject_t1756533147_CustomAttributesCacheGenerator_GameObject_GetComponentInChildren_m1720983699P21CustomAttributesCache
x_d:_XmlDownloadManager_GetNonFileStream_m2169104068
$4g:_AllElementsContentValidator_InitValidation_m720760755
sHh:_XmlSchemaSimpleTypeContent__ctor_m654527641
D$g:_Axis_get_AbbrAxis_m1651507124
wHl:_Tuple_3_Equals_m4286593197_gshared
xUd:__Z15CastclassSealedP12Il2CppObjectP11Il2CppClass
FJe:_RegexBoyerMoore_IsMatch_m2393559697
Q1m:__ZNK15dense_hashtableINSt3__24pairIK10KeyWrapperIiEPNS0_6vectorIP12Il2CppObjectN6il2cpp2gc9AllocatorIS7_EEEEEES3_21ThreadPoolStateHasherN14dense_hash_mapIS3_SD_SF_NS3_14EqualsComparerINS0_8equal_toIiEEEENS0_9allocatorISE_EEE9SelectKeyESK_SM_E12test_deletedERK24dense_hashtable_iteratorISE_S3_SF_SO_SK_SM_E
jPb:__ZN15ApplicationInfo14GetSandboxTypeEv
_Jc:__ZN5physx9NpPhysics16createConvexMeshERNS_13PxInputStreamE
iZk:_ReadOnlyCollection_1_System_Collections_Generic_IListU3CTU3E_set_Item_m2069169051_gshared
Ydb:__Z18Transfer_BlittableI17RemapPPtrTransferLb1EhEvRK29SerializationCommandArgumentsR31RuntimeSerializationCommandInfo
HLk:_sockaddr_dl_Read_m1061580541_AdjustorThunk
hJb:__ZN16ReflectionProbes40UpdateRealtimeReflectionProbesTimeslicedEv
RAh:_Array_InternalArray__ICollection_Add_TisState_t2667800191_m2825804154_gshared
y5m:__ZNSt3__26__treeINS_12__value_typeIP24Il2CppReflectionAssemblyPvEENS_19__map_value_compareIS3_S5_NS_4lessIS3_EELb1EEENS_9allocatorIS5_EEE16__insert_node_atEPNS_16__tree_node_baseIS4_EERSF_SF_
Qpl:_InternalEnumerator_1_System_Collections_IEnumerator_get_Current_m2858532841_gshared
ngf:_NameCache_GetCachedValue_m1672086260
yvc:__ZN5physx2Sq17SceneQueryManager8addShapeERKNS_7NpShapeERKNS_12PxRigidActorEbPNS_9PxBounds3E
zql:_InternalEnumerator_1_get_Current_m419131001_gshared
TXa:__ZNK30RuntimeInitializeOnLoadManager22GetTypeVirtualInternalEv
Oyf:__ZN21InterfaceFuncInvoker2IiffE6InvokeEjP11Il2CppClassP12Il2CppObjectff
nSi:_SHA256Managed__cctor_m4236532252
MDm:__ZN15dense_hashtableINSt3__24pairIK10KeyWrapperIN6il2cpp5utils13dynamic_arrayIPK10Il2CppTypeLj4EEEEPFvvEEESA_NS3_8metadata19Il2CppSignatureHashEN14dense_hash_mapISA_SD_SG_NSA_14EqualsComparerINSF_22Il2CppSignatureCompareEEENS0_9allocatorISE_EEE9SelectKeyESK_SM_E12resize_deltaEjj
ZSb:__ZN16ReflectionProbes15InitializeClassEv
Bpf:_RuntimeType_GetPropertiesByName_native_m1856854496
X9e:_DateTimeFormat_GetAllDateTimes_m857639969
vdo:__ZL65String_t_CustomAttributesCacheGenerator_String_CopyTo_m3397208344P21CustomAttributesCache
$Em:__ZNK15dense_hashtableINSt3__24pairIK10KeyWrapperIPK11Il2CppClassEPKcEES6_N6il2cpp5utils11PointerHashIS3_EEN14dense_hash_mapIS6_S9_SE_NS6_14EqualsComparerINS0_8equal_toIS5_EEEENS0_9allocatorISA_EEE9SelectKeyESJ_SL_E12test_deletedEj
pno:__ZL82ArrayList_t4252133567_CustomAttributesCacheGenerator_ArrayList_ToArray_m2378888207P21CustomAttributesCache
jil:_InternalEnumerator_1_System_Collections_IEnumerator_Reset_m2042075506_AdjustorThunk
sEf:_Array_InternalArray__get_Item_TisRuntimeObject_m371871810_gshared
Ibm:_HandlerAdapter__ctor_m980062634
dGi:_ValueCollection_System_Collections_Generic_ICollectionU3CTValueU3E_Remove_m3046635745_gshared
K9m:__ZN6il2cpp2vm11MethodStack17GetStackFramesRawEv
kNc:__ZNK5physx15NpActorTemplateINS_7PxClothEE14getOwnerClientEv
syl:_Nullable_1__ctor_m3532149783_AdjustorThunk
gbf:_DateTimeOffset_get_Month_m477218518_AdjustorThunk
Ndd:__ZNK5physx2Gu29EPASupportMapPairRelativeImplINS0_8CapsuleVES2_E9doSupportERKNS_6shdfnd3aos5Vec3VERS6_S9_S9_
Aup:__ZNKSt3__210moneypunctIcLb0EE11do_groupingEv
rT:__ZN13RuntimeStaticINSt3__23mapIN4core12basic_stringIcNS2_20StringStorageDefaultIcEEEES6_NS0_4lessIS6_EE13stl_allocatorINS0_4pairIKS6_S6_EEL18MemLabelIdentifier13ELi16EEEELb0EE13StaticDestroyEPv
hGl:_U3CU3Ec__DisplayClass35_1__ctor_m2622133696_gshared
Dzd:__ZN5physx10SubSortSAH5sort4EPjjRNS_6shdfnd5ArrayINS_11RTreeNodeNQENS2_19ReflectionAllocatorIS4_EEEERjjPS4_
T2o:__ZL61RegexRunnerFactory_t3902733837_CustomAttributesCacheGeneratorP21CustomAttributesCache
Pmi:_TextWriter_Write_m576684782
lk:_glIsVertexArray
i$k:_ReadOnlyCollection_1_System_Collections_IList_set_Item_m1895808841_gshared
spa:__ZN25SingleBlockMemoryFileDataC2E18MemLabelIdentifierPvjb
$ia:__ZN5Unity9Component8TransferI18StreamedBinaryReadILb0EEEEvRT_
yVi:_X509CertificateImplMono_Dispose_m2632469633
ha:invoke_fff
flo:__ZL79Number_t2840369917_CustomAttributesCacheGenerator_Number_ParseInt64_m2718783082P21CustomAttributesCache
vul:_InternalEnumerator_1_System_Collections_IEnumerator_Reset_m2198960685_AdjustorThunk
aEp:b14
mxj:_TlsServerHello_Update_m1740270635
imm:_SR_GetString_m4230392926
nHd:__ZN5physx2Sc7PhysicsC2ERKNS_17PxTolerancesScaleERKNS_14PxvOffsetTableE
clf:_SizedArray_IncreaseCapacity_m113902948
iJd:__ZNSt3__26__sortIRNS_6__lessI24InterpolationDepthHandleS2_EEPS2_EEvT0_S6_T_
QTa:__ZNSt3__26vectorI14SubstanceInputNS_9allocatorIS1_EEE6assignINS_11__wrap_iterIPS1_EEEENS_9enable_ifIXaasr21__is_forward_iteratorIT_EE5valuesr16is_constructibleIS1_NS_15iterator_traitsISA_E9referenceEEE5valueEvE4typeESA_SA_
J7:__ZN6prcoreL12RemapGenericI17TexFormatARGB155517TexFormatRGBA8888EEvPKNS_9InnerInfoE
ZAm:__ZN13Il2CppHashMapIPK19Il2CppGenericMethodPK26Il2CppGenericMethodIndicesN6il2cpp8metadata23Il2CppGenericMethodHashENS7_26Il2CppGenericMethodCompareENSt3__29allocatorINSA_4pairIK10KeyWrapperIS2_ES5_EEEEEC2EjRKS8_RKS9_
RYo:__ZL113XmlSchemaObject_t2050913741_CustomAttributesCacheGenerator_XmlSchemaObject_t2050913741____Namespaces_PropertyInfoP21CustomAttributesCache
JNl:_EqualityComparer_1_CreateComparer_m3311856537_gshared
bpp:_select
_Ee:_MatchCollection_get_Item_m2609281578
YDp:b10
Hfa:__ZN7ApiGLES13CreateProgramEv
uya:__ZN11HaloManager7AddHaloEv
EUj:_FileWebRequest_GetResponse_m1845449278
rQg:_UTF8Encoding__ctor_m100325490
KWl:_ConfigurationPropertyCollection_get_Count_m1518273402
wAo:__ZL100MemberPrimitiveTyped_t3733510915_CustomAttributesCacheGenerator_MemberPrimitiveTyped_Read_m443959971P21CustomAttributesCache
ZYj:_DnsResourceRecord_get_Data_m997834294
N5:__ZN4crnd12crn_unpackerD2Ev
xk:_emscripten_glTexImage2D
DRl:_GenericEqualityComparer_1_Equals_m584501452_gshared
jhj:_ObjRefSurrogate_SetObjectData_m1873902916
DN:__ZN18ScriptingArguments9AddStringEPKc
tln:_setup_header
oOo:__ZL84Encoding_t663144255_CustomAttributesCacheGenerator_Encoding_GetByteCount_m2665418267P21CustomAttributesCache
NSk:_ObjectComparer_1_GetHashCode_m3457243750_gshared
G2k:_ReadOnlyCollection_1_System_Collections_IList_get_IsReadOnly_m1367736517_gshared
tTo:__ZL76GregorianCalendarHelper_t3151146692_CustomAttributesCacheGenerator_m_minYearP21CustomAttributesCache
DAp:runPostSets
Mdd:__ZNK5physx2Gu29EPASupportMapPairRelativeImplINS0_8CapsuleVES2_E18doWarmStartSupportEiiRNS_6shdfnd3aos5Vec3VES7_S7_
q1k:_ReadOnlyCollection_1_System_Collections_Generic_ICollectionU3CTU3E_Clear_m4030020100_gshared
gYl:_ExeConfigurationFileMap_set_RoamingUserConfigFilename_m4034760815
R6:__ZL23stbir__resize_arbitraryPvPKviiiS_iiiffffPfiij14stbir_datatype12stbir_filterS4_10stbir_edgeS5_16stbir_colorspace
pgb:__Z18Transfer_BlittableI24GenerateTypeTreeTransferLb1E8Vector4fEvRK29SerializationCommandArgumentsR31RuntimeSerializationCommandInfo
d9h:_Int16_ToString_m3971652088_AdjustorThunk
$Jg:_InternalDecoderBestFitFallback__ctor_m3639162965
Ik:_pthread_detach
VDe:_CompiledRegexRunner_Go_m1651869127
VQi:_RSAEncryptionPadding_op_Inequality_m1579940368
G6g:_BitSet_Equals_m1218437124
WCe:_X509ExtensionEnumerator_Reset_m3200687545
Nzl:_Predicate_1__ctor_m3174496963_gshared
vLk:_MacOsNetworkInterface__ctor_m4050886866
G4n:__Z39RuntimeInvoker_Guid_t_Int32_t2071877448PFvvEPK10MethodInfoPvPS4_
V8c:__ZN5physx11EdgeManager6resizeEj
qOf:_JapaneseCalendar_EnglishEraNames_m3210390142
egj:_MethodResponse_get_LogicalCallContext_m969541244
hpb:__ZNSt3__213__stable_sortIRN10vector_mapI17ScriptingClassPtrPKN5Unity4TypeENS_4lessIS2_EENS_9allocatorINS_4pairIS2_S6_EEEEE13value_compareENS_11__wrap_iterIPSB_EEEEvT0_SJ_T_NS_15iterator_traitsISJ_E15difference_typeEPNSM_10value_typeEi
vBj:_TypeDescriptor_Refresh_m3055138534
ppg:_AppDomain_DoResourceResolve_m2146739316
jHl:_Tuple_2__ctor_m926017102_gshared
X1k:_ReadOnlyCollection_1_System_Collections_Generic_IListU3CTU3E_Insert_m1932083375_gshared
i$o:__ZL77U3CPrivateImplementationDetailsU3E_t1486305139_CustomAttributesCacheGeneratorP21CustomAttributesCache
Twh:_Array_InternalArray__IndexOf_TisKeyValuePair_2_t3800763530_m2277522106_gshared
d3a:__ZN9ShaderLab25SerializedTextureProperty8TransferI24GenerateTypeTreeTransferEEvRT_
qMj:_DomainNameHelper_IsValidByIri_m2980381439
NLp:_emscripten_glIsShader__wrapper
ITm:__ZN6il2cpp2gc19AppendOnlyGCHashMapINSt3__24pairIPK14Il2CppAssemblyP11Il2CppClassEEP24Il2CppReflectionAssembly17ReflectionMapHashIS9_ENS2_8equal_toIS9_EEEC2Ev
Daj:_ModuleBuilder_GetToken_m3325192999
kLi:_Dictionary_2_FindEntry_m1030622537_gshared
K0:__ZN13GfxDeviceGLES28GetNativeVertexBufferPointerEP9GfxBuffer
OXc:__ZN5physx2Sc5Scene12removeStaticERNS0_10StaticCoreERNS_6shdfnd11InlineArrayIPKNS0_9ShapeCoreELj64ENS4_19ReflectionAllocatorIS8_EEEEb
cPf:_GlobalizationAssembly_GetGlobalizationResourceBytePtr_m1876958574
kka:__ZN11NamedObject8TransferI18StreamedBinaryReadILb0EEEEvRT_
r4i:_AssemblyBuilder_get_IsSave_m3100330618
Cea:__ZNK17GPUSkinPoseBuffer12GetBoneCountEv
Kik:_List_1_RemoveRange_m4110300452_gshared
UHg:_Decoder_Convert_m765272101
uHi:_Dictionary_2_get_Item_m3752893826_gshared
Kmi:_TextWriter_Synchronized_m724223080
wfo:__ZL88BitConverter_t3195628829_CustomAttributesCacheGenerator_BitConverter_ToInt32_m2742027961P21CustomAttributesCache
fil:_InternalEnumerator_1_MoveNext_m3508153682_gshared
TYf:_TimeSpanTokenizer_get_EOL_m513129228
iuk:_EventInfo_get_MemberType_m3337516651
Phn:__ZNSt3__214__split_bufferIPN6il2cpp2os6HandleERNS_9allocatorIS4_EEEC2EjjS7_
Bdf:_Decimal_ToSingle_m2522978387
Q6k:_ReadOnlyCollection_1_System_Collections_IList_set_Item_m2938477003_gshared
j6b:__Z18Transfer_BlittableI8JSONReadLb1EyEvRK29SerializationCommandArgumentsR31RuntimeSerializationCommandInfo
seh:_Socket_Send_internal_m4036039043
hdo:__ZL79Buffer_t3497320070_CustomAttributesCacheGenerator_Buffer__ByteLength_m360392834P21CustomAttributesCache
dl:_emscripten_glMatrixMode
rwf:_Array_InternalArray__set_Item_TisTimeSpanToken_t2031659367_m3296548400_gshared
$Rm:__ZN24dense_hashtable_iteratorINSt3__24pairIK10KeyWrapperINS1_IPK11Il2CppImageP11Il2CppClassEEEjEES9_17ReflectionMapHashIS8_EN14dense_hash_mapIS9_jSD_NS9_14EqualsComparerINS0_8equal_toIS8_EEEENS0_9allocatorISB_EEE9SelectKeyESI_SK_E30advance_past_empty_and_deletedEv
qKo:__ZL93TypeBuilder_t3308873219_CustomAttributesCacheGenerator_TypeBuilder_GetConstructors_m774120094P21CustomAttributesCache
tvd:__ZN5physx13GuMeshFactory17createHeightFieldERNS_13PxInputStreamE
X_c:__ZN5physx2Sc10NPhaseCore25createShapeInstancePairLLERNS0_8ShapeSimES3_NS_7PxFlagsINS_10PxPairFlag4EnumEtEE
hCd:__ZN8Collider11PoseChangedEb
jxi:_Enumerator_System_Collections_IEnumerator_Reset_m2780672158_AdjustorThunk
lgj:_MethodReturnDictionary__ctor_m756139344
OE:__ZN11UnityEngine15CloudWebService14DataDispatcher16PrepareDataBlockERNS0_16SessionContainerE
iga:__ZN18GfxFramebufferGLES5ClearE13GfxClearFlagsRK10ColorRGBAffib
a0c:__ZThn8_N5physx2Sc19ShapeInstancePairLL12onDeactivateEj
iXb:__Z21CalculateClosestPointRK8Vector3fRK4AABBRS_Rf
sJn:__Z111RuntimeInvoker_IntPtr_t_IntPtr_t_Int32_t2071877448_RuntimeObject_RuntimeObject_ResolveTokenErrorU26_t4018645541PFvvEPK10MethodInfoPvPS4_
Mnb:__ZL26Transfer_SimpleNativeClassI18StreamedBinaryReadILb0EE10RectOffsetLb0EEvRK29SerializationCommandArgumentsR31RuntimeSerializationCommandInfo
BTo:__ZL125JapaneseCalendar_t3073160889_CustomAttributesCacheGenerator_JapaneseCalendar_t3073160889____MaxSupportedDateTime_PropertyInfoP21CustomAttributesCache
jAb:__ZL12DepthPassJobPN21GfxDeviceAsyncCommand10ArgScratchEPKNS_3ArgE
E1a:__ZNSt3__26vectorIN9ShaderLab20SerializedSubProgram16TextureParameterENS_9allocatorIS3_EEE6assignINS_11__wrap_iterIPS3_EEEENS_9enable_ifIXaasr21__is_forward_iteratorIT_EE5valuesr16is_constructibleIS3_NS_15iterator_traitsISC_E9referenceEEE5valueEvE4typeESC_SC_
$Pi:_RIPEMD160Managed_H_m170966261
G1b:__ZN5Unity9rapidjson6WriterI16TempBufferWriterNS0_4UTF8IcEES4_13JSONAllocatorE11WriteDoubleEd
aci:_IntPtr_Equals_m1214967011_AdjustorThunk
pyk:_MonoMethod_GetParametersInternal_m1326801497
GVl:_ElementInformation_get_Type_m891870314
dBd:__ZN9Rigidbody16ApplyConstraintsEv
pba:__ZN14GfxDeviceStats16CopyAllDrawStatsERKS_
jQb:__Z13RegisterClassI19LowerResBlitTextureEvv
x5g:_AxisElement_get_CurNode_m1289686956
S3j:_BrowsableAttribute_GetHashCode_m2898709353
hn:FUNCTION_TABLE_iiiiiiiiiiii
DQk:_List_1_set_Capacity_m2203381108_gshared
Kmj:___BinaryWriter_WriteString_m306872279
ETc:__ZN5physx2Sc17ParticleSystemSim8setFlagsEj
Fxa:__ZN16GraphicsSettingsD0Ev
bNb:__Z29StdTemplateConversionFunctionIshEbPvR14SafeBinaryRead
_3g:_IncrementalReadDummyDecoder_Decode_m815883776
eqe:_XdrEndChildFunction__ctor_m3910183627
qSg:_CancellationToken_ThrowOperationCanceledException_m1344971960
Qqf:_RuntimeType_IsSubclassOf_m3530900029
n:cttz_i8
V9f:_Position_t1796812729_marshal_pinvoke_cleanup
Tnp:_uselocale
vyd:__ZN5physx2Gu15EdgeListBuilder18CreateEdgesToFacesEjPKjPKt
Mic:__ZN5physx11PxMeshQuery5sweepERKNS_6PxVec3EfRKNS_10PxGeometryERKNS_11PxTransformEjPKNS_10PxTriangleERNS_10PxSweepHitENS_7PxFlagsINS_9PxHitFlag4EnumEtEEPKjfb
xGl:_FromAsyncTrimPromise_1_Complete_m615706742_gshared
p3i:_ConstructorInfo_op_Equality_m4147632914
XKe:_RegexInterpreter_StackPeek_m4294822454
QGj:_StandardValuesCollection_System_Collections_ICollection_CopyTo_m2336033813
bqp:__ZNSt3__215basic_streambufIcNS_11char_traitsIcEEED2Ev
aTf:_DateTimeFormatInfo_get_FullDateTimePattern_m2607507656
Gxj:_HttpsClientStream_RaiseServerCertificateValidation_m3356770426
Aff:_DelegateSerializationHolder__ctor_m3915060553
UTa:__ZN14SubstanceInput22CopyFromSubstanceInputERKS_
$l:_emscripten_glViewport
Kdp:__ZL105Rigidbody_t4233889191_CustomAttributesCacheGenerator_Rigidbody_INTERNAL_CALL_AddExplosionForce_m819760102P21CustomAttributesCache
Ygn:__ZN6il2cpp6icalls8mscorlib6System15MonoCustomAttrs17IsDefinedInternalEP12Il2CppObjectP20Il2CppReflectionType
jAa:__ZN4Mesh21UnswizzleVertexColorsEb
rnk:_List_1_Reverse_m3856304327_gshared
IX:__ZN30dense_hashtable_const_iteratorINSt3__24pairIKN4core12basic_stringIcNS2_20StringStorageDefaultIcEEEEP11AssetBundleEES6_20StringHash32FunctionIS6_EN14dense_hash_mapIS6_S9_SC_NS0_8equal_toIS6_EENS0_9allocatorISA_EEE9SelectKeyESF_SH_EppEv
pEf:_Array_InternalArray__get_Item_TisWin32_IP_ADAPTER_ADDRESSES_t680756680_m468407178_gshared
Gnl:_InternalEnumerator_1__ctor_m4150855019_gshared
J9e:_DateTime_ToString_m2276663647_AdjustorThunk
uAe:_XmlSchemaImport_AddAnnotation_m3767844677
ADd:__ZThn28_N14PhysicsManagerD0Ev
lmd:__ZN5physx2Sc27ConstraintProjectionManagerC2Ev
lni:_NullTextWriter_WriteLine_m3840428910
_jc:__Z14raycast_sphereRKN5physx10PxGeometryERKNS_11PxTransformERKNS_6PxVec3ES8_fNS_7PxFlagsINS_9PxHitFlag4EnumEtEEjPNS_12PxRaycastHitEbPFbRSD_PvESG_
JJl:_UnityAction_1_BeginInvoke_m1322244454_gshared
tqk:_MethodInfo_op_Equality_m2548772083
U3j:_BrowsableAttribute__cctor_m3377205821
lWa:__ZN14PlayerSettings23VirtualRedirectTransferER18StreamedBinaryReadILb0EE
k3d:_XmlNodeReaderNavigator_get_IsEmptyElement_m4019578910
mVo:__ZL85XmlConvert_t1936105738_CustomAttributesCacheGenerator_XmlConvert_ToString_m2254328852P21CustomAttributesCache
Ank:_List_1__ctor_m2102724357_gshared
SNd:__ZN11UnityEngine15PlatformWrapper16GetVRFieldOfViewEv
Fvf:_Array_InternalArray__set_Item_TisCipherSuiteCode_t4229451518_m449273295_gshared
$4j:_KeyValuePair_2__ctor_m3201181706_AdjustorThunk
oEp:_emscripten_glVertexAttrib4f__wrapper
Frn:__ZN6il2cpp2os5Event5ResetEv
BFb:__Z26CombineDepthNormalsTextureRK17RenderLoopContextR13dynamic_arrayI16RenderObjectDataLj4EE
rtm:__ZL25UnresolvedVirtualCall_261P12Il2CppObject6Guid_tPK10MethodInfo
Gmm:_AesManaged__ctor_m2322442838
f6m:__ZN6il2cpp8metadata15GenericMetadata17InflateParametersEPK13ParameterInfohPK20Il2CppGenericContextb
AQf:_CultureData_AbbrevEraNames_m342532578
JO:__ZN18AwakeFromLoadQueue28InvokePersistentManagerAwakeEPNS_4ItemEj17AwakeFromLoadMode
Ava:__ZN6Camera13AwakeFromLoadE17AwakeFromLoadMode
ZZm:__ZNSt3__215basic_stringbufIcNS_11char_traitsIcEENS_9allocatorIcEEE7seekposENS_4fposI11__mbstate_tEEj
ZNi:_HMACSHA512__ctor_m2390736870
zPe:_UriTypeConverter_ConvertTo_m507771013
frd:__ZNK5physx2Cm12DelegateTaskINS_2Sc5SceneEXadL_ZNS3_23postIslandGenSecondPassEPNS_10PxBaseTaskEEEE7getNameEv
bIj:_WeakHashtable_Remove_m1216836883
lka:__ZN4PPtrI6SpriteE8TransferI18StreamedBinaryReadILb0EEEEvRT_
mxo:__ZL81HMACSHA512_t653426285_CustomAttributesCacheGenerator_HMACSHA512__ctor_m1667460019P21CustomAttributesCache
cSi:_SHA256Managed_SHATransform_m703447930
S4i:_AssemblyBuilder_Equals_m748654099
rxm:_Physics_INTERNAL_CALL_RaycastAll_m4140523409
lMj:_XmlWriterTraceListener_Close_m884004568
usk:_TypeBuilder_GetInterfaces_m1818658502
s4g:_ReadContentAsBinaryHelper_Reset_m515987166
o7l:_TlsException_get_Alert_m4022765752
CBi:_KeyCollection_System_Collections_Generic_IEnumerableU3CTKeyU3E_GetEnumerator_m1803332559_gshared
xTo:__ZL65GregorianCalendarTypes_t3080789929_CustomAttributesCacheGeneratorP21CustomAttributesCache
Fsb:__Z25SetNeedToPerformRenderingb
MLh:_XsdBuilder_InitAttributeGroup_m3011870138
bHf:_Array_InternalArray__IReadOnlyList_get_Item_TisNamespace_t1808381789_m688683393_gshared
Dyk:_MonoMethod_GetPseudoCustomAttributes_m466965107
IFi:_ValueCollection_System_Collections_Generic_IEnumerableU3CTValueU3E_GetEnumerator_m1604400448_gshared
rbg:_SchemaCollectionCompiler_IsValidOccurrenceRangeRestriction_m1388530944
Yqa:__ZN10GameObjectD2Ev
yAb:__ZN14qsort_internal30FindAndMovePivotToLastPositionIP15RODataDepthPassi17ROSorterDepthPassEEvT_S4_T0_T1_
sgn:__ZN6il2cpp6icalls8mscorlib6System9Threading11Interlocked4ReadEPx
bhj:_MonoMethodMessage_System_Runtime_Remoting_Messaging_IInternalMessage_get_TargetIdentity_m1576511701
ITi:_TripleDES_IsLegalKeySize_m2086415675
Oyi:_Enumerator_System_Collections_IDictionaryEnumerator_get_Value_m3005608231_gshared
_om:__ZL24UnresolvedVirtualCall_26P12Il2CppObjectS0_iiPK10MethodInfo
Pcd:__ZN5physxL27PxcSweepAnyShapeHeightfieldERKNS_11PxsCCDShapeES2_PKNS_12PxsRigidBodyES5_RKNS_11PxTransformES8_fRNS_6PxVec3ESA_RNS_10PxcNpCacheERNS_18PxcNpThreadContextE
Jlf:_StreamingContext_get_State_m4191542657
MXo:__ZL115XmlSchemaElement_t2433337156_CustomAttributesCacheGenerator_XmlSchemaElement_t2433337156____IsAbstract_PropertyInfoP21CustomAttributesCache
oIb:__ZN12CullingGroup10SendEventsEPK17CullingGroupEventj
Uhg:_DSAManaged_GenerateKeyPair_m2711647034
Y1e:_ConsoleKeyInfo_GetHashCode_m1224354212_AdjustorThunk
kjk:_List_1_AddRange_m1853630153_gshared
SMk:_Win32IPAddressCollection_AddSubsequentlyString_m1145585782
HLa:__ZThn32_NK8Renderer8GetLayerEv
V7c:__ZN5physx3Scb5SceneD2Ev
PXj:_CFObject_CFRelease_m1226048150
jOm:__ZNSt3__26vectorIiNS_9allocatorIiEEEC2ERKS3_
b5m:__ZN30dense_hashtable_const_iteratorINSt3__24pairIK10KeyWrapperINS1_IPKcS4_EEEiEES6_24NamespaceAndNamePairHashN14dense_hash_mapIS6_iS9_NS6_14EqualsComparerI26NamespaceAndNamePairEqualsEENS0_9allocatorIS8_EEE9SelectKeyESD_SF_E30advance_past_empty_and_deletedEv
hkj:_SoapServices_GetXmlTypeForInteropType_m3821579913
BJp:_emscripten_glTexParameterfv__wrapper
oei:_CStreamWriter__ctor_m3503007590
rkh:_WebProxyWrapperOpaque_get_Credentials_m3950027267
zab:__Z18Transfer_BlittableI14SafeBinaryReadLb1E9BoundsIntEvRK29SerializationCommandArgumentsR31RuntimeSerializationCommandInfo
p8h:__Z30il2cpp_codegen_resolve_pinvokeIPFiiELj67ELj17EET_RAT0__KcRAT1__S3_20Il2CppCallConvention13Il2CppCharSetib
KMm:_il2cpp_method_get_param_count
vYb:__ZN10systeminfo19ISOToSystemLanguageERN4core12basic_stringIcNS0_20StringStorageDefaultIcEEEE
cMo:__ZL112PinnedBufferMemoryStream_t2421662467_CustomAttributesCacheGenerator_PinnedBufferMemoryStream_Dispose_m3675891338P21CustomAttributesCache
ASm:__ZNK15dense_hashtableINSt3__24pairIK10KeyWrapperINS1_IPK12PropertyInfoP11Il2CppClassEEEjEES9_17ReflectionMapHashIS8_EN14dense_hash_mapIS9_jSD_NS9_14EqualsComparerINS0_8equal_toIS8_EEEENS0_9allocatorISB_EEE9SelectKeyESI_SK_E3endEv
GEn:__Z69RuntimeInvoker_Boolean_t3825574718_Int32_t2071877448_SByte_t454417549PFvvEPK10MethodInfoPvPS4_
nBd:__Z16GetDynamicsScenev
fzg:_FileCodeGroup_Equals_m3005398378
g$c:__ZThn8_N5physx2Sc18TriggerInteraction7destroyEv
ATh:_TaskFactory__ctor_m3843810638
w9f:_ParticleContentValidator_AddName_m2978445613
uli:_NullStreamReader_ReadBuffer_m584963299
nDi:_KeyCollection_System_Collections_ICollection_CopyTo_m3621560325_gshared
hwf:_Array_InternalArray__set_Item_Tisbucket_t976591655_m962894396_gshared
u0h:_Tuple_CombineHashCodes_m3512177706
STa:__ZN14SubstanceInputD2Ev
PZm:__ZN6il2cpp6icalls8mscorlib6System7Runtime15InteropServices7Marshal17GetLastWin32ErrorEv
Ksg:_String_IndexOfUnchecked_m3356721554
xKa:__ZN16LightmapSettings8TransferI14SafeBinaryReadEEvRT_
zwk:_Module_get_ModuleVersionId_m2754771539
dZ:__ZN17BufferManagerGLES13ReleaseBufferEP14DataBufferGLES
Usi:_ArraySegment_1_System_Collections_Generic_IListU3CTU3E_get_Item_m2541481689_gshared
Esc:__ZN5physx6shdfnd5ArrayIPvNS0_19ReflectionAllocatorINS_16NpConnectorArrayEEEE15growAndPushBackERKS2_
ybl:_RegistryKey_GetValue_m2967641165
d_c:__ZN5physx2Sc5Scene15prepareSimulateEv
hHj:__ZN21InterfaceFuncInvoker0IP24TypeConverter_t745995970E6InvokeEjP11Il2CppClassP12Il2CppObject
zBp:dynCall_dii
g6b:__Z18Transfer_BlittableI8JSONReadLb1EjEvRK29SerializationCommandArgumentsR31RuntimeSerializationCommandInfo
iuc:__ZN5physx6shdfnd5ArrayIPNS_2Sc11InteractionENS0_19ReflectionAllocatorIS4_EEE8recreateEj
yCk:_TypeDelegator_IsDefined_m2211493698
KPk:_List_1_System_Collections_Generic_ICollectionU3CTU3E_get_IsReadOnly_m3712867040_gshared
Yyf:_Array_qsort_TisUInt16_t986882611_TisRuntimeObject_m322728296_gshared
ume:_XmlSchemaAttribute_get_AttDef_m1941772802
Uhl:_InternalEnumerator_1__ctor_m1918766407_gshared
Tih:_WebHeaderCollection_ToString_m1246460752
Znl:_InternalEnumerator_1_System_Collections_IEnumerator_get_Current_m2842514953_AdjustorThunk
U0g:_XPathScanner_get_StringValue_m3345575405
r5d:_XmlReader_get_SchemaInfo_m2886262078
qHg:_ASCIIEncoding_GetBytes_m3649277167
qVi:_X509CertificateImplMono_GetRawCertData_m408096895
Fp:stackSave
qqp:__ZNSt3__213basic_istreamIcNS_11char_traitsIcEEED1Ev
aQd:__ZN5Unity9rapidjson15GenericDocumentINS0_4UTF8IcEE13JSONAllocatorNS0_12CrtAllocatorEE6StringEPKcjb
gbm:_X509CrlEntry_get_Extensions_m79989256
MPi:_RijndaelManagedTransform_rot2_m2920014005
UKm:__ZNSt3__213__vector_baseIP20Il2CppInternalThreadNS_9allocatorIS2_EEED2Ev
$1o:__ZL97SimpleResolverEventArgs_t4294564137_CustomAttributesCacheGenerator_U3CHostEntryU3Ek__BackingFieldP21CustomAttributesCache
l9a:__ZN16MemoryFileSystem5TouchER13FileEntryData
d6m:__ZNK15dense_hashtableI10KeyWrapperIP18Il2CppGenericClassES3_N6il2cpp8metadata22Il2CppGenericClassHashEN14dense_hash_setIS3_S6_NS3_14EqualsComparerINS5_25Il2CppGenericClassCompareEEENSt3__29allocatorIS3_EEE8IdentityESA_SD_E12test_deletedERK30dense_hashtable_const_iteratorIS3_S3_S6_SF_SA_SD_E
Wzm:__ZN6il2cpp2vm5Class14GetNestedTypesEP11Il2CppClassPPv
XKd:__Z63Register_UnityEngine_Physics_INTERNAL_CALL_Internal_RaycastTestv
SAm:_flush_pending
sOi:_MACTripleDES_Initialize_m1318099802
ySe:_Byte_System_IConvertible_ToChar_m4188836679
WZi:_NumberFormatter_InitDecHexDigits_m2036076025
hto:__ZL98StackGuard_t1348285595_CustomAttributesCacheGenerator_StackGuard_TryBeginInliningScope_m2310698064P21CustomAttributesCache
EZm:__ZN6il2cpp6icalls8mscorlib6System7Runtime15InteropServices7Marshal17copy_to_unmanagedEP11Il2CppArrayiii
QJb:__ZN6Camera9SetAspectEf
IMc:__ZN5physx6shdfnd8internal8HashBaseIPNS_7PxActorES4_NS0_4HashIS4_EENS1_11HashSetBaseIS4_S6_NS0_9AllocatorELb0EE6GetKeyES8_Lb0EE6createERKS4_Rb
lRg:_AtomicBoolean_Equals_m3116298955
Alp:_UpdateManager_get_MovementUpdater_m2185913043
npj:_Kernel_modInverse_m3230829577
I4h:_UInt32_TryParse_m3987111861
Dmk:_List_1__ctor_m813453564_gshared
d_o:__ZL95MonoTlsSettings_t302829305_CustomAttributesCacheGenerator_U3CEnabledProtocolsU3Ek__BackingFieldP21CustomAttributesCache
cLp:_emscripten_glBindVertexArray__wrapper
ELg:_DefaultEncoder_GetByteCount_m830905742
DXd:_XmlDocument_set_LastNode_m1311808088
zs:__ZN10ObjectPoolIN4FMOD3DSPENS0_4DSPIEE7GetFreeEi
Yra:__ZN9Transform37InitializeTransformHierarchyRecursiveER18TransformHierarchyRii
zRb:__Z34DefaultPrepareDispatchBoundsUpdateR13RendererScene18MemLabelIdentifier
$fa:__ZN26SinglePassStereoSupportExt23SetupStereoMatrixParamsE21MonoOrStereoscopicEye24BuiltinShaderMatrixParamRK10Matrix4x4f
upo:__ZL94Thread_t241561612_CustomAttributesCacheGenerator_Thread_GetMutableExecutionContext_m2112077705P21CustomAttributesCache
hkp:_GameManager_OnDisable_m2643566425
ERh:_XmlAttributeCollection_RemoveParentFromElementIdAttrMap_m1406961767
ihf:_ObjectMapInfo__ctor_m3241113383
d1n:__Z61RuntimeInvoker_Int32_t2071877448_LowerCaseMapping_t2153935826PFvvEPK10MethodInfoPvPS4_
rgl:_ModulusRing_Pow_m1137250399
OC:__Z46AudioListener_CUSTOM_GetNumExtensionPropertiesP12Il2CppObject
Rnh:_X509Chain_Build_m2341271288
tbg:_SchemaCollectionCompiler_IsValidOccurrenceRangeRestriction_m209159872
oza:__ZN17MeshRenderingData4InitEP4MeshS1_iP15SharedGfxBufferS3_
Dtj:_CipherSuite_get_HashAlgorithmType_m3902365773
glh:_OidCollection_get_Item_m1091387424
KRl:_GenericEqualityComparer_1_GetHashCode_m556330853_gshared
Lbm:_AttrListImpl_get_Length_m1949913287
oDl:_TaskAwaiter_1__ctor_m4174446952_AdjustorThunk
VEa:__ZN19ShaderPropertySheet38CopyTextureWithAuxiliaryPropertiesFromERKN9ShaderLab16FastPropertyNameERKS_
BCe:_X509ChainStatus__ctor_m3628359961_AdjustorThunk
UWa:__ZN10VRSettings8TransferI19StreamedBinaryWriteILb0EEEEvRT_
iZc:__ZN5physx2Sc9StaticSim21postActor2WorldChangeEv
qFf:_Array_InternalArray__IReadOnlyList_get_Item_TisTableRange_t2011406615_m404539143_gshared
Jdb:__ZN15SerializeTraitsI13dynamic_arrayIN4math12int3_storageELj4EEE19ResizeSTLStyleArrayERS3_i
Dyg:_Evidence_get_HostEvidenceList_m2095478124
_be:_XmlTextReaderImpl_get_DtdParserProxy_ParsingBufferLength_m699769787
i0b:__Z57Register_UnityEngine_Transform_INTERNAL_set_localPositionv
tTg:_ExecutionContext_get_PreAllocatedDefault_m3905001275
vuj:_Context_Clear_m4000337070
Pog:_AppDomain_t2719102437_marshal_pinvoke_cleanup
_0:__ZN13GfxDeviceGLES26SetRandomWriteTargetBufferEi15ComputeBufferID
sln:_GC_split_block
Xvb:__ZZ23InitPlayerLoopCallbacksvEN49EarlyUpdateResetFrameStatsAfterPresentRegistrator7ForwardEv
jFc:__ZN5physx6shdfnd4sortIPvNS0_4LessIS2_EENS0_19ReflectionAllocatorINS_2Cm5BlockIhLj256EEEEEEEvPT_jRKT0_RKT1_j
d9o:__ZL77Object_t1021602117_CustomAttributesCacheGenerator_Object_get_name_m3369637820P21CustomAttributesCache
q4i:_AssemblyBuilder__ctor_m1611900080
zhi:_Stream_BeginRead_m1985960185
kZl:_ProviderSettings_get_Parameters_m1237896802
xQh:_ValidateNames_ParseNmtokenNoNamespaces_m1171727316
iwd:__ZN5physx20InternalTriangleMesh7releaseEv
ubd:__ZN5physx6shdfnd5ArrayINS_16PxsCCDBlockArrayINS_13PxsCCDOverlapELi128EE9BlockInfoENS0_19ReflectionAllocatorIS5_EEE15growAndPushBackERKS5_
xvc:__ZNK5physx7NpShape8getFlagsEv
dYb:__ZNK11ICallString6ToUTF8Ev
Zym:__ZN15dense_hashtableINSt3__24pairIK10KeyWrapperIPK22Il2CppGenericParameterEP11Il2CppClassEES6_N6il2cpp5utils11PointerHashIS4_EEN14dense_hash_mapIS6_S9_SE_NS6_14EqualsComparerINS0_8equal_toIS5_EEEENS0_9allocatorISA_EEE9SelectKeyESJ_SL_E15insert_noresizeERKSA_
yjn:_GC_number_stack_black_listed
b4m:__ZN24dense_hashtable_iteratorINSt3__24pairIK10KeyWrapperIP14Il2CppIUnknownEjEES5_N6il2cpp5utils11PointerHashIS3_EEN14dense_hash_mapIS5_jSB_NS5_14EqualsComparerINS0_8equal_toIS4_EEEENS0_9allocatorIS7_EEE9SelectKeyESG_SI_E30advance_past_empty_and_deletedEv
zAb:__ZNSt3__211__sift_downIR17ROSorterDepthPassP15RODataDepthPassEEvT0_S5_T_NS_15iterator_traitsIS5_E15difference_typeES5_
YYh:_TimeSpan_GetLegacyFormatMode_m2657436957
SWc:__ZN5physx19NpRigidBodyTemplateINS_14PxRigidDynamicEE25setMassSpaceInertiaTensorERKNS_6PxVec3E
XOc:__ZNK5physx7NpCloth16getContactOffsetEv
GFh:_XmlSchemaObjectCollection_get_Item_m971890469
bS:__ZN12FileAccessor4ReadEyyPvPy
_Ea:__ZN13dynamic_arrayI16ShaderKeywordSetLj4EE6insertEPS0_PKS0_S4_
Uob:__Z29Transfer_Blittable_ArrayFieldI18StreamedBinaryReadILb0EE11QuaternionfEvRT_R9ArrayInfoRK23StaticTransferFieldInfo
ZGm:__ZNSt3__26vectorIN6il2cpp2os11PollRequestENS_9allocatorIS3_EEE26__swap_out_circular_bufferERNS_14__split_bufferIS3_RS5_EE
YZe:_SyncHashtable_Contains_m3042906549
P9l:_X509Certificate_get_KeyAlgorithmParameters_m1701675565
pEe:_GroupCollection_GetGroupImpl_m2367410259
gYb:__Z21GetSceneHierarchyPathPK6Object
X8b:__ZN11UnityEngine9Analytics18RenderingInfoEvent13SetFrameStatsERK13dynamic_arrayIjLj4EEjjj
lDe:_X509KeyUsageExtension_CopyFrom_m931530012
$Qn:__Z140RuntimeInvoker_Void_t1841601450_Int32_t2071877448_Int32_t2071877448_RuntimeObject_RuntimeObject_RuntimeObject_RuntimeObject_SByte_t454417549PFvvEPK10MethodInfoPvPS4_
qJb:__ZN13RenderTexture9SetHeightEi
_qp:__ZNKSt3__27collateIcE7do_hashEPKcS3_
vme:_SchemaInfo_GetAttributeXsd_m4104047790
r$j:_LegacySslStream_SetLength_m218639622
_Pn:__Z172RuntimeInvoker_Void_t1841601450_RuntimeObject_RuntimeObject_RuntimeObject_RuntimeObject_Int32_t2071877448_Int32_t2071877448_SByte_t454417549_RuntimeObject_Int32_t2071877448PFvvEPK10MethodInfoPvPS4_
bCa:__ZN16LevelGameManager8TransferI24GenerateTypeTreeTransferEEvRT_
kdm:_Camera_RaycastTry_m1340638805
v1o:__ZL53DnsType_t1822475631_CustomAttributesCacheGenerator_MBP21CustomAttributesCache
LBf:_Array_swap_TisUInt16_t986882611_TisRuntimeObject_m3972443262_gshared
GAe:_XmlSchemaInfo_get_SchemaAttribute_m2335366266
E4d:_XmlParserContext_get_NameTable_m1336186339
K$m:__ZN6il2cpp6icalls8mscorlib6System2IO6MonoIO17GetFileAttributesEP12Il2CppStringPi
UPe:_BadImageFormatException__ctor_m189925251
hro:__ZL110SemaphoreSlim_t461808439_CustomAttributesCacheGenerator_SemaphoreSlim_WaitUntilCountOrTimeoutAsync_m2689024279P21CustomAttributesCache
yUh:_Thread_Start_m1813847092
fkh:_WebRequest_GetResponse_m665752724
Gaj:_ModuleBuilderTokenGenerator__ctor_m1041652642
nHh:_XmlSchemaSimpleType__ctor_m1537349410
bO:__Z24scripting_class_get_name17ScriptingClassPtr
Uxg:_CodeGroup_set_Name_m4201618007
LT:__ZN13RuntimeStaticI15GUIEventManagerLb0EE13StaticDestroyEPv
nen:__ZN6il2cpp2os6Thread15CurrentThreadIdEv
qcb:__Z29Transfer_Blittable_ArrayFieldI14SafeBinaryReadjEvRT_R9ArrayInfoRK23StaticTransferFieldInfo
H6f:_FacetsCompiler_CompileTotalDigitsFacet_m1855480163
Uwn:__Z115RuntimeInvoker_TransitionTime_t3441274853_DateTime_t693205669_Int32_t2071877448_Int32_t2071877448_Int32_t2071877448PFvvEPK10MethodInfoPvPS4_
ve:_emscripten_set_keydown_callback
Tmk:_List_1_Add_m2342465036_gshared
Nsa:__ZN19StreamedBinaryWriteILb0EE21TransferSTLStyleArrayINSt3__26vectorI17SortingLayerEntryNS2_9allocatorIS4_EEEEEEvRT_17TransferMetaFlags
$3k:_ReadOnlyCollection_1_System_Collections_IList_Remove_m1743441024_gshared
H4h:_UInt32_Parse_m3371984903
jS:__ZN12FileAccessorC2Ev
oog:_AggregateException__ctor_m3926613958
U6k:_ReadOnlyCollection_1_System_Collections_IList_Contains_m653795521_gshared
e3h:_TypeInitializationException_GetObjectData_m2244451030
aAc:__ZN5physx2Sc15ArticulationSim12applyImpulseERNS0_8BodyCoreERKNS_9PxcFsDataERKNS_6PxVec3ES9_
Scf:_Decimal_SetBits_m3810804873_AdjustorThunk
eWc:__ZNK5physx22NpParticleBaseTemplateINS_16PxParticleSystemENS_16NpParticleSystemEE7getTypeEv
X2g:_DtdParser_ScanEntity1_m1146682767
oWj:__Z30il2cpp_codegen_resolve_pinvokeIPFiiiPiELj91ELj47EET_RAT0__KcRAT1__S4_20Il2CppCallConvention13Il2CppCharSetib
Joe:_GroupContent_Copy_m2640520710
OCk:_FastResourceComparer_Compare_m3381755008
B1g:__ZN21InterfaceFuncInvoker0IP13Uri_t19570940E6InvokeEjP11Il2CppClassP12Il2CppObject
DUa:__ZNK12InputManager22GetTypeVirtualInternalEv
ms:__ZN4PPtrI13MonoBehaviourE8TransferI18StreamedBinaryReadILb0EEEEvRT_
tCl:_ConfiguredTaskAwaiter_OnCompleted_m2459719248_AdjustorThunk
FOk:_List_1__ctor_m3727140977_gshared
wRg:_CancellationCallbackInfo_ExecuteCallback_m3006815233
Xdp:__ZL54Tile_t429716126_CustomAttributesCacheGenerator_m_ColorP21CustomAttributesCache
DVn:__Z87RuntimeInvoker_RuntimeObject_RuntimeObject_ByteU5BU5DU26_t790777611_Int32U26_t455636984PFvvEPK10MethodInfoPvPS4_
vzc:__ZNK5physx14NpArticulation26getInternalDriveIterationsEv
TRe:_Buffer_memcpy1_m1506866016
Z0d:_XmlNamedNodeMap_SetNamedItem_m2980350708
bdj:_AsyncResult_WaitCallback_Context_m1545393385
Ske:_SchemaElementDecl_set_IsAbstract_m83976835
pWe:_IListWrapper_Sort_m1904785638
s$j:_LegacySslStream_Write_m31859846
kWl:_ConfigurationProperty_ConvertFromString_m661781545
EIn:__Z52RuntimeInvoker_Int32_t2071877448_GuidU26_t2733710639PFvvEPK10MethodInfoPvPS4_
uhe:_XPathNavigator_get_UnderlyingObject_m1091268218
nxp:__ZNSt3__26locale5facetD0Ev
HCo:__ZL62WellKnownObjectMode_t2630225581_CustomAttributesCacheGeneratorP21CustomAttributesCache
qCl:_ConfiguredTaskAwaiter_get_IsCompleted_m1244481799_gshared
Y8n:__Z69RuntimeInvoker_ConfiguredTaskAwaitable_1_t3828864811_SByte_t454417549PFvvEPK10MethodInfoPvPS4_
Ovm:__ZN6il2cpp6icalls8mscorlib6System7Decimal11FCallAddSubEP13Il2CppDecimalS5_h
Nnf:_SerializationException__cctor_m1414507471
ATl:_ConfigurationFileMap__ctor_m3731838539
dwh:_Array_IndexOf_TisRuntimeObject_m214763038_gshared
gre:_XmlAnyConverter_ChangeTypeWildcardSource_m539654541
ytb:__ZN13RenderManager22OnWindowSizeHasChangedEv
C3n:__Z79RuntimeInvoker_Void_t1841601450_Int32_t2071877448_ParameterModifier_t1820634920PFvvEPK10MethodInfoPvPS4_
Tqb:__Z39WriteQueueForTransferSignatureIntoCacheRK31TransferFunctionScriptingTraitsRK24TransferRequestSignature17ScriptingClassPtrR23CachedSerializationDataRb
lNc:__ZN5physx15NpActorTemplateINS_7PxClothEE22setClientBehaviorFlagsENS_7PxFlagsINS_25PxActorClientBehaviorFlag4EnumEhEE
xmf:_ObjectIDGenerator_GetId_m2773988387
Obk:_List_1_System_Collections_IList_set_Item_m1346264815_gshared
xNd:__ZN22BaseUnityConnectClient30OnEnteringStatePausedOrStoppedEv
bQl:_EqualityComparer_1_System_Collections_IEqualityComparer_GetHashCode_m3835598685_gshared
zVn:__Z41RuntimeInvoker_HttpStatusCode_t1898409641PFvvEPK10MethodInfoPvPS4_
jSm:__ZN15dense_hashtableINSt3__24pairIK10KeyWrapperINS1_IPK12PropertyInfoP11Il2CppClassEEEjEES9_17ReflectionMapHashIS8_EN14dense_hash_mapIS9_jSD_NS9_14EqualsComparerINS0_8equal_toIS8_EEEENS0_9allocatorISB_EEE9SelectKeyESI_SK_E12resize_deltaEjj
O3j:_BooleanConverter__ctor_m185966639
nMj:_DomainNameHelper_IsValid_m2345196008
ICn:__Z78RuntimeInvoker_UInt16_t986882611_RuntimeObject_Int32_t2071877448_RuntimeObjectPFvvEPK10MethodInfoPvPS4_
Osh:_Array_QSortArrange_TisInt32_t2071877448_m4189769361_gshared
Cra:__Z24MergeTransformComponentsR9TransformS0_b
_7o:__ZL98DebugLogHandler_t865810509_CustomAttributesCacheGenerator_DebugLogHandler_Internal_Log_m3333167788P21CustomAttributesCache
g8f:_ListFacetsChecker_MatchEnumeration_m3209879075
avc:__ZThn24_N5physx2Sc20ArticulationJointSimD0Ev
u_n:__Z71RuntimeInvoker_Void_t1841601450_U3CGetEntityAsyncU3Ed__0U26_t4221999302PFvvEPK10MethodInfoPvPS4_
tie:_XmlSchemaException__ctor_m2443011911
KPn:__Z100RuntimeInvoker_RuntimeObject_Int16_t4041245914_Int32_t2071877448_Int32_t2071877448_Int32_t2071877448PFvvEPK10MethodInfoPvPS4_
hEd:__ZN14PhysicsManager32AddToTriggerStayStatesIfRequiredEPK9Rigidbody
QYo:__ZL109XmlSchemaObject_t2050913741_CustomAttributesCacheGenerator_XmlSchemaObject_t2050913741____Parent_PropertyInfoP21CustomAttributesCache
nji:_MonoIO_get_PathSeparator_m2635828107
tkj:_TypeInfo_get_TypeName_m1722081275
Q7f:_KeySequence_Equals_m1887835851
VRf:_CultureInfo__cctor_m2290268677
WLo:__ZL92SearchResult_t1786685673_CustomAttributesCacheGenerator_SearchResult_get_FindData_m734975497P21CustomAttributesCache
WEg:_String_Trim_m3982520224
gpc:__ZN5physx14PxsAABBManager12createBPElemEv
AKn:__Z55RuntimeInvoker_RuntimeObject_MonoIOErrorU26_t1029615899PFvvEPK10MethodInfoPvPS4_
nuh:_Array_InternalArray__IEnumerable_GetEnumerator_TisDS_t769197341_m2778180849_gshared
Mjj:_RemotingConfiguration__cctor_m2129988840
XLc:__ZThn12_N5physx7NpShape14onRefCountZeroEv
Fzf:_Array_Sort_TisDateTimeOffset_t1362988906_m3648627883_gshared
mbc:__ZL26GeomMTDCallback_ConvexMeshRN5physx6PxVec3ERfRKNS_10PxGeometryERKNS_11PxTransformES5_S8_
FNe:_Uri__ctor_m1528033823
nWm:__ZN6il2cpp2vm10Reflection19SetMonoAssemblyNameEPK14Il2CppAssemblyPK22Il2CppMonoAssemblyName
QTo:__ZL121TaiwanCalendar_t2121259800_CustomAttributesCacheGenerator_TaiwanCalendar_t2121259800____MinSupportedDateTime_PropertyInfoP21CustomAttributesCache
_gn:__ZN6il2cpp2vm13ComObjectBase19GetRuntimeClassNameEPP15Il2CppHString__
Wnb:__Z35Transfer_Blittable_FixedBufferFieldI18StreamedBinaryReadILb0EEyEvRK29SerializationCommandArgumentsR31RuntimeSerializationCommandInfo
BFc:__ZN5physx15NpActorTemplateINS_18PxArticulationLinkEE22setClientBehaviorFlagsENS_7PxFlagsINS_25PxActorClientBehaviorFlag4EnumEhEE
jk:_emscripten_glVertexAttribPointer
nwo:__ZL54CryptoConfig_t896479599_CustomAttributesCacheGeneratorP21CustomAttributesCache
PYa:__ZN14PreloadManager26UpdatePreloadingSingleStepENS_21UpdatePreloadingFlagsEi
m9n:__ZL75U3CDaylightNameU3Ee__FixedBuffer_t1584034510_CustomAttributesCacheGeneratorP21CustomAttributesCache
LSi:_SHA512Managed_Initialize_m891287980
xrd:__ZN18ScBeforeSolverTask11runInternalEv
_Xh:_TimeSpan__ctor_m1888018443_AdjustorThunk
Xwg:_SecurityException__ctor_m1484114982
X4l:_SinkProviderData_get_Children_m100594762
qLk:_LinuxNetworkInterface_get_IfacePath_m3341314018
org:_Array_GetValue_m1507415734
HYj:_DnsQuery__ctor_m315141746
H6d:_XmlRegisteredNonCachedStream_SetLength_m165478039
Krc:__ZL33GeomOverlapCallback_CapsuleConvexRKN5physx10PxGeometryERKNS_11PxTransformES2_S5_PNS_2Gu12TriggerCacheE
EJh:_XmlUntypedConverter_ChangeType_m732433876
m3k:_ReadOnlyCollection_1_System_Collections_IList_get_Item_m375043207_gshared
q7:__ZN6prcoreL25inner_stretch_i8_bilinearEPKNS_9InnerInfoE
aGe:_RegexCharClass_RangeCount_m997997568
f$a:__ZL30RegisterFilteredObjectCallbackPP12Il2CppObjectiPv
Rfi:_DirectoryInfo_ToString_m4208086799
p2j:_OrderedDictionary_Remove_m1906215950
Myk:_MonoMethod_get_IsGenericMethod_m4276550811
Sdi:_BinaryWriter_Write_m838928755
lmj:_BinaryObject__ctor_m886806411
iF:__ZN11UnityEngine15CloudWebService16SessionContainer24GetSessionHeaderJsonDataERKN4core12basic_stringIcNS2_20StringStorageDefaultIcEEEERNS2_13StringBuilderE
f5e:_Decimal_op_Implicit_m2149927308
t4n:__Z59RuntimeInvoker_KeyValuePair_2_t3601103940_Int32_t2071877448PFvvEPK10MethodInfoPvPS4_
yT:__ZN13RuntimeStaticI21AssetReferenceStorageLb0EE13StaticDestroyEPv
pwd:__ZN5physx20InternalTriangleMesh9loadRTreeERNS_13PxInputStreamEj
k5g:_Asttree_SetURN_m3635293830
h6e:_DateTimeParse_SetDateMDY_m3576581409
bYc:__ZN5physx19NpRigidBodyTemplateINS_14PxRigidDynamicEE25setCMassLocalPoseInternalERKNS_11PxTransformE
fch:_Socket_get_Connected_m2189494307
PZg:_Task_CreationOptionsFromContinuationOptions_m3637432157
RYc:__ZNK5physx15NpActorTemplateINS_13PxRigidStaticEE14getOwnerClientEv
szp:__ZNSt3__212basic_stringIwNS_11char_traitsIwEENS_9allocatorIwEEE9__grow_byEjjjjjj
E1g:_DtdParser_Throw_m2335450707
nKe:_RegexPrefix__ctor_m1904837939
zan:__ZN6il2cpp6icalls8mscorlib6System9AppDomain22InternalGetProcessGuidEP12Il2CppString
kUc:__ZN5physx2Sc18ParticleSystemCore16releaseParticlesEv
Sgg:_KeyPairPersistence_get_UseMachineKeyStore_m560802076
Gli:_StreamWriter_get_LeaveOpen_m3023617162
Ocd:__ZNK5physx2Gu29EPASupportMapPairRelativeImplINS0_8CapsuleVENS0_4BoxVEE6getDirEv
Ojc:__ZN5physx2Gu20intersectTriangleBoxERKNS_6shdfnd3aos5Vec3VES5_S5_S5_S5_
Iqo:__ZL115ExecutionContext_t1392266323_CustomAttributesCacheGenerator_ExecutionContext_set_SynchronizationContext_m2207267214P21CustomAttributesCache
Bxi:_Enumerator_System_Collections_IDictionaryEnumerator_get_Entry_m345330700_AdjustorThunk
Ope:_XdrBuilder_XDR_BeginAttribute_m1998382995
Hna:__ZNK17FileSystemHandler10IsReadOnlyERK13FileEntryData
fIm:__ZNSt3__214__split_bufferIP9FieldInfoRNS_9allocatorIS2_EEEC2EjjS5_
Mgb:__Z18Transfer_BlittableI24GenerateTypeTreeTransferLb1EjEvRK29SerializationCommandArgumentsR31RuntimeSerializationCommandInfo
MSk:_ObjectComparer_1_Equals_m1574470554_gshared
YRm:__ZNK15dense_hashtableINSt3__24pairIK10KeyWrapperINS1_IPK11Il2CppImageP11Il2CppClassEEEjEES9_17ReflectionMapHashIS8_EN14dense_hash_mapIS9_jSD_NS9_14EqualsComparerINS0_8equal_toIS8_EEEENS0_9allocatorISB_EEE9SelectKeyESI_SK_E10test_emptyERK30dense_hashtable_const_iteratorISB_S9_SD_SM_SI_SK_E
cVh:_Thread_BeginCriticalRegion_m1524490153
Xym:__ZN6il2cpp2os12FastAutoLockD2Ev
lrk:_SymbolType_GetConstructors_m343325903
lza:__ZN11ColorRGBA328TransferI14SafeBinaryReadEEvRT_
Y4f:_DatatypeImplementation_get_FacetsChecker_m1195733333
Qbl:_SafeFindHandle_ReleaseHandle_m353960506
KGd:__ZN5physx6shdfnd5ArrayIPvNS0_19ReflectionAllocatorINS_24NpPtrTableStorageManager8PtrBlockILi4EEEEEE15growAndPushBackERKS2_
ytl:_InternalEnumerator_1_get_Current_m1864471731_AdjustorThunk
__d:_XmlElement_set_LastNode_m2776181665
pLe:_RegexRunner_DoubleCrawl_m2271635966
N6:__Z11IsHDRFormat13TextureFormat
Veg:_AuthenticodeBase_GetSecurityEntry_m2086284884
e6j:_Enumerator_get_Current_m3158498407_gshared
$f:_emscripten_glClearDepth
gVb:__ZNK8GUILayer22GetTypeVirtualInternalEv
g1f:_Datatype_List_CreateValueConverter_m713417053
tKj:_SourceElement_get_Attributes_m207099729
UMa:__ZN14SafeBinaryRead21TransferSTLStyleArrayINSt3__26vectorIN15QualitySettings14QualitySettingENS1_9allocatorIS4_EEEEEEvRT_17TransferMetaFlags
QPk:_List_1_System_Collections_IList_get_Item_m3157791366_gshared
rgi:_File_OpenText_m4058508963
XUn:__Z105RuntimeInvoker_Void_t1841601450_RuntimeObject_RuntimeObject_RuntimeObject_Int32_t2071877448_RuntimeObjectPFvvEPK10MethodInfoPvPS4_
mzf:_Array_qsort_TisUInt64_t2909196914_m4140069154_gshared
MVa:__ZNSt3__26vectorINS_4pairIPKN5Unity4TypeE7Hash128EENS_9allocatorIS7_EEE8__appendEj
ukj:_WellKnownClientTypeEntry__ctor_m670594074
w1k:_ReadOnlyCollection_1_System_Collections_ICollection_CopyTo_m3644643417_gshared
bwo:__ZL70SecurityPermissionAttribute_t3351526923_CustomAttributesCacheGeneratorP21CustomAttributesCache
osi:_InternalEnumerator_1_MoveNext_m1075884189_gshared
oqf:_RuntimeType_IsSpecialSerializableType_m1179973965
vaf:_DateTime_System_IConvertible_ToSingle_m3927769066_AdjustorThunk
vVk:_ObjectEqualityComparer_1_Equals_m1967622068_gshared
vLo:__ZL60FileLoadException_t3198361301_CustomAttributesCacheGeneratorP21CustomAttributesCache
Pxj:_RecordProtocol_SendRecord_m2977889250
OYb:__Z13IsPathCreatedRKN4core12basic_stringIcNS_20StringStorageDefaultIcEEEE
rhg:_SignerInfo_get_IssuerName_m3955006356
ifd:__ZN5physx35solveContactPreBlock_ConcludeStaticEPKNS_23PxcSolverConstraintDescEjRNS_16PxcSolverContextE
rzo:__ZL96ObjectManager_t2645893724_CustomAttributesCacheGenerator_ObjectManager_CompleteObject_m268850658P21CustomAttributesCache
hVk:_ObjectEqualityComparer_1_GetHashCode_m2042451965_gshared
X6:__ZL22stbir__encode_scanlineP11stbir__infoiPvPfiii
Gfh:_Callback_Invoke_m3613404611
dQf:_CultureData_t3400086592_marshal_pinvoke
Ebm:_AttrListImpl__ctor_m2213894057
hLd:__ZN20QuadTreeNodeRenderer13StaticDestroyEPv
_lf:_ObjectHolder_set_Reachable_m207410041
eG:__ZN11UnityEngine15CloudWebService20WebRequestRestClient5AbortEv
zQj:_ConnectionManagementSection__cctor_m4267824353
Srh:_Array_InternalArray__ICollection_Remove_TisUInt32_t2149682021_m4198326168_gshared
S8n:__Z51RuntimeInvoker_AsyncTaskMethodBuilder_1_t1908282433PFvvEPK10MethodInfoPvPS4_
nRb:__ZN9Transform12CleanupClassEv
Iyh:_Task_Run_TisRuntimeObject_m2052602702_gshared
qBn:__Z50RuntimeInvoker_Void_t1841601450_Double_t4078015681PFvvEPK10MethodInfoPvPS4_
quj:_ClientContext_set_ClientHelloProtocol_m2246603449
Ytc:__ZN5physx6shdfnd5ArrayIPvNS0_15InlineAllocatorILj256ENS0_19ReflectionAllocatorINS_2Cm5BlockIS2_Lj32EEEEEEEE15growAndPushBackERKS2_
xqd:__ZN5physx18PxsSolverStartTask13setupDescTaskEv
tzm:__ZN6il2cpp2vmL21SetupPropertiesLockedEP11Il2CppClassRKNS_2os12FastAutoLockE
W6g:_Compiler__ctor_m1664164061
gGk:_FtpWebRequest_UploadData_m3373136954
t2a:__ZNSt3__26vectorIN9ShaderLab19SerializedSubShaderENS_9allocatorIS2_EEE26__swap_out_circular_bufferERNS_14__split_bufferIS2_RS4_EE
qDl:_TaskAwaiter_1_OnCompleted_m4224381459_AdjustorThunk
Lxn:__Z116RuntimeInvoker_RuntimeObject_RuntimeObject_Int32_t2071877448_RuntimeObject_RuntimeObject_RuntimeObject_RuntimeObjectPFvvEPK10MethodInfoPvPS4_
Txm:_AnalyticsTracker_TriggerEvent_m1494303835
oGj:_RefreshEventHandler_EndInvoke_m439483870
ODo:__ZL59IChannelReceiver_t2788889625_CustomAttributesCacheGeneratorP21CustomAttributesCache
O9b:__ZN5physx3Cct13BoxController6resizeEf
$0l:_TaskAwaiter_OnCompleted_m2470555827
gmf:_ObjectHolder_get_Surrogate_m719366192
Uqh:_Array_InternalArray__ICollection_Remove_TisKeyValuePair_2_t3800763530_m3028619765_gshared
$Nf:_Bootstring_Decode_m2233211605
CDk:_ResourceReader_Close_m3256966401
sZd:_XmlLoader_LoadEntityReferenceNode_m1917544334
Esf:_SByte_ToString_m4105923225_AdjustorThunk
ize:_XmlSchemaElement_get_ElementSchemaType_m2980774366
Fnf:_StreamingContext_t1417235061_marshal_pinvoke_cleanup
aRf:_CultureInfo_ConstructCurrentUICulture_m3363349599
qwe:_XmlSchemaAny_set_ProcessContents_m43420117
j8h:_CFHelpers_FetchString_m370077633
_Xd:_XmlDocumentType_get_Notations_m503182328
uVl:_PropertyInformationCollection_Add_m3086044235
yLe:_RegexMatchTimeoutException__ctor_m2339853410
bsd:__ZN5physx6shdfnd5ArrayINS_2Cm12DelegateTaskINS_2Sc5SceneEXadL_ZNS5_19updateCCDSinglePassEPNS_10PxBaseTaskEEEEENS0_19ReflectionAllocatorIS8_EEE8recreateEj
p5j:_KeyValuePair_2__ctor_m1443088467_AdjustorThunk
Bza:__Z30ProcessDynamicBatchGeometryJobP25DynamicVBOGeometryJobDataj
VAb:__ZNSt3__27__sort4IRNS_6__lessI11CulledLightS2_EEPS2_EEjT0_S6_S6_S6_T_
VRe:_Buffer_IndexOfByte_m4015874738
BSk:_ObjectComparer_1_GetHashCode_m4164557349_gshared
xdl:_MSCompatUnicodeTable_Level3_m260824928
bIn:__Z99RuntimeInvoker_Int64_t909078037_RuntimeObject_SByte_t454417549_RuntimeObject_BooleanU26_t3168250738PFvvEPK10MethodInfoPvPS4_
P9k:_Comparison_1__ctor_m2594529080_gshared
sP:__Z26scripting_object_get_class18ScriptingObjectPtr
nki:_NullStream_get_Position_m4124472542
tYa:__ZNSt3__26vectorIN4core12basic_stringIcNS1_20StringStorageDefaultIcEEEE13stl_allocatorIS5_L18MemLabelIdentifier13ELi16EEE7reserveEj
Kyi:_Enumerator_System_Collections_IDictionaryEnumerator_get_Entry_m487599172_gshared
Ezg:_NetCodeGroup_CreateXml_m1997058701
TEj:_PropertyDescriptorCollection_System_Collections_IList_Insert_m2641798284
ZFc:__ZN5physx34NpShapeGetScRigidObjectFromScbSLOWERKNS_3Scb5ShapeE
KJl:_UnityAction_1_EndInvoke_m932473699_gshared
t0g:_XPathParser_ParseRelationalExpr_m1306061832
NQb:__ZNK28MonoBehaviourPropertyBinding15GenerateBindingERKN4core12basic_stringIcNS0_20StringStorageDefaultIcEEEEbRN11UnityEngine9Animation14GenericBindingE
BEk:_RuntimeResourceSet_GetString_m447302559
A9e:_DateTime_ToShortDateString_m2983678851
$2g:_DtdParser_ScanCondSection2_m28667148
JUi:_X509Certificate_Reset_m1676863543
Boo:__ZL112ConcurrentDictionary_2_t165941581_CustomAttributesCacheGenerator_ConcurrentDictionary_2_OnSerializing_m275932244P21CustomAttributesCache
YHo:__ZL91RtFieldInfo_t999161580_CustomAttributesCacheGenerator_RtFieldInfo_UnsafeSetValue_m400619549P21CustomAttributesCache
dgg:_KeyPairPersistence_Load_m1355205585
O5f:_DtdValidator_ValidateChildElement_m2779233368
TBe:_X509ChainImplMono_CheckCrls_m1853471326
VIf:_StackTrace__ctor_m3282848393
bai:_Int32_ToString_m2960866144_AdjustorThunk
Zcj:_AsyncResult_t2232356043_marshal_pinvoke_back
jUa:__ZN14SubstanceValue8TransferI18StreamedBinaryReadILb0EEEEvRT_
AOh:_XsdValidator_Validate_m469458269
Qxc:__ZNK5physx21PxsBodyTransformVault12getTransformERKNS_11PxsBodyCoreE
Uro:__ZL84QueueSegment_t905751008_CustomAttributesCacheGenerator_QueueSegment__ctor_m319098014P21CustomAttributesCache
wek:_List_1_System_Collections_IList_get_IsReadOnly_m2986428257_gshared
h6d:_XmlReaderSettings_set_LineNumberOffset_m3731384766
Pje:_XmlSchemaKeyref_get_Refer_m1695674478
fdn:__ZN6il2cpp6icalls8mscorlib6System11Environment15internalGetHomeEv
XOf:_CalendarData__ctor_m3714399848
Vnh:_X509Certificate2ImplMono__cctor_m4048545302
bXh:_WaitHandle_get_SafeWaitHandle_m2847102403
v3l:_SafeBuffer_ReleasePointer_m2353574589
SMo:__ZL103UnmanagedMemoryStream_t822875729_CustomAttributesCacheGenerator_UnmanagedMemoryStream_Write_m1076994182P21CustomAttributesCache
eia:__ZNK5Unity9Component7GetNameEv
MIm:__ZNSt3__214__split_bufferIN6il2cpp6icalls8mscorlib6System12PropertyPairERNS_9allocatorIS5_EEEC2EjjS8_
CUi:_X509Helper_ImportApple_m39842088
zgo:__ZL79Convert_t2607082565_CustomAttributesCacheGenerator_Convert_ToUInt16_m2130758075P21CustomAttributesCache
Y6f:_FacetsCompiler_CompileLengthFacet_m431544049_AdjustorThunk
Jbc:__ZN44ConvexVsHeightfieldContactGenerationCallback7onEventEjPj
zzo:__ZL88SafeSerializationManager_t1975884510_CustomAttributesCacheGenerator_SerializeObjectStateP21CustomAttributesCache
eko:__ZL58IFormatProvider_t2849799027_CustomAttributesCacheGeneratorP21CustomAttributesCache
vDk:_ResourceManager_OnSerializing_m2176838909
Qdk:_List_1_CopyTo_m2827056481_gshared
wNa:__ZN13ScreenManagerD0Ev
oTo:__ZL127GregorianCalendar_t3361245568_CustomAttributesCacheGenerator_GregorianCalendar_t3361245568____MaxSupportedDateTime_PropertyInfoP21CustomAttributesCache
twp:__ZNKSt3__27codecvtIwc11__mbstate_tE5do_inERS1_PKcS5_RS5_PwS7_RS7_
Qtk:_TypeBuilderInstantiation_IsArrayImpl_m2377461734
rEn:__Z111RuntimeInvoker_Void_t1841601450_RuntimeObject_RuntimeObject_RuntimeObject_TimeSpan_t3430258949_SByte_t454417549PFvvEPK10MethodInfoPvPS4_
Tbg:_SchemaCollectionCompiler_CleanupAttributeGroup_m1358233817
PZk:_ReadOnlyCollection_1_System_Collections_Generic_ICollectionU3CTU3E_Add_m2399509836_gshared
gne:_StarNode_ConstructPos_m3708402279
l2f:_Datatype_NOTATION_TryParseValue_m1735879632
zsf:_SByte_GetHashCode_m1692727069
mxg:_String_CharCopy_m586187774
Ufl:_BigInteger_GetBytes_m2935282248
hTf:_DateTimeFormatInfo_get_DateTimeOffsetPattern_m1510065586
$hf:_ReadObjectInfo_GetMemberInfo_m3832570033
yOb:__ZN10BootConfig4Data3SetEPKcjS2_j
Xsp:__ZNKSt3__27num_putIwNS_19ostreambuf_iteratorIwNS_11char_traitsIwEEEEE6do_putES4_RNS_8ios_baseEwe
IJl:_UnityAction_1_Invoke_m1173883273_gshared
dsf:_RuntimeTypeHandle__ctor_m292725554_AdjustorThunk
ath:_Array_QSortArrange_TisSByte_t454417549_m955864523_gshared
hDn:__Z118RuntimeInvoker_Boolean_t3825574718_DateTimeResultU26_t3472303078_Int32_t2071877448_Int32_t2071877448_Int32_t2071877448PFvvEPK10MethodInfoPvPS4_
_eb:__Z18Transfer_BlittableI17RemapPPtrTransferLb1EjEvRK29SerializationCommandArgumentsR31RuntimeSerializationCommandInfo
n5o:__ZL71SourceLevels_t1530190938_CustomAttributesCacheGenerator_ActivityTracingP21CustomAttributesCache
Pch:_NetworkStream_Flush_m951188344
t3d:_XmlNodeReaderNavigator_GetAttribute_m1213061259
zyc:__ZN5physx6shdfnd5ArrayIPvNS0_15InlineAllocatorILj256ENS0_19ReflectionAllocatorINS_11NpAggregateEEEEEE15growAndPushBackERKS2_
C9j:_Enumerator_MoveNext_m3748058997_gshared
Hbi:_Int64_System_IConvertible_ToDouble_m638786774
RBg:_SecurityElement_ToXml_m1070777098
QBo:__ZL97ObjectWriter_t4293742132_CustomAttributesCacheGenerator_ObjectWriter_WriteArrayMember_m2975964710P21CustomAttributesCache
cx:__ZN4FMOD6System7releaseEv
o9c:__ZN5physx6shdfnd8PoolBaseINS_2Sc18TriggerInteractionENS0_19ReflectionAllocatorIS3_EEE15disposeElementsEv
Kib:__Z18Transfer_BlittableI19StreamedBinaryWriteILb0EELb1E8BitFieldEvRK29SerializationCommandArgumentsR31RuntimeSerializationCommandInfo
GR:__Z18PathToAbsolutePathRKN4core12basic_stringIcNS_20StringStorageDefaultIcEEEE
HGl:_TaskFactory_1_FromAsync_m3277180679_gshared
bWj:_CFArray_CFArrayGetCount_m2465693892
cFk:_ReadDelegate__ctor_m2506304298
CXo:__ZL81XmlSchemaDerivationMethod_t3165007540_CustomAttributesCacheGenerator_SubstitutionP21CustomAttributesCache
vll:_InternalEnumerator_1__ctor_m3441346029_AdjustorThunk
PHd:__ZN5physx28PxcContactCapsuleHeightFieldERKNS_2Gu13GeometryUnionES3_RKNS_11PxTransformES6_RKfRNS_10PxcNpCacheERNS0_13ContactBufferE
Tng:___Filters_FilterAttribute_m1951693334
A6k:_ReadOnlyCollection_1_GetEnumerator_m550498413_gshared
bMd:__ZN21UnityAnalyticsManager15ThreadedCleanupEv
Ebc:__ZL31PointInConvexPolygon2D_OutCodesPKfjffffRh
xBn:__Z79RuntimeInvoker_Decimal_t724701077_RuntimeObject_Int32_t2071877448_RuntimeObjectPFvvEPK10MethodInfoPvPS4_
DVc:__ZN5physx22NpParticleBaseTemplateINS_16PxParticleSystemENS_16NpParticleSystemEE18setDynamicFrictionEf
cGn:__Z51RuntimeInvoker_PolicyStatementAttribute_t2506836895PFvvEPK10MethodInfoPvPS4_
z6:__ZL13BlitImageImplR14ImageReferenceiiRKS_NS_10ColorSpaceENS_8BlitModeEb
SWd:_XmlImplementation__ctor_m2472662096
rrb:__ZN10MonoScript23VirtualRedirectTransferER17RemapPPtrTransfer
ojk:_List_1_System_Collections_IList_Contains_m2819539316_gshared
MBc:__ZN5physx2Sc21ArticulationJointCore21setInternalComplianceEf
Ufo:__ZL76Convert_t2607082565_CustomAttributesCacheGenerator_Convert_ToChar_m541258017P21CustomAttributesCache
WOj:__ZN21InterfaceFuncInvoker2IP22Authorization_t1602399P22WebRequest_t1365124353P12Il2CppObjectE6InvokeEjP11Il2CppClassS5_S3_S5_
uKd:__ZN9Rigidbody12MoveRotationERK11Quaternionf
$Ki:_Dictionary_2_Add_m2285482220_gshared
Vxn:__Z64RuntimeInvoker_RuntimeObject_Int16_t4041245914_Int16_t4041245914PFvvEPK10MethodInfoPvPS4_
fAd:__ZNK5physx6shdfnd10Foundation13getErrorLevelEv
N7f:_KeySequence_set_Item_m3268727489
rIa:__ZN29SerializeTraitsForStringTypesIN4core12basic_stringIcNS0_20StringStorageDefaultIcEEEEE8TransferI24GenerateTypeTreeTransferEEvRS4_RT_
iv:__ZN12AudioManager29ShutdownReinitializeAndReloadEv
$5i:_ConstructorOnTypeBuilderInst_GetGenericArguments_m462949708
KCf:_AsyncTaskMethodBuilder_1_Start_TisU3CGetEntityAsyncU3Ed__0_t385453514_m3937211145_gshared
fQn:__Z46RuntimeInvoker_XmlSchemaWhiteSpace_t3746245107PFvvEPK10MethodInfoPvPS4_
F_m:__ZN6il2cpp6icalls8mscorlib6System10Reflection8Assembly22load_with_partial_nameEP12Il2CppStringP40mscorlib_System_Security_Policy_Evidence
ltd:__ZN5physx2Cm12DelegateTaskINS_2Sc5SceneEXadL_ZNS3_15postNarrowPhaseEPNS_10PxBaseTaskEEEE11runInternalEv
NId:__Z20ConvertContactToMonoP9Collision
HZm:__ZN6il2cpp6icalls8mscorlib6System7Runtime15InteropServices7Marshal11FreeHGlobalEi
O_k:_ReadOnlyCollection_1_get_Count_m1449542779_gshared
dvo:__ZL45Url_t627176909_CustomAttributesCacheGeneratorP21CustomAttributesCache
OMk:_Win32_SOCKET_ADDRESS_GetIPAddress_m3946757953
Zfn:__GLOBAL__sub_I_String_cpp
Wym:__ZN15dense_hashtableINSt3__24pairIK10KeyWrapperIPK22Il2CppGenericParameterEP11Il2CppClassEES6_N6il2cpp5utils11PointerHashIS4_EEN14dense_hash_mapIS6_S9_SE_NS6_14EqualsComparerINS0_8equal_toIS5_EEEENS0_9allocatorISA_EEE9SelectKeyESJ_SL_E6insertERKSA_
Aog:_AggregateException_Flatten_m525658131
rIg:_DecoderNLS_Reset_m2061850310
xgi:_FileLoadException__ctor_m1356374414
D$j:_MonoSslStreamImpl_Dispose_m475506816
Z6l:_TlsStream_Reset_m1504601050
xlh:__Z30il2cpp_codegen_resolve_pinvokeIPFiiiELj55ELj30EET_RAT0__KcRAT1__S3_20Il2CppCallConvention13Il2CppCharSetib
KNe:_Uri_get_OriginalStringSwitched_m2178267165
S3:__ZN14DataBufferGLES16RecreateWithDataEjPKv
Bia:__Z29GetGlobalAllowNameConversionsv
Dbc:__ZL17transformVerticesRfS_S_S_PfjPKN5physx6PxVec3EPKhRKNS1_7PxMat33E
UHd:__ZNK5physx2Gu15HeightFieldUtil31getFaceIndexAtShapePointNoTest2Ejff
NHp:_emscripten_glBlendFunc__wrapper
ZKb:__ZN8Material8SetColorEN9ShaderLab16FastPropertyNameERK10ColorRGBAf
fJi:_Dictionary_2__ctor_m965168575_gshared
qBk:_RuntimeFieldInfo_GetObjectData_m2859297154
Imd:__ZN5physx6shdfnd5ArrayIPNS_14PxLightCpuTaskENS0_13TempAllocatorEE6resizeEjRKS3_
Bwk:_Module_GetCustomAttributes_m3581287913
Aeo:__ZL67Type_t_CustomAttributesCacheGenerator_Type_IsSubclassOf_m2450899481P21CustomAttributesCache
Ty:__ZN11AudioSource23VirtualRedirectTransferER18StreamedBinaryReadILb0EE
myg:_DefaultPolicies_BuildSkipVerification_m3819517738
Hlm:_WhereArrayIterator_1__ctor_m25159286_gshared
pad:__ZNK5physx2Sq10AABBPruner5sweepERKNS0_9ShapeDataERKNS_6PxVec3ERfRNS0_14PrunerCallbackE
pjb:__ZN10RectOffset8TransferI19StreamedBinaryWriteILb0EEEEvRT_
lan:__ZN6il2cpp6icalls8mscorlib6System4Enum9get_valueEP12Il2CppObject
fO:__ZL41AssemblyNameMatchesWithOrWithoutExtensionPKcS0_
cfj:_DictionaryEnumerator__ctor_m4083708331
n5c:__ZN5physx2Sc5Scene21fireCallBacksPostSyncEv
V8n:__Z123RuntimeInvoker_Void_t1841601450_SByte_t454417549_VoidTaskResult_t3325310798_Int32_t2071877448_CancellationToken_t1851405782PFvvEPK10MethodInfoPvPS4_
Wba:__ZN14GfxContextGLES43AddRenderSurfaceToDeferredFBOInvalidateListEPK17RenderSurfaceGLES
xEk:_RuntimeResourceSet_System_Collections_IEnumerable_GetEnumerator_m1759164697
JKl:_Dictionary_2__ctor_m3269726301_gshared
Vbd:__ZN5physx17PxsCCDAdvanceTask11runInternalEv
Cka:__ZN11NamedObject23VirtualRedirectTransferER14SafeBinaryRead
hao:__ZL74RuntimeArray_CustomAttributesCacheGenerator_Array_BinarySearch_m3522310993P21CustomAttributesCache
Xnm:_AudioListener_GetNumExtensionProperties_m2652400521
vWe:_ReadOnlyArrayList_get_Item_m309875157
SXi:_KeyContainerPermissionAccessEntryCollection_get_Count_m2606655992
wla:__ZN23PreloadManagerOperation6IsDoneEv
KPl:_EqualityComparer_1_IndexOf_m2402494748_gshared
uLk:_MacOsIPInterfaceProperties__ctor_m4272031495
CKm:__ZN6il2cpp2vm7Runtime15InvokeWithThrowEPK10MethodInfoPvPS5_
_lg:_X509Certificate_get_RawData_m3000055075
Bzm:__ZNSt3__26vectorIPK10Il2CppTypeNS_9allocatorIS3_EEE21__push_back_slow_pathIRKS3_EEvOT_
HWb:__Z33GetHasChangedDeprecatedSystemMaskv
zgn:__ZN6il2cpp5utils11StringUtils11Utf16ToUtf8ERKNSt3__212basic_stringIDsNS2_11char_traitsIDsEENS2_9allocatorIDsEEEE
Asm:__ZL25UnresolvedVirtualCall_216P12Il2CppObject26DateTimeOffset_t1362988906PK10MethodInfo
yao:__ZL66RuntimeArray_CustomAttributesCacheGenerator_Array_Sort_m2994254654P21CustomAttributesCache
Wlc:__ZN5physx3Cct26CharacterControllerManagerD2Ev
RKe:_RegexInterpreter_TrackPeek_m2945516277
Nml:_InternalEnumerator_1_MoveNext_m2095753328_gshared
rXh:_WaitHandle_WaitAny_m614244559
xvi:_Comparer_1__ctor_m1202126643_gshared
m_a:__ZN21LightProbeProxyVolume18HasHardwareSupportEv
UDb:__ZN26LightProbeProxyVolumeCacheC2ER13BatchRendererR15RenderLoopStats
cVf:_GregorianCalendarHelper_DateToTicks_m2817840153
l7:__ZN6prcoreL31inner_stretch_argb8888_bilinearEPKNS_9InnerInfoE
Mkb:__Z18Transfer_BlittableI18StreamedBinaryReadILb1EELb1E8BitFieldEvRK29SerializationCommandArgumentsR31RuntimeSerializationCommandInfo
EEn:__Z98RuntimeInvoker_Int32_t2071877448_RuntimeObject_Int32_t2071877448_SByte_t454417549_SByte_t454417549PFvvEPK10MethodInfoPvPS4_
Rsi:_ArraySegment_1_Equals_m3670425628_gshared
zto:__ZL120AwaitTaskContinuation_t2160930432_CustomAttributesCacheGenerator_AwaitTaskContinuation_ExecuteWorkItemHelper_m1084224246P21CustomAttributesCache
p0e:_ValueList_get_SyncRoot_m2800220504
lue:_XmlBooleanConverter_Create_m659766956
Byj:_SendRecordAsyncResult_get_CompletedSynchronously_m3681955708
twj:_TlsClientCertificate_get_ClientCertificate_m3062440489
bal:_Comparison_1_BeginInvoke_m3853096414_gshared
xvg:_StrongNamePublicKeyBlob_ToString_m3721281223
Kln:_GC_init_size_map
wbd:__ZN5physx6shdfnd8internal8HashBaseINS0_4PairIKNS3_IPKNS_12PxsRigidCoreEPKNS_12PxsShapeCoreEEEPNS_11PxsCCDShapeEEESA_NS0_4HashISA_EENS1_11HashMapBaseISA_SD_SG_NS0_9AllocatorEE6GetKeyESI_Lb1EE15reserveInternalEj
HSi:_SHA384Managed__cctor_m1107466912
Iwa:__Z20scripting_object_new17ScriptingClassPtr
ECp:dynCall_iiiiifi
Gfk:_List_1_CopyTo_m2710013502_gshared
Akg:_Uri_get_Host_m2825264947
Evk:_MethodBase_GetHashCode_m3153537239
C2h:_Type_FormatTypeName_m4084479009
HWk:_Queue_1_System_Collections_ICollection_CopyTo_m772787461_gshared
Nce:_XmlTextReaderImpl_set_InternalSchemaType_m2652612165
w0b:__Z58Register_UnityEngine_Object_Internal_CloneSingleWithParentv
vCj:_EnumConverter_CanConvertTo_m2854622655
lVk:_ObjectEqualityComparer_1_IndexOf_m2187388031_gshared
iYf:_TextInfo_ToUpper_m299550697
d6c:__ZN5physx2Sc5Scene21setDominanceGroupPairEhhRKNS_20PxDominanceGroupPairE
Mkp:_Interactor_OnUpdate_m1955753930
COk:_List_1_ToArray_m1748209125_gshared
xnm:_AudioExtensionManager_AddSpatializerExtension_m1061433739
Dla:__ZN23PreloadManagerOperation21MustCompleteNextFrameEv
W9m:__ZN27WorkerThreadParkStateHolderC2ER23WorkerThreadStateHolder
aIl:_Tuple_4_ToString_m1553484336_gshared
mVh:_Thread_GetMutableExecutionContext_m2112077705
L5l:_Context_get_ContextID_m1615769170
w3e:_Convert_ToUInt16_m3265369225
Q:Math_exp
wYd:_XmlWhitespace__ctor_m674315191
nXf:_SortKey_ToString_m2406913228
fp:FUNCTION_TABLE_iiifi
jan:__ZN6il2cpp2os5posix13PosixAutoLockD2Ev
VDk:_ResourceReader__LoadObjectV1_m3568695794
yca:__ZNSt3__26vectorINS_4pairIyP17VertexDeclarationEENS_9allocatorIS4_EEE6insertENS_11__wrap_iterIPKS4_EERS9_
bKj:_ListenerElementsCollection_get_CollectionType_m3694218987
n9b:__GLOBAL__sub_I_modules_physics2d_public_0_cpp
Hao:__ZL66RuntimeArray_CustomAttributesCacheGenerator_Array_Sort_m1999601238P21CustomAttributesCache
cng:___DTString_AtEnd_m186324974
ASk:_ObjectComparer_1_Equals_m3915949471_gshared
oqb:__ZN13MonoBehaviour9SetScriptERK4PPtrI10MonoScriptE18ScriptingObjectPtr
eco:__ZL115TimeZoneInfo_t436210607_CustomAttributesCacheGenerator_TimeZoneInfo_CheckDaylightSavingTimeNotSupported_m3751798253P21CustomAttributesCache
lqh:_Array_InternalArray__ICollection_Contains_TisPlayableBinding_t2498078091_m4267109606_gshared
heb:__Z18Transfer_BlittableI17RemapPPtrTransferLb0E8Vector2fEvRK29SerializationCommandArgumentsR31RuntimeSerializationCommandInfo
MRo:__ZL86CompareInfo_t2310920157_CustomAttributesCacheGenerator_CompareInfo_Compare_m1376863687P21CustomAttributesCache
lIe:_RegexCompiler_Dup_m2745587602
I3m:__ZNSt3__218uninitialized_copyIPNS_4pairIK10KeyWrapperIP14Il2CppIUnknownEjEES8_EET0_T_SA_S9_
Uan:__ZN6il2cpp2os10SocketImpl4BindEjt
dJk:_AuthorizationState_ToString_m2268524593
EZc:__ZN5physx7NpScene12loadFromDescERKNS_11PxSceneDescE
YZn:__Z112RuntimeInvoker_Void_t1841601450_ConfiguredTaskAwaiterU26_t2604666488_U3CReadAsyncInternalU3Ed__34U26_t4272333645PFvvEPK10MethodInfoPvPS4_
FCe:_X509EnhancedKeyUsageExtension__ctor_m4050164330
GTe:_Char_ToString_m1401375624
MOi:_MD5CryptoServiceProvider__cctor_m3309191799
hqa:__ZNK10FileSystem16LastErrorMessageEv
rfh:_SocketException_WSAGetLastError_internal_m660574837
OZk:_ReadOnlyCollection_1_System_Collections_Generic_IListU3CTU3E_set_Item_m3833806662_gshared
XDh:_Array_InternalArray__Insert_TisWin32_IP_ADAPTER_ADDRESSES_t680756680_m789389146_gshared
Kok:_List_1_Add_m3195726997_gshared
Kxg:__ZN23InterfaceActionInvoker2IP27SecurityElement_t2325568386P21PolicyLevel_t43919632E6InvokeEjP11Il2CppClassP12Il2CppObjectS1_S3_
dOl:_EqualityComparer_1__ctor_m3067713332_gshared
HSf:_DateTimeFormatInfo_get_AllShortDatePatterns_m1479231608
hBm:__ZN15dense_hashtableINSt3__24pairIK10KeyWrapperIPK11Il2CppClassEPKcEES6_N6il2cpp5utils11PointerHashIS3_EEN14dense_hash_mapIS6_S9_SE_NS6_14EqualsComparerINS0_8equal_toIS5_EEEENS0_9allocatorISA_EEE9SelectKeyESJ_SL_E14squash_deletedEv
n5l:_ConfigHandler_ReadCustomProviderData_m784203316
Oog:_AppDomain_t2719102437_marshal_pinvoke_back
FXb:__ZN11TimeManager16HasFixedTimeStepEv
cke:_XmlSchemaAnnotated_get_Annotation_m1740224541
vDf:_Array_InternalArray__get_Item_TisCipherSuiteCode_t4229451518_m2684381974_gshared
Tcp:__ZL91Physics_t634932869_CustomAttributesCacheGenerator_Physics_Raycast_m1756435689____layerMask3P21CustomAttributesCache
QTh:_ThreadPoolTaskScheduler__ctor_m1143804883
Joj:_Kernel_DwordDivMod_m3728402123
Fpb:__ZN13MonoBehaviour13AwakeFromLoadE17AwakeFromLoadMode
M1j:_NameValueCollection_GetAsOneString_m2053727420
Xff:_MemberPrimitiveTyped_Read_m443959971
Teb:__ZL26Transfer_SimpleNativeClassI17RemapPPtrTransfer8GradientLb1EEvRK29SerializationCommandArgumentsR31RuntimeSerializationCommandInfo
NIj:_DefaultTraceListener__ctor_m1814291763
ETh:_TaskFactory_CommonCWAnyLogic_m2955740698
VWb:__ZN12CachedWriter9InitWriteER15CacheWriterBase
kWb:__Z21UnsignedInt64ToStringy
ceo:__ZL66String_t_CustomAttributesCacheGenerator_String_IndexOf_m2126171214P21CustomAttributesCache
JCl:_ConfiguredTaskAwaitable_1_GetAwaiter_m1352754489_AdjustorThunk
Cmo:__ZL77UInt32_t2149682021_CustomAttributesCacheGenerator_UInt32_ToString_m3894907091P21CustomAttributesCache
b6c:__ZN5physx14PxsAABBManager15createAggregateEPvb
Dhm:_Object_t1021602117_marshal_pinvoke
o_e:_Queue__ctor_m214205393
cGp:_emscripten_glTexCoordPointer__wrapper
QNi:_HMACSHA384_get_BlockSize_m1837057134
c7d:_XmlText_get_NodeType_m2251294490
crl:_InternalEnumerator_1_get_Current_m1089848479_AdjustorThunk
YV:__ZZN15DirectorManager15InitializeClassEvEN41FixedUpdateDirectorFixedUpdateRegistrator7ForwardEv
dcg:_PrimeGeneratorBase_get_TrialDivisionBounds_m2212046603
Bpl:_InternalEnumerator_1_MoveNext_m2720582493_gshared
hlj:___BinaryParser_ReadMessageEnd_m3226718827
ECh:_Array_InternalArray__ICollection_CopyTo_TisTypeCode_t2536926201_m1510046597_gshared
fHl:__ZN21InterfaceFuncInvoker1IP8String_tP25StringBuilder_t1221177846E6InvokeEjP11Il2CppClassP12Il2CppObjectS3_
eb:invoke_iiiiifiiiif
ebm:_X509Crl_VerifySignature_m1390212587
oze:_XmlSchemaElement_get_ElementDecl_m713820346
QDk:_ResourceReader_LoadObjectV1_m3234212095
NBj:_DescriptionAttribute_IsDefaultAttribute_m565836508
NKp:_glLinkProgram__wrapper
P6a:__ZN18ScriptingArguments8AddInt64Ex
JZm:__ZN6il2cpp6icalls8mscorlib6System7Runtime15InteropServices7Marshal28GetIUnknownForObjectInternalEP12Il2CppObject
V7:__ZN6prcoreL12RemapGenericI17TexFormatARGB888815TexFormatBGR888EEvPKNS_9InnerInfoE
u7a:__ZN12HandlerChain4LockER13FileEntryData12FileLockMode
QWc:__ZNK5physx19NpRigidBodyTemplateINS_14PxRigidDynamicEE7getMassEv
aif:_ObjectManager_RegisterString_m1470317830
zRd:__ZN28UnityConnectScriptingClasses23CallSessionStateChangedEixxbP21ScriptingExceptionPtr
com:_AudioExtensionManager_GetListenerSpatializerExtensionType_m3668710088
SLc:__ZN5physx7NpShape8requiresERNS_23PxProcessPxBaseCallbackE
$Om:__ZN6il2cpp2vm10Reflection17GetAssemblyObjectEPK14Il2CppAssembly
$gb:__ZL22Transfer_ManagedObjectI24GenerateTypeTreeTransferLb1EEvRK29SerializationCommandArgumentsR31RuntimeSerializationCommandInfo
wjl:_InternalEnumerator_1_MoveNext_m1016442011_AdjustorThunk
Uck:_List_1_CopyTo_m1119880992_gshared
s9o:__ZL72SceneManager_t90660965_CustomAttributesCacheGenerator_activeSceneChangedP21CustomAttributesCache
Iwm:_CustomEventData_Add_m3072448562
GFo:__ZL55COMException_t1790481504_CustomAttributesCacheGeneratorP21CustomAttributesCache
jeg:_ASN1_get_Count_m404940548
iUf:_DateTimeFormatInfo_TryParseHebrewNumber_m64883380
_Bf:_AsyncTaskMethodBuilder_1_AwaitOnCompleted_TisHopToThreadPoolAwaitable_t4191184651_TisU3CWriteAsyncInternalU3Ed__37_t1508048495_m2182592622_gshared
rk:_emscripten_set_main_loop_timing
_Ll:_Dictionary_2_Resize_m59470703_gshared
K9j:_Enumerator_System_Collections_IEnumerator_Reset_m2390327869_AdjustorThunk
K7h:_WeakReference_AllocateHandle_m1783929473
JBc:__ZN5physx2Sc21ArticulationJointCore22setTangentialStiffnessEf
nSo:__ZL63Calendar_t585061108_CustomAttributesCacheGenerator_m_isReadOnlyP21CustomAttributesCache
sid:__ZNK5physx20SingleAABBUpdateTask7getNameEv
EKb:__ZN14ImageReference10FlipImageYEv
Cro:__ZL54ThreadState_t1158972609_CustomAttributesCacheGeneratorP21CustomAttributesCache
PWm:__ZNK15dense_hashtableINSt3__24pairIK10KeyWrapperINS1_IP11Il2CppClassjEEES4_EES6_N6il2cpp8metadata14ArrayClassHashEN14dense_hash_mapIS6_S4_SB_NS6_14EqualsComparerINSA_17ArrayClassCompareEEENS0_9allocatorIS8_EEE9SelectKeyESF_SH_E10test_emptyERK30dense_hashtable_const_iteratorIS8_S6_SB_SJ_SF_SH_E
yIg:_DecoderNLS_Convert_m2333667520
Wva:__Z32TransferEnumWithNameForceIntSizeI14SafeBinaryRead13TargetEyeMaskEvRT_RT0_PKc17TransferMetaFlags
P1a:__ZNSt3__26vectorIN9ShaderLab20SerializedSubProgram15VectorParameterENS_9allocatorIS3_EEE8__appendEj
dRf:_CultureInfo_get_Name_m3316229893
XYd:_NodeData_get_None_m3042585793
ws:__ZN4FMOD3DSP9setBypassEb
aOb:__Z19NormalizeWheelInputf
zih:_U3CU3Ec__DisplayClass75_0_U3CSetHeadersAsyncU3Eb__0_m3730809392
cNb:__Z29StdTemplateConversionFunctionIsaEbPvR14SafeBinaryRead
sse:_XmlBaseConverter_ToDecimal_m649856323
dmp:_UpdateManager_get_GeneralFixedUpdater_m2027773276
rQc:__ZN5physx2Sc9ClothCore17addCollisionPlaneERKNS_21PxClothCollisionPlaneE
jxa:__ZN22RenderingCommandBuffer20CleanupCommandBufferEv
N8k:_ReadOnlyCollection_1__ctor_m2362852490_gshared
njm:_Comparison_1_Invoke_m994149406_gshared
Y2b:__Z18Transfer_BlittableI9JSONWriteLb1EtEvRK29SerializationCommandArgumentsR31RuntimeSerializationCommandInfo
Vqe:_XmlAnyConverter__ctor_m3493748700
doe:_ValidationEventHandler_BeginInvoke_m2562869811
Egi:_FileLoadException__ctor_m918124939
z9o:__ZL106SceneManager_t90660965_CustomAttributesCacheGenerator_SceneManager_Internal_ActiveSceneChanged_m1940652884P21CustomAttributesCache
Lbk:_List_1_set_Item_m72704742_gshared
Kk:___syscall85
l9k:_ReadOnlyCollection_1_IsCompatibleObject_m363020530_gshared
lbp:__ZL76DeallocateOnJobCompletionAttribute_t987733588_CustomAttributesCacheGeneratorP21CustomAttributesCache
O5e:_DateTimeParse_GetDayOfMN_m3185603567
Cvd:__ZNK5physx13PxHeightField8isKindOfEPKc
pTn:__Z254RuntimeInvoker_Void_t1841601450_RuntimeObject_Int16_t4041245914_Int32_t2071877448_Int32_t2071877448_SByte_t454417549_SByte_t454417549_RuntimeObject_RuntimeObject_FlagsU26_t1915283733_BooleanU26_t3168250738_StringU26_t638738783_ParsingErrorU26_t2544582738PFvvEPK10MethodInfoPvPS4_
UCj:_EventDescriptorCollection_Insert_m1803656474
Hjm:_EmptyArray_1__cctor_m235719547_gshared
yY:__ZN15dense_hashtableINSt3__24pairIKN4core12basic_stringIcNS2_20StringStorageDefaultIcEEEE13dynamic_arrayI4PPtrI6SpriteELj4EEEES6_20StringHash32FunctionIS6_EN14dense_hash_mapIS6_SC_SF_NS0_8equal_toIS6_EE13stl_allocatorISD_L18MemLabelIdentifier81ELi16EEE9SelectKeyESI_SL_E5clearEv
t9d:_XmlTextReaderImpl_AddAttributeNoChecks_m3593438227
Eyb:__ZNSt3__26__sortIRPFbP10GUIElementS2_EPS2_EEvT0_S7_T_
Ipj:_SequentialSearchPrimeGeneratorBase_GenerateSearchBase_m2930465198
b2d:_XmlNode_get_ChildNodes_m3902468502
b1o:__ZL54DnsQType_t1279797630_CustomAttributesCacheGenerator_RTP21CustomAttributesCache
qzm:__ZN6il2cpp2vmL21SetupInterfacesLockedEP11Il2CppClassRKNS_2os12FastAutoLockE
F9a:__ZN11MonoManager23VirtualRedirectTransferER24GenerateTypeTreeTransfer
dtd:__ZNK5physx2Sc18ParticleSystemCore16getInternalFlagsEv
D0l:_ExtensionAttribute__ctor_m2881110163
YBa:__ZN19StreamedBinaryWriteILb0EE8TransferI13dynamic_arrayI8Vector3fLj4EEEEvRT_PKc17TransferMetaFlags
Gdn:__ZN6il2cpp2gc16GarbageCollector22MakeDescriptorForArrayEv
$yh:_Array_CheckComparerAvailable_TisRegexOptions_t2418259727_m520109715_gshared
T_l:_ProviderSettings__ctor_m2418229397
U0h:__ZN21InterfaceFuncInvoker1IP25StringBuilder_t1221177846S1_E6InvokeEjP11Il2CppClassP12Il2CppObjectS1_
Bkc:__ZN16ControllerFilter9preFilterERKN5physx12PxFilterDataEPKNS0_7PxShapeEPKNS0_12PxRigidActorERNS0_7PxFlagsINS0_9PxHitFlag4EnumEtEE
eF:__ZN11UnityEngine15CloudWebService14DataDispatcher15SetupWebRequestEv
Xmi:_TextWriter__cctor_m4047845042
U3f:_Datatype_unsignedShort_Compare_m3476185535
NHh:_XmlSchemaSimpleTypeUnion_Clone_m1656667169
cyj:_ReceiveRecordAsyncResult_get_Record_m1336421357
EOd:__ZN11UnityEngine15PlatformWrapper13GetShaderCapsEv
Mhm:_Object_ToString_m2938729670
ohd:__ZN16MBPOS_TmpBuffers16allocateSleepingEjj
aNe:_UriHelper_IsUnreserved_m797466135
mgo:__ZL76Convert_t2607082565_CustomAttributesCacheGenerator_Convert_ToByte_m509311047P21CustomAttributesCache
pKi:_Dictionary_2_System_Collections_Generic_IEnumerableU3CSystem_Collections_Generic_KeyValuePairU3CTKeyU2CTValueU3EU3E_GetEnumerator_m1742521661_gshared
wxn:__Z87RuntimeInvoker_Void_t1841601450_RuntimeObject_StringU26_t638738783_StringU26_t638738783PFvvEPK10MethodInfoPvPS4_
GPi:_RijndaelManagedTransform_Enc_m1054762873
Nfn:__ZN6il2cpp6icalls8mscorlib6System17RuntimeTypeHandle11IsPrimitiveEP27Il2CppReflectionRuntimeType
Gxe:_XmlSchemaCollectionNode_set_Schema_m1175002287
bHm:__ZN6il2cpp6icalls6System6System3Net7Sockets6Socket8RecvFromEiP11Il2CppArrayiiNS4_11SocketFlagsEPP19Il2CppSocketAddressPi
zUi:_X509Helper_Import_m2720451752
Fgg:_SmallXmlParser_ReadCharacters_m1966365555
K6l:_InternalAsyncResult_get_CompletedWithError_m3993955322
WVb:__ZN21FixedBehaviourManager6UpdateEv
AYb:__ZN9Transform9SetParentEPS_NS_15SetParentOptionE
B_f:_TimeSpanTokenizer_get_CurrentChar_m1042982817_AdjustorThunk
V3k:_ReadOnlyCollection_1_System_Collections_IList_Add_m527174473_gshared
pQn:__Z117RuntimeInvoker_RuntimeObject_Decimal_t724701077_Int32_t2071877448_Int32_t2071877448_SByte_t454417549_SByte_t454417549PFvvEPK10MethodInfoPvPS4_
Agl:_Updater_1_Register_m3995658996_gshared
erf:_RuntimeTypeHandle_IsPrimitive_m3919675769
Xua:__ZN19ShaderPropertySheet8SetFloatEN9ShaderLab16FastPropertyNameEfNS_8SetFlagsE
d2k:_ReadOnlyCollection_1_System_Collections_IList_get_Item_m2917979708_gshared
bZa:__ZN19RuntimeSceneManager24BeginIntegrateMainThreadEP10UnityScene
D9k:_Comparison_1__ctor_m561183402_gshared
hal:_U3CPrivateImplementationDetailsU3E_ComputeStringHash_m340869794
wzc:__ZN5physx14NpArticulation26setExternalDriveIterationsEj
fcc:__ZN16RayRTreeCallbackILi0ELb0EED0Ev
Mmd:__ZN5physx20PxsParticleSystemSim23scheduleCollisionUpdateERNS_10PxBaseTaskE
KAk:_PropertyInfo_GetRawConstantValue_m1019652373
Y1a:__ZN9ShaderLab20SerializedSubProgramaSERKS0_
Vzm:__ZN6il2cpp2vm5Class12GetNamespaceEP11Il2CppClass
JCg:_String_CreateString_m2556700934
Lmk:_List_1_System_Collections_Generic_ICollectionU3CTU3E_get_IsReadOnly_m1394164374_gshared
Lsa:__ZN18StreamedBinaryReadILb0EE21TransferSTLStyleArrayINSt3__26vectorI17SortingLayerEntryNS2_9allocatorIS4_EEEEEEvRT_17TransferMetaFlags
tEl:_Task_1__ctor_m2571213091_gshared
qVf:_HebrewNumber__cctor_m2969583679
TSk:_ObjectEqualityComparer_1_Equals_m564445227_gshared
K7g:_Compiler_IsSequenceFromChoice_m145705785
rnc:__ZN5physx15PxBoxControllerD0Ev
Jnj:___BinaryWriter_WriteMemberNested_m4081448517
Ixk:_MonoEventInfo_t2190036573_marshal_pinvoke
rzm:__ZN6il2cpp2vmL24SetupTypeHierarchyLockedEP11Il2CppClassRKNS_2os12FastAutoLockE
brh:_Array_InternalArray__ICollection_Remove_TisInternalCodePageDataItem_t1742109366_m586307256_gshared
iOb:__ZL11TextHandleriPK23EmscriptenKeyboardEventPv
EDb:__Z20CalculateLightMatrixRK15SharedLightDataP10Matrix4x4f
b8f:_LeafRangeNode_get_NextIteration_m1990958251
mU:__ZNSt3__26__treeINS_12__value_typeI18VertexChannelsInfo16MeshVertexFormatEENS_19__map_value_compareIS2_S4_NS_4lessIS2_EELb1EEE13stl_allocatorIS4_L18MemLabelIdentifier17ELi16EEE12__find_equalIS2_EERPNS_16__tree_node_baseIPvEENS_21__tree_const_iteratorIS4_PNS_11__tree_nodeIS4_SF_EEiEESI_RKT_
EJk:_IPv6AddressFormatter_IsIPv4Mapped_m2657168139
PGp:_glBlendEquationSeparate__wrapper
Qnc:__ZN5physx19PxAllocatorCallbackD2Ev
oCj:_DoubleConverter__ctor_m172736832
Cnn:__ZN6il2cpp6icalls8mscorlib6System8Security12Cryptography24RNGCryptoServiceProvider13RngInitializeEP11Il2CppArray
Lxo:__ZL98RIPEMD160Managed_t1613307429_CustomAttributesCacheGenerator_RIPEMD160Managed__HashData_m4113112096P21CustomAttributesCache
KJk:_IPAddress__cctor_m3624830012
dVc:__ZNK5physx15NpActorTemplateINS_16PxParticleSystemEE17getDominanceGroupEv
az:__ZN20SoundChannelInstance7setMuteEb
E$o:__ZL131ConfigurationSection_t2600766927_CustomAttributesCacheGenerator_ConfigurationSection_t2600766927____SectionInformation_PropertyInfoP21CustomAttributesCache
JCa:__ZN4PPtrI5LightE8TransferI19StreamedBinaryWriteILb0EEEEvRT_
Plc:__ZN5physx3Cct26CharacterControllerManager21createObstacleContextEv
Tag:_SchemaCollectionCompiler_Prepare_m2227195267
Skh:_AsnEncodedData_EnhancedKeyUsageExtension_m1452131166
q$e:_SortedList_set_Item_m3109168821
Mah:_Socket_get_IsDualMode_m3158776585
r3o:__ZL100HttpWebRequest_t1951404513_CustomAttributesCacheGenerator_HttpWebRequest_get_ThrowOnError_m323296767P21CustomAttributesCache
NXk:_Stack_1_Pop_m6860886_gshared
Llb:__Z19TransferField_ArrayI18StreamedBinaryReadILb1EE27Converter_SimpleNativeClassI17AnimationCurveTplIfEEEvRK23StaticTransferFieldInfoR31RuntimeSerializationCommandInfoRT0_
ohp:_SendMouseEvents__cctor_m1448404407
Ajk:_List_1_System_Collections_IList_Insert_m426898401_gshared
_4j:_KeyValuePair_2__ctor_m3201181706_gshared
yUc:__ZN5physx15NpActorTemplateINS_15PxParticleFluidEE7releaseEv
Idi:_BinaryWriter__ctor_m1559918839
B4:__ZN18GfxFramebufferGLES22MakeCurrentFramebufferENS_7BuiltinE
kmm:_Error_NotSupported_m1830277424
Q$c:__ZN5physx6shdfnd5ArrayIPNS_2Sc19ShapeInstancePairLLENS0_19ReflectionAllocatorIS4_EEE15growAndPushBackERKS4_
x0e:_ValueList_GetEnumerator_m3800782235
Ofp:__ZL124U3CShakeRoutineU3Ec__Iterator0_t3245266190_CustomAttributesCacheGenerator_U3CShakeRoutineU3Ec__Iterator0_Dispose_m2111748664P21CustomAttributesCache
erj:_KeyPairPersistence__ProtectUser_m3442936478
oNo:__ZL131InternalDecoderBestFitFallbackBuffer_t925729930_CustomAttributesCacheGenerator_InternalDecoderBestFitFallbackBuffer_Reset_m60381831P21CustomAttributesCache
Cqa:__ZN12CachedReader4ReadEPvj
zgd:__ZN5physx21MBPPostUpdateWorkTaskD0Ev
fme:_SchemaInfo_get_SchemaType_m762605080
ipc:__ZN5physx14PxsAABBManager19createAggregateElemEv
KDc:__ZN5physx2Sc8BodyCore24clearSpatialAccelerationEbb
qHl:_Tuple_2_ToString_m4162645436_gshared
JRi:_SHA1Internal_HashFinal_m3188468925
iUa:__ZN14SubstanceInput8TransferI18StreamedBinaryReadILb0EEEEvRT_
VCb:__Z24CalculateLightShadowFadeRK6CamerafffR8Vector4f
lO:__ZN19RuntimeSceneManagerD2Ev
Hsk:_TypeBuilder_IsCOMObjectImpl_m3172502936
s4l:_ChannelData_get_CustomProperties_m1470957369
Vcf:_Decimal_OnSerializing_m1909554870
$9k:_Comparison_1__ctor_m3130343575_gshared
Nll:_InternalEnumerator_1_System_Collections_IEnumerator_get_Current_m1313308902_AdjustorThunk
SBk:_TypeDelegator_get_MetadataToken_m1727717650
wyl:_Nullable_1_get_Value_m1118025076_AdjustorThunk
uG:__ZN11UnityEngine15CloudWebService25WebRequestDownloadHandler17OnCompleteContentEv
k7:__ZN6prcore17GetIntegerBlitterE13TextureFormatS0_N14ImageReference8BlitModeE
QNl:_EqualityComparer_1_IndexOf_m1857871447_gshared
J$c:__ZN5physx10PxsContext20createContactManagerERKNS_24PxvManagerDescRigidRigidEPNS_18PxsMaterialManagerE
Qfg:_X509CertificateCollection_Compare_m1429617303
yRm:__ZN6il2cpp2gc19AppendOnlyGCHashMapINSt3__24pairIPK11Il2CppImageP11Il2CppClassEEP22Il2CppReflectionModule17ReflectionMapHashIS9_ENS2_8equal_toIS9_EEE11TryGetValueERKS9_PSB_
fHj:_TypeDescriptionNode__ctor_m785492559
WZc:__ZN5physx2Cm12DelegateTaskINS_7NpSceneEXadL_ZNS2_12executeSolveEPNS_10PxBaseTaskEEEED0Ev
Occ:__ZN5physx2GuL18gPCMHullPrefetchCBEjPKNS_6PxVec3E
Ftc:__ZN5physx2Sc5Scene31removeActiveBreakableConstraintEPNS0_13ConstraintSimE
S0j:_NodeKeyValueCollection_System_Collections_IEnumerable_GetEnumerator_m445307029
msm:__ZL25UnresolvedVirtualCall_202P12Il2CppObject18OpCode_t2247480392iPK10MethodInfo
XGj:_TypeConverterAttribute__cctor_m506796812
ebe:_XmlTextReaderImpl_AddNamespace_m3720088086
RL:__ZNSt3__26__treeI19RepeatingLogMessageNS_4lessIS1_EE13stl_allocatorIS1_L18MemLabelIdentifier73ELi16EEE12__find_equalIS1_EERPNS_16__tree_node_baseIPvEESD_RKT_
DC:__ZN11AudioSource18IsPlayingScriptingEv
S6h:_ValueType_t3507792607_marshal_pinvoke_back
Avi:_Comparer_1_System_Collections_IComparer_Compare_m1790257529_gshared
kjh:_WebProxy_DeleteScriptEngine_m792896040
e4c:__ZN5physx6shdfnd5ArrayINS_12PxActorShapeENS0_19ReflectionAllocatorIS2_EEE15growAndPushBackERKS2_
Koa:__ZN25MultiBlocksMemoryFileData17AdjustBlocksCountEj
yXn:__Z98RuntimeInvoker_Boolean_t3825574718_PlayableOutputHandle_t551742311_PlayableOutputHandle_t551742311PFvvEPK10MethodInfoPvPS4_
W_m:__ZNSt3__214__split_bufferIN6il2cpp2vm22EmbeddedResourceRecordERNS_9allocatorIS3_EEED2Ev
Q_h:_TimeZoneInfo_AreCStringsEqual_m3166796981
Auj:_TlsClientHello__ctor_m1699671541
v1n:__Z55RuntimeInvoker_RuntimeObject_VoidTaskResult_t3325310798PFvvEPK10MethodInfoPvPS4_
zmh:_X509Certificate2_get_PublicKey_m2119837179
S5l:_Context_NotifyGlobalDynamicSinks_m2916447645
T5f:_DtdValidator_CheckForwardRefs_m1214350739
N_b:__Z27CullingGroup_CUSTOM_DisposeP12Il2CppObject
mwo:__ZL64ZoneIdentityPermission_t639379881_CustomAttributesCacheGeneratorP21CustomAttributesCache
bSd:__ZNSt3__26vectorIP19BaseConnectSettings13stl_allocatorIS2_L18MemLabelIdentifier6ELi16EEE21__push_back_slow_pathIKS2_EEvRT_
gFn:__Z90RuntimeInvoker_Void_t1841601450_Int32_t2071877448_Int32_t2071877448_BooleanU26_t3168250738PFvvEPK10MethodInfoPvPS4_
Nvn:__Z73RuntimeInvoker_RuntimeObject_TIME_DYNAMIC_ZONE_INFORMATIONU26_t3569960883PFvvEPK10MethodInfoPvPS4_
Oxb:__ZN13ComputeShader15SetTextureParamEjRKN9ShaderLab16FastPropertyNameE9TextureID16TextureDimension
sIc:__ZN5physx2Sc14ConstraintCore8setFlagsENS_7PxFlagsINS_16PxConstraintFlag4EnumEtEE
Yri:_InternalEnumerator_1_get_Current_m1715820327_gshared
Sm:_glStencilMask
uLn:__Z70RuntimeInvoker_Boolean_t3825574718_Int16_t4041245914_Int32_t2071877448PFvvEPK10MethodInfoPvPS4_
acn:__ZN6il2cpp2os10ThreadImpl16GetCurrentThreadEv
wud:__ZNK5physx2Sc15ClothFabricCore20getNbParticleIndicesEv
cOb:__ZN15GUIEventManager10QueueEventERK10InputEvent
Gyi:_Enumerator_System_Collections_IEnumerator_get_Current_m2010873149_gshared
sXl:_ConfigurationElementCollection_BaseRemoveAt_m1402001296
mgi:_File_get_DefaultLocalFileTime_m2134398062
eDg:_SharedStatics__cctor_m2923086392
SFf:_Array_InternalArray__IReadOnlyList_get_Item_TisKeyValuePair_2_t3716250094_m2160520652_gshared
Vij:_RealProxy__ctor_m2505535530
MQh:_XmlAttribute_CloneNode_m1501462364
Lkn:_GC_push_conditional_with_exclusions
V4h:_UInt32_System_IConvertible_ToUInt16_m2798641702_AdjustorThunk
vMg:_InternalEncoderBestFitFallbackBuffer_Fallback_m2725725648
lso:__ZL96ThreadPool_t3989917080_CustomAttributesCacheGenerator_ThreadPool_RequestWorkerThread_m2573918450P21CustomAttributesCache
IQn:__Z136RuntimeInvoker_Void_t1841601450_Int32_t2071877448_RuntimeObject_RuntimeObject_RuntimeObject_RuntimeObject_RuntimeObject_SByte_t454417549PFvvEPK10MethodInfoPvPS4_
MGe:_RegexNode_MakeQuantifier_m2358769096
Ozk:_MonoProperty_GetOptionalCustomModifiers_m3827844355
_vg:_ZoneIdentityPermission_IsSubsetOf_m3703492620
jbl:_RegistryKey__ctor_m1278683853
JCe:_X509EnhancedKeyUsageExtension_get_EnhancedKeyUsages_m1809797100
Xsc:__ZN5physx2Sc7BodySim6wakeUpEv
cyg:_FirstMatchCodeGroup__ctor_m4229592248
OMo:__ZL102UnmanagedMemoryStream_t822875729_CustomAttributesCacheGenerator_UnmanagedMemoryStream_Read_m2169576987P21CustomAttributesCache
BZf:_StringParser_ParseInt_m4272245340
n$d:_XmlNode_AppendChildText_m3982558785
tlp:_MouseOverMaterialSwap_OnPointerEnter_m994440246
Xcn:__ZN6il2cpp2os13LibraryLoader18GetFunctionPointerEPvRK16PInvokeArguments
Nik:_List_1_Sort_m3499938865_gshared
yfn:_WriteZStream
mel:_SimpleCollator_GetSortKey_m2188419329
z$c:__ZN5physx6shdfnd8PoolBaseINS_2Gu30LargePersistentContactManifoldENS0_19ReflectionAllocatorIS3_EEE17releaseEmptySlabsEv
stc:__ZN5physx2Sc21ConstraintInteraction7destroyEv
ljj:_RealProxy_GetTransparentProxy_m4192467161
hbk:_Enumerator_MoveNextRare_m627598676_AdjustorThunk
gfi:_MonoIO_ExistsSymlink_m2976617763
L$b:__Z33Register_UnityEngine_Random_Rangev
Wdd:__ZN5physx13PxsSolverCoreD2Ev
Pvp:__ZNSt3__211__money_putIwE8__formatEPwRS2_S3_jPKwS5_RKNS_5ctypeIwEEbRKNS_10money_base7patternEwwRKNS_12basic_stringIcNS_11char_traitsIcEENS_9allocatorIcEEEERKNSE_IwNSF_IwEENSH_IwEEEESQ_i
VCa:__ZN14RenderSettings27UpdateIndirectSpecularColorEv
uOi:_TailStream__ctor_m3094054062
KWa:__ZN14PlayerSettings8TransferI18StreamedBinaryReadILb0EEEEvRT_
E0l:_FixedBufferAttribute__ctor_m2048050068
sIm:__ZN6il2cpp6icalls8mscorlib6System8MonoType16GetMethodsByNameEP20Il2CppReflectionTypeP12Il2CppStringibS5_
WAo:__ZL111BinaryMethodReturnMessage_t3642132829_CustomAttributesCacheGenerator_BinaryMethodReturnMessage__ctor_m198070324P21CustomAttributesCache
Igm:_Logger_Log_m302200299
T3f:_Datatype_unsignedShort_get_TypeCode_m969191128
w4e:_Convert_ToSingle_m3186653037
d1c:__ZNK5physx7NpScene16getNbConstraintsEv
DPl:_EqualityComparer_1_CreateComparer_m2134235622_gshared
aPc:__ZN5physx7NpCloth14setWakeCounterEf
fMa:__ZN4PPtrI10GameObjectE8TransferI14SafeBinaryReadEEvRT_
xBi:_KeyCollection_System_Collections_Generic_ICollectionU3CTKeyU3E_get_IsReadOnly_m2415450361_gshared
upk:_List_1_get_Capacity_m3831249151_gshared
pub:__ZNSt3__27__sort3IRNS_4lessIN22BuiltinResourceManager8ResourceEEEPS3_EEjT0_S7_S7_T_
mCg:_SecurityManager_InitializePolicyHierarchy_m3054073013
Lfh:_TimerNode_get_Next_m669767671
fji:_MonoIO_GetLength_m2812344043
Wsn:__Z52RuntimeInvoker_Boolean_t3825574718_Int32_t2071877448PFvvEPK10MethodInfoPvPS4_
uce:_XmlTextReaderImpl_SetErrorState_m1559915765
bSa:__ZN10BlendShape8TransferI19StreamedBinaryWriteILb0EEEEvRT_
MWk:_Queue_1_GetElement_m1517520907_gshared
P5o:__ZL114AttributeCollection_t1925812292_CustomAttributesCacheGenerator_AttributeCollection__ctor_m701388612____attributes0P21CustomAttributesCache
Sde:_ParsingState_get_LineNo_m3885205370_AdjustorThunk
Nvd:__ZNK5physx2Gu11HeightField17getReferenceCountEv
vUd:_XmlConfigurationString__cctor_m2272004353
at:__Z32TransferEnumWithNameForceIntSizeI14SafeBinaryReadN10SampleClip8LoadTypeEEvRT_RT0_PKc17TransferMetaFlags
Axf:__Z21il2cpp_codegen_sizeofP11Il2CppClass
sba:__Z19GetTimeSinceStartupv
ril:_InternalEnumerator_1_get_Current_m1364852572_gshared
QEa:__ZN7Texture23VirtualRedirectTransferER17RemapPPtrTransfer
Iuk:_FieldInfo_GetPseudoCustomAttributes_m2500972355
Rbn:__ZN6il2cpp2os10ThreadImpl11SetPriorityENS0_14ThreadPriorityE
h8k:_ReadOnlyCollection_1__ctor_m3401761375_gshared
OEj:_PropertyDescriptorCollection_System_Collections_IEnumerable_GetEnumerator_m1233007566
cmp:_UpdateManager__ctor_m3232789847
_Yg:_Task_Dispose_m1062687037
Emm:_AesCryptoServiceProvider_CreateEncryptor_m3502714394
Eao:__ZL66RuntimeArray_CustomAttributesCacheGenerator_Array_Sort_m2323017822P21CustomAttributesCache
MNk:__ZN23InterfaceActionInvoker2IP22UInt32U5BU5D_t59386216iE6InvokeEjP11Il2CppClassP12Il2CppObjectS1_i
Frg:_Array_Sort_m2994254654
bmp:_TriggerEventHandler_Assets_GameLogic_Core_IUnityEvent_RemoveListener_m3775636985
izf:_Array_qsort_TisUInt64_t2909196914_TisRuntimeObject_m1244253166_gshared
mBb:__ZN29RenderNodeQueuePrepareContextC2Ev
CB:__ZN10SampleClipC2E18MemLabelIdentifier18ObjectCreationMode
S4o:__ZL138WebRequestModulesSection_t3717257007_CustomAttributesCacheGenerator_WebRequestModulesSection_t3717257007____WebRequestModules_PropertyInfoP21CustomAttributesCache
_2a:__ZN9ShaderLab20SerializedSubProgram16TextureParameter8TransferI24GenerateTypeTreeTransferEEvRT_
n7n:__Z36RuntimeInvoker_Enumerator_t751454897PFvvEPK10MethodInfoPvPS4_
jfk:_List_1__ctor_m2264532859_gshared
TZ:__ZN9GfxDevice19SaveStereoConstantsEv
Mfh:_TimerNode_set_Next_m739828266
WUh:_Thread_set_Name_m1343706609
s_o:__ZL115MonoTlsSettings_t302829305_CustomAttributesCacheGenerator_MonoTlsSettings_t302829305____EnabledCiphers_PropertyInfoP21CustomAttributesCache
hon:__ZN6il2cpp2os11MutexHandle4WaitEj
hZb:__ZL34GetComponentsImplementationRecurseILb1ELi1ELi1EEbR10GameObjectbRK17CompareParametersRK39GetComponentsImplementation_ReturnValue
_og:_AppDomain_ValidateAssemblyName_m1517758367
gon:__ZN6il2cpp2os11MutexHandle4WaitEv
fVe:_ArrayList_set_Capacity_m592558035
rPe:_UriParser_Resolve_m377453988
WUf:_GregorianCalendar__cctor_m645909093
d9:__ZN6prcoreL17RemapGenericFloatI15TexFormatRGHalf18TexFormatARGBFloatEEvPKNS_9InnerInfoE
wPk:_List_1_Sort_m3628344987_gshared
Yko:__ZL81Number_t2840369917_CustomAttributesCacheGenerator_Number_NumberToInt32_m798976591P21CustomAttributesCache
m3g:_DtdParser_ScanQName_m946018282
$Da:__ZNK13RenderTexture13GetDataHeightEv
g6n:__Z28RuntimeInvoker_DS_t769197341PFvvEPK10MethodInfoPvPS4_
WWj:_CFNetwork_CopyProxiesForURL_m1364827038
Usb:__Z18SimulateMouseInputi
Kbi:_Int64_System_IConvertible_ToDecimal_m3390697048_AdjustorThunk
gxb:__ZN13RenderManager23AddRemoveCamerasDelayedEv
FTl:_Configuration_get_SectionGroups_m2782934403
b4b:__ZN9JSONWrite8TransferI13dynamic_arrayIdLj8EEEEvRT_PKc17TransferMetaFlags
yla:__ZN23PreloadManagerOperation11GetPriorityEv
rNf:_Exception_get_InnerException_m3722561235
wrh:_Array_InternalArray__ICollection_Remove_TisILTokenInfo_t149559338_m1523907845_gshared
gMd:__ZN11UnityEngine9Analytics15AnalyticsConfigC2Ev
O2c:__ZN5physx2Sq17SceneQueryManager11shiftOriginERKNS_6PxVec3E
Lll:_InternalEnumerator_1_System_Collections_IEnumerator_Reset_m138745466_AdjustorThunk
skk:_List_1_System_Collections_IEnumerable_GetEnumerator_m1293008625_gshared
LId:__ZNK5Unity5Joint16GetCurrentForcesER8Vector3fS2_
bph:_Array_InternalArray__ICollection_Contains_TisDS_t769197341_m1351259248_gshared
cpe:_XmlSchemaDatatype_FromXdrName_m2468788891
pJb:__ZN13RenderTexture8SetWidthEi
$Qb:__ZNK28RectTransformPropertyBinding12SetPPtrValueERKN11UnityEngine9Animation10BoundCurveEi
Slm:_WhereListIterator_1_MoveNext_m2627973827_gshared
Smb:__Z18Transfer_BlittableI18StreamedBinaryReadILb0EELb0EfEvRK29SerializationCommandArgumentsR31RuntimeSerializationCommandInfo
Ubk:_List_1_Contains_m4069231050_gshared
nSa:__ZN10MeshFilterD0Ev
rJn:__Z89RuntimeInvoker_RuntimeObject_RuntimeFieldHandle_t2331729674_RuntimeTypeHandle_t2330101084PFvvEPK10MethodInfoPvPS4_
bxe:_XmlSchemaAttributeGroup_get_AttributeWildcard_m697392702
yDb:__Z25SetupObjectBakedOcclusionbRK15SharedLightDataRK26SharedLightmapSettingsDataRK15LightmapIndicesR17ShaderPassContext
RZe:_SyncHashtable_GetObjectData_m3774367030
cWf:_JapaneseCalendar_get_TwoDigitYearMax_m2788080350
uPi:_RijndaelManagedTransform_SubWord_m3554571150
Kth:_Array_InternalArray__IEnumerable_GetEnumerator_TisXPathNode_t3118381855_m4234566303_gshared
z7i:_GenericTypeParameterBuilder_GetMember_m1788641390
uXf:_Guid_GetHashCode_m1401300871
Kul:_InternalEnumerator_1_Dispose_m30795463_AdjustorThunk
zqi:_InternalEnumerator_1_get_Current_m216200531_AdjustorThunk
kQf:_CultureData_GetCultureData_m1126226775
C3g:_ContentValidator_get_ContentType_m498323096
W7d:_XmlTextReader_MoveToAttribute_m4154328907
b4o:__ZL97SocketAsyncEventArgs_t2815111766_CustomAttributesCacheGenerator_U3CAcceptSocketU3Ek__BackingFieldP21CustomAttributesCache
h0f:_Datatype_ENUMERATION__ctor_m2278694680
n6e:_DateTimeParse_ParseTimeZone_m702329933
$Kc:__ZNK5physx9NpFactory11getNbShapesEv
GQk:_List_1_System_Collections_Generic_ICollectionU3CTU3E_get_IsReadOnly_m1255791861_gshared
lmc:__ZN5physx3Cct15ObstacleContextD2Ev
N2j:_StringCollection_CopyTo_m3768890603
LNn:__Z75RuntimeInvoker_Void_t1841601450_Int32_t2071877448_IntPtr_t_SByte_t454417549PFvvEPK10MethodInfoPvPS4_
dCc:__ZNK5physx15NpActorTemplateINS_18PxArticulationLinkEE8getSceneEv
aM:__ZN9ShaderLab16FastPropertyName4InitEPKc
LMj:_DeflateStream_WriteInternal_m1685486359
rVg:_ParameterizedThreadStart__ctor_m1215446210
fQb:__Z13RegisterClassIN2UI13RectTransformEEvv
c4k:_ReadOnlyCollection_1_get_Count_m66785333_gshared
Bdl:_MSCompatUnicodeTable_ToWidthCompat_m2299599532
Rlf:_ObjectHolder_get_IsIncompleteObjectReference_m1481408151
Pyl:_Nullable_1_GetHashCode_m1859855859_gshared
Y_i:_NumberFormatter_get_IsFloatingSource_m2830957202
WTb:__ZL31MeshRendererTransformChangedJobP13BoundsJobDatajPK23TransformAccessReadOnlyPKyj
w6b:__ZN8JSONRead21TransferSTLStyleArrayI31ArrayOfManagedObjectsTransfererEEvRT_17TransferMetaFlags
Tzi:_Enumerator_MoveNext_m1388125215_gshared
NOa:__ZN10VertexData8TransferI17RemapPPtrTransferEEvRT_
FDa:__ZN13RenderTexture9SetMipMapEb
QLj:_TraceListenerCollection_System_Collections_IList_Remove_m3849427439
esp:__ZNKSt3__27num_getIwNS_19istreambuf_iteratorIwNS_11char_traitsIwEEEEE6do_getES4_S4_RNS_8ios_baseERjRm
FEl:_Task_1_GetResultCore_m410448687_gshared
O4d:_XmlProcessingInstruction_get_InnerText_m1066111834
KDf:_Array_InternalArray__get_Item_TisEntry_t827949121_m1519311144_gshared
$rp:__ZNKSt3__27num_getIwNS_19istreambuf_iteratorIwNS_11char_traitsIwEEEEE6do_getES4_S4_RNS_8ios_baseERjRb
_md:__ZN5physx2Sc10ClothShape21updateBoundsInAABBMgrEv
isp:__ZNKSt3__27num_getIwNS_19istreambuf_iteratorIwNS_11char_traitsIwEEEEE6do_getES4_S4_RNS_8ios_baseERjRe
z$i:_OperatingSystem_GetObjectData_m2276196875
HFj:_ReflectedTypeData_GetAttributes_m1102268639
fsp:__ZNKSt3__27num_getIwNS_19istreambuf_iteratorIwNS_11char_traitsIwEEEEE6do_getES4_S4_RNS_8ios_baseERjRy
Hgp:_ResourceRequest_t2560315377_marshal_pinvoke_back
Vog:_AppDomain_get_FriendlyName_m4088940918
cBm:__ZN14dense_hash_mapI10KeyWrapperIPK11Il2CppClassEPKcN6il2cpp5utils11PointerHashIS1_EENS4_14EqualsComparerINSt3__28equal_toIS3_EEEENSC_9allocatorINSC_4pairIKS4_S6_EEEEEC2EjRKSA_RKSF_
Pdl:_U3CU3Ec_U3CBuildTailoringTablesU3Eb__17_0_m3793730423
eBi:_Enumerator_System_Collections_IEnumerator_Reset_m3344301146_gshared
csp:__ZNKSt3__27num_getIwNS_19istreambuf_iteratorIwNS_11char_traitsIwEEEEE6do_getES4_S4_RNS_8ios_baseERjRt
IUe:_Char_IsNumber_m2596299025
B9n:__ZL73AppDomain_t2719102437_CustomAttributesCacheGenerator_FirstChanceExceptionP21CustomAttributesCache
etk:_TypeBuilderInstantiation__ctor_m3523725881
Pqo:__ZL114ExecutionContext_t1392266323_CustomAttributesCacheGenerator_ExecutionContext_EstablishCopyOnWriteScope_m3720935657P21CustomAttributesCache
mCo:__ZL66CriticalFinalizerObject_t1920899984_CustomAttributesCacheGeneratorP21CustomAttributesCache
nRm:__ZNK15dense_hashtableINSt3__24pairIK10KeyWrapperINS1_IPK10MethodInfoP11Il2CppClassEEEjEES9_17ReflectionMapHashIS8_EN14dense_hash_mapIS9_jSD_NS9_14EqualsComparerINS0_8equal_toIS8_EEEENS0_9allocatorISB_EEE9SelectKeyESI_SK_E5beginEv
Lfo:__ZL58ConsoleModifiers_t118142373_CustomAttributesCacheGeneratorP21CustomAttributesCache
iaa:__ZN7ApiGLES19UploadBufferSubDataEjN2gl12BufferTargetEllPKv
bum:__ZL25UnresolvedVirtualCall_299P12Il2CppObjectiPK10MethodInfo
fbd:__ZN5physx2Sc5Scene17createClothSolverEv
kY:__ZNSt3__216__rotate_forwardINS_11__wrap_iterIPN4core12basic_stringIcNS2_20StringStorageDefaultIcEEEEEEEET_S9_S9_S9_
$Fg:_String_System_IConvertible_ToInt32_m1927223638
OT:__ZdaPv
gTc:__ZNK5physx15PxsParticleData16getMaxParticlesVEv
Pxe:_XmlSchemaComplexContent_get_IsMixed_m1225296133
w_k:_ReadOnlyCollection_1_System_Collections_Generic_ICollectionU3CTU3E_Remove_m3548800750_gshared
aDj:_EventDescriptorCollection_System_Collections_IList_set_Item_m661286160
Vfm:_FailedToLoadScriptObject_t3605283378_marshal_pinvoke_back
xFd:__ZThn116_N5physx7profile8ZoneImplINS_28PxProfileNameProviderForwardEE12removeClientERNS_19PxProfileZoneClientE
MIe:_RegexCompiler_TrackUnique_m3225227186
jVf:_GregorianCalendarHelper_GetMonth_m1176923804
E7k:_ReadOnlyCollection_1_get_Count_m1427185218_gshared
k2d:_XmlNode_set_LastNode_m213385911
_hl:_InternalEnumerator_1_get_Current_m3003696592_AdjustorThunk
Dgd:__ZN15MBP_PairManager17removeMarkedPairsEPK10MBP_ObjectPN5physx16PxsBroadPhaseMBPERK8BitArrayS8_
hwi:_Comparer_1_CreateComparer_m1409511867_gshared
kti:_ArraySegment_1_System_Collections_Generic_ICollectionU3CTU3E_Contains_m38764074_AdjustorThunk
hHg:_ASCIIEncoding__ctor_m4127831672
Fdm:_GameObject_GetComponent_m724360550
Ewo:__ZL71AsymmetricSignatureFormatter_t4058014248_CustomAttributesCacheGeneratorP21CustomAttributesCache
Wbb:__Z19TransferField_ArrayI14SafeBinaryRead27Converter_SimpleNativeClassI8GUIStyleEEvRK23StaticTransferFieldInfoR31RuntimeSerializationCommandInfoRT0_
xpb:__ZN9TextAsset23VirtualRedirectTransferER19StreamedBinaryWriteILb0EE
yfi:_MonoIO_GetCurrentDirectory_m1509324201
n3m:__ZN15dense_hashtableINSt3__24pairIK10KeyWrapperIP14Il2CppIUnknownEjEES5_N6il2cpp5utils11PointerHashIS3_EEN14dense_hash_mapIS5_jSB_NS5_14EqualsComparerINS0_8equal_toIS4_EEEENS0_9allocatorIS7_EEE9SelectKeyESG_SI_ED2Ev
Qnn:__ZN6il2cpp5utils10MemoryPoolC2Ej
x3g:_DtdParser_get_SupportNamespaces_m1165813994
CYd:_XmlDocument_CreateDefaultAttribute_m2458286064
rCa:__ZN14RenderSettings5ResetEv
ZOb:__ZN6Sprite9BindAtlasERK4PPtrI11SpriteAtlasE
O0b:__ZN5Unity9rapidjson12GenericValueINS0_4UTF8IcEE13JSONAllocatorE10FindMemberIS4_EENS0_21GenericMemberIteratorILb0ES3_S4_EERKNS1_IS3_T_EE
yKc:__ZN5physx9NpPhysics33unregisterDeletionListenerObjectsERNS_18PxDeletionListenerEPKPKNS_6PxBaseEj
wtk:_TypeBuilderInstantiation_get_Namespace_m845291744
NPf:_CompareInfo_OnSerializing_m3084970577
_Qc:__ZNK5physx2Sc9ClothCore22getAngularInertiaScaleEv
Ctp:__ZNKSt3__28time_getIcNS_19istreambuf_iteratorIcNS_11char_traitsIcEEEEE13__get_weekdayERiRS4_S4_RjRKNS_5ctypeIcEE
Kak:_Enumerator_MoveNext_m1386285227_AdjustorThunk
nkg:_Uri_EscapeString_m2540923847
QXg:_U3CU3Ec__cctor_m614682562
n1b:__ZN5Unity9rapidjson13GenericReaderINS0_4UTF8IcEES3_13JSONAllocatorE11ParseNumberILj1ENS0_25GenericInsituStringStreamIS3_EENS0_15GenericDocumentIS3_S4_S4_EEEEvRT0_RT1_
iki:_U3CU3Ec_U3CBeginEndWriteAsyncU3Eb__53_1_m1082158668
hCc:__ZN5physx20NpRigidActorTemplateINS_18PxArticulationLinkEE12setActorFlagENS_11PxActorFlag4EnumEb
Jxf:_Array_qsort_TisByte_t3683104436_m3355607841_gshared
elo:__ZL79Number_t2840369917_CustomAttributesCacheGenerator_Number_ParseInt32_m3687883210P21CustomAttributesCache
XKo:__ZL52SearchOption_t3245573_CustomAttributesCacheGeneratorP21CustomAttributesCache
Lbn:__ZN6il2cpp2os10ThreadImplD2Ev
mjg:_RSAManaged_Dispose_m3018788098
e2b:__ZN8Gradient8TransferI9JSONWriteEEvRT_
fVg:_Monitor_Monitor_pulse_m2135582245
X3g:_HWStack_Clone_m575239372
Lvj:_Context_get_ReceivedConnectionEnd_m3369356276
Ksf:_SByte_TryParse_m2461143221
s1j:_NameObjectCollectionBase_get_Count_m2353593692
ymk:_List_1_Sort_m1408005355_gshared
HQf:_CultureData_MonthNames_m4061189154
bla:__ZNK12TLSAllocatorI14StackAllocatorE22GetAllocatedMemorySizeEv
DHo:__ZL54AssemblyName_t894705941_CustomAttributesCacheGeneratorP21CustomAttributesCache
Ypf:_RuntimeType_get_Name_m2394991086
S3e:_Convert_ToUInt32_m3394039268
LKo:__ZL52Directory_t3318511961_CustomAttributesCacheGeneratorP21CustomAttributesCache
hYb:__Z32GetSceneHierarchyPathDescriptivePK6Object
Zz:__ZNK7WeakPtrI20SoundChannelInstanceE10SharedData9GetRawPtrEv
f7a:__ZN12HandlerChain4NameEv
Z8b:__ZN11UnityEngine9Analytics18RenderingInfoEventD0Ev
Ptk:_TypeBuilderInstantiation_IsPrimitiveImpl_m1223669346
cn:FUNCTION_TABLE_fiiiiiifiiiiiif
YUa:__ZNSt3__26vectorI9InputAxisNS_9allocatorIS1_EEE10deallocateEv
kYo:__ZL106XmlSchemaFacet_t614309579_CustomAttributesCacheGenerator_XmlSchemaFacet_t614309579____IsFixed_PropertyInfoP21CustomAttributesCache
Spd:__ZN5physx37setupFinalizeSolverConstraintsCoulombERNS_13PxcNpWorkUnitERKNS_2Gu13ContactBufferERKNS_27PxcCorrelationBufferCoulombERKNS_11PxTransformESB_bPhRKNS_13PxcSolverBodyESF_RKNS_17PxcSolverBodyDataESI_ffjffff
Vhh:_WebConnectionStream_ReadCallbackWrapper_m2960324003
X8h:_Int16_Equals_m3925135434_AdjustorThunk
A7j:_Enumerator_MoveNext_m4102275309_AdjustorThunk
sym:__ZN15dense_hashtableINSt3__24pairIK10KeyWrapperIPK22Il2CppGenericParameterEP11Il2CppClassEES6_N6il2cpp5utils11PointerHashIS4_EEN14dense_hash_mapIS6_S9_SE_NS6_14EqualsComparerINS0_8equal_toIS5_EEEENS0_9allocatorISA_EEE9SelectKeyESJ_SL_ED2Ev
Vno:__ZL60IHashCodeProvider_t1980576455_CustomAttributesCacheGeneratorP21CustomAttributesCache
CQb:__ZN13ProduceHelperI13MonoBehaviourLb0EE7ProduceE18MemLabelIdentifier18ObjectCreationMode
jlm:_Iterator_1_Dispose_m971384747_gshared
ENb:__Z29StdTemplateConversionFunctionIbbEbPvR14SafeBinaryRead
Mqm:__ZL25UnresolvedVirtualCall_120P12Il2CppObjectiS0_S0_S0_S0_S0_S0_PK10MethodInfo
Z9a:__Z44InitializeTransferFunctionScriptingTraitsForI17RemapPPtrTransferEvR31TransferFunctionScriptingTraits
vkf:_SerializationInfoEnumerator_MoveNext_m1876990879
lLb:__ZN14UnityWebStream24UpdateAllUnityWebStreamsEv
Gjk:_List_1_RemoveRange_m3900741261_gshared
RQb:__ZNSt3__26vectorI16MessageForwarder13stl_allocatorIS1_L18MemLabelIdentifier7ELi8EEE6resizeEj
Nye:_XmlSchemaDatatype_get_TypeCodeString_m3691763136
ayh:_Array_InternalArray__IndexOf_TisNamespace_t1808381789_m2735575870_gshared
Alo:__ZL60ObsoleteAttribute_t3878847927_CustomAttributesCacheGeneratorP21CustomAttributesCache
kvk:_MemberInfoSerializationHolder_GetSerializationInfo_m3675995431
Zuj:_Context_get_HandshakeState_m3443153737
ZPn:__Z157RuntimeInvoker_Void_t1841601450_RuntimeObject_RuntimeObject_RuntimeObject_RuntimeObject_Int32_t2071877448_Int32_t2071877448_SByte_t454417549_SByte_t454417549PFvvEPK10MethodInfoPvPS4_
$El:_Task_1_GetResultCore_m88725665_gshared
Efd:__ZN5physx31ComputeCreatedDeletedPairsListsEPKjS1_jRPNS_17PxcBroadPhasePairERjS5_S4_S5_S5_RNS_14SapPairManagerE
$Ya:__ZN18LoadSceneOperation21MustCompleteNextFrameEv
g8m:__ZN6il2cpp2os6Socket7CleanupEv
x$k:_ReadOnlyCollection_1_CopyTo_m980861964_gshared
sRj:_SettingsSectionInternal__ctor_m3804206165
Rrc:__ZL28GeomOverlapCallback_MeshMeshRKN5physx10PxGeometryERKNS_11PxTransformES2_S5_PNS_2Gu12TriggerCacheE
bz:__ZNK12AudioManager16GetAudioListenerEv
jxk:_MonoCMethod_get_Name_m764669486
Tnh:_X509Certificate2ImplMono_get_MonoCertificate_m58922783
jik:_List_1_IsCompatibleObject_m2910484828_gshared
eJg:_EncoderExceptionFallback_get_MaxCharCount_m1656384735
zSj:_CookieCollection_Add_m1645185609
z7o:__ZL48Camera_t189460977_CustomAttributesCacheGeneratorP21CustomAttributesCache
Kie:_XmlSchemaException_get_SourceUri_m514315020
XIb:__ZNSt3__26vectorI11CameraStackNS_9allocatorIS1_EEE8__appendEj
Q_m:__ZNSt3__212basic_stringIcNS_11char_traitsIcEENS_9allocatorIcEEE6__initINS_11__wrap_iterIPcEEEENS_9enable_ifIXsr21__is_forward_iteratorIT_EE5valueEvE4typeESB_SB_
Gkd:__ZN5physx2Gu16pcmContactBoxBoxERKNS0_13GeometryUnionES3_RKNS_11PxTransformES6_RKfRNS0_5CacheERNS0_13ContactBufferE
j5h:_UInt32_System_IConvertible_ToType_m747769316
SLd:__ZN11UnityEngine9Analytics15UserCustomEvent12CustomParams6InsertEPKcRNS1_11CustomValueE
sQj:_ConnectionManagementElement__ctor_m3149898649
cHp:_glDeleteVertexArrays__wrapper
ujb:__Z29Transfer_Blittable_ArrayFieldI19StreamedBinaryWriteILb0EEjEvRT_R9ArrayInfoRK23StaticTransferFieldInfo
MR:__Z13GetFileSystemv
QUb:__ZZL23RegisterLightPropertiesR22GenericPropertyBindingEN29Wrapper_LightColorTemperature13SetFloatValueEPvf
dT:__ZNK5Unity4Type21FindAllDerivedClassesER13dynamic_arrayIPKS0_Lj4EENS0_17TypeFilterOptionsE
KT:__ZN13RuntimeStaticI15GUIEventManagerLb0EE16StaticInitializeEPv
aob:__ZL12InvokeMethodI18StreamedBinaryReadILb0EEEvRK29SerializationCommandArgumentsR31RuntimeSerializationCommandInfo
nLn:__Z110RuntimeInvoker_Int32_t2071877448_RuntimeObject_Int32_t2071877448_RuntimeObject_Int32_t2071877448_RuntimeObjectPFvvEPK10MethodInfoPvPS4_
uUf:_DaylightTime_get_Delta_m2316831491
AEd:__ZN15RaycastCallback14processTouchesEPKN5physx12PxRaycastHitEj
RPl:_EqualityComparer_1_System_Collections_IEqualityComparer_GetHashCode_m2683083800_gshared
Zrf:_RuntimeTypeHandle_GetToken_m1347023825
klp:_Map_IsCovered_m2481668935
pXh:_WaitHandle_WaitOne_m370363697
wOn:__Z37RuntimeInvoker_XmlNodeType_t739504597PFvvEPK10MethodInfoPvPS4_
zXf:_TaiwanCalendar_GetDayOfMonth_m281711589
$Vh:_ThreadPoolWorkQueue__ctor_m3161236945
EMf:_Environment_ExpandEnvironmentVariables_m2662085035
hDo:__ZL60MessageDictionary_t4157710479_CustomAttributesCacheGeneratorP21CustomAttributesCache
_wd:__ZN5physx2Gu5RTree15exportExtraDataERNS_22PxSerializationContextE
$Ko:__ZL55BinaryReader_t2491843768_CustomAttributesCacheGeneratorP21CustomAttributesCache
Ivp:__ZNSt3__211__money_putIcE13__gather_infoEbbRKNS_6localeERNS_10money_base7patternERcS8_RNS_12basic_stringIcNS_11char_traitsIcEENS_9allocatorIcEEEESF_SF_Ri
tYo:__ZL110XmlSchemaGroup_t4189650927_CustomAttributesCacheGenerator_XmlSchemaGroup_t4189650927____Redefined_PropertyInfoP21CustomAttributesCache
xAl:_Predicate_1_BeginInvoke_m3457072769_gshared
$xb:__ZN19ShaderPropertySheet9SetMatrixEN9ShaderLab16FastPropertyNameERK10Matrix4x4fNS_8SetFlagsE
Z_d:_XmlElement_get_LastNode_m3581700738
hJf:_Guid_TryParseGuidWithDashes_m3738269342
MVk:_Enumerator_MoveNext_m4036287209_AdjustorThunk
Mfi:_FileSystemInfo_Refresh_m4027829891
BJa:__Z29GetTextureSizeAllowedMultiple13TextureFormat
Ovp:__ZNSt3__211__money_putIwE13__gather_infoEbbRKNS_6localeERNS_10money_base7patternERwS8_RNS_12basic_stringIcNS_11char_traitsIcEENS_9allocatorIcEEEERNS9_IwNSA_IwEENSC_IwEEEESJ_Ri
Aee:_XmlTextWriter_get_WriteState_m3919550580
oad:__ZNK5physx2Sq10AABBPruner7overlapERKNS0_9ShapeDataERNS0_14PrunerCallbackE
Dak:_Enumerator_System_Collections_IEnumerator_Reset_m865521125_gshared
gtm:__ZL25UnresolvedVirtualCall_250P12Il2CppObjectS0_fiiPK10MethodInfo
S5e:_DateTimeParse_GetDayOfNNY_m1809796654
Qvb:__ZZ23InitPlayerLoopCallbacksvEN52InitializationAsyncUploadTimeSlicedUpdateRegistrator7ForwardEv
Csg:_SecurityAttribute__ctor_m3425755778
HYn:__Z68RuntimeInvoker_RuntimeObject_Vector3_t2243707580_Vector3_t2243707580PFvvEPK10MethodInfoPvPS4_
FLm:_il2cpp_array_element_size
A$c:__ZN5physx6shdfnd5ArrayIPvNS0_19ReflectionAllocatorINS_2Gu30LargePersistentContactManifoldEEEE4copyINS0_15InlineAllocatorILj256ES6_EEEEvRKNS1_IS2_T_EE
LUj:_FileWebRequest_Abort_m2554867697
eIh:_XmlSchemaType_get_IsMixed_m2006177430
TKj:_SwitchElement__ctor_m894061211
mg:_glCheckFramebufferStatus
h4n:__Z50RuntimeInvoker_Entry_t4214607081_Int32_t2071877448PFvvEPK10MethodInfoPvPS4_
oWm:__ZN15dense_hashtableINSt3__24pairIK10KeyWrapperIPK14Il2CppAssemblyEPK22Il2CppMonoAssemblyNameEES6_N6il2cpp5utils11PointerHashIS4_EEN14dense_hash_mapIS6_SA_SF_NS6_14EqualsComparerINS0_8equal_toIS5_EEEENS0_9allocatorISB_EEE9SelectKeyESK_SM_E6insertERKSB_
VNn:__Z202RuntimeInvoker_Int32_t2071877448_IntPtr_t_RuntimeObject_RuntimeObject_IntPtr_t_Int32U26_t455636984_RuntimeObject_RuntimeObject_Int32U26_t455636984_RuntimeObject_RuntimeObject_RuntimeObject_RuntimeObjectPFvvEPK10MethodInfoPvPS4_
Avf:_DESTransform_ECB_m2629024873
wFi:_ValueCollection_System_Collections_IEnumerable_GetEnumerator_m2073222998_gshared
Iri:_InternalEnumerator_1_System_Collections_IEnumerator_get_Current_m790514740_AdjustorThunk
qsd:__ZN5physx2Cm12DelegateTaskINS_2Sc5SceneEXadL_ZNS3_19updateCCDSinglePassEPNS_10PxBaseTaskEEEE11runInternalEv
bBg:_ZoneMembershipCondition_FromXml_m3967372977
Fnc:__ZN5physx6string9sprintf_sEPcjPKcz
jao:__ZL74RuntimeArray_CustomAttributesCacheGenerator_Array_BinarySearch_m2287427837P21CustomAttributesCache
Uzd:__ZThn8_N5physx19TriangleMeshBuilderD1Ev
glj:___BinaryParser_ReadObjectNull_m378048479
y6d:_XmlRegisteredNonCachedStream_Dispose_m3749944235
a2i:__Z37il2cpp_codegen_get_executing_assemblyPK10MethodInfo
Lmf:_TypeLoadExceptionHolder_get_TypeName_m2264588867
Kgc:__ZN5physx2Gu16intersectRayAABBERKNS_6PxVec3ES3_S3_S3_RfS4_
F6a:__ZN9Transform23VirtualRedirectTransferER17RemapPPtrTransfer
LLh:_XsdBuilder_BuildSimpleContentRestriction_Base_m1405297062
PVf:_JapaneseCalendar_get_MaxSupportedDateTime_m2282975214
gCf:_AsyncTaskMethodBuilder_Start_TisRuntimeObject_m1859568167_gshared
pmo:__ZL57TypedReference_t1025199857_CustomAttributesCacheGeneratorP21CustomAttributesCache
zwh:_Array_InternalArray__IndexOf_TisByte_t3683104436_m3605266236_gshared
gmp:_UpdateManager_FixedUpdate_m2289872122
eRf:_CultureInfo_get_Calendar_m2452453688
C4k:_ReadOnlyCollection_1_System_Collections_IList_Contains_m462296829_gshared
BUb:__ZZL23RegisterLightPropertiesR22GenericPropertyBindingEN22Wrapper_LightIntensity13GetFloatValueEPv
Ndg:_SafeGPtrArrayHandle__ctor_m962751512
I1j:_NameValueCollection_Add_m2977622107
rTk:_ObjectEqualityComparer_1_IndexOf_m3980768573_gshared
vKg:_UnicodeEncoding__ctor_m72484327
_pd:__ZN5physx30setupFinalizeSolverConstraintsERNS_13PxcNpWorkUnitERKNS_2Gu13ContactBufferERKNS_20PxcCorrelationBufferERKNS_11PxTransformESB_bPhRKNS_13PxcSolverBodyESF_RKNS_17PxcSolverBodyDataESI_ffffff
Lce:_XmlTextReaderImpl_ChangeCurrentNodeType_m1994081158
hUf:_DateTimeFormatInfo_InsertAtCurrentHashNode_m878668752
tCh:_Array_InternalArray__ICollection_CopyTo_TisBinaryTypeEnum_t2877339122_m2031906560_gshared
v4g:_Ref_Equal_m3436361606
nHc:__ZN5physx7NpScene17releaseBatchQueryEPNS_12PxBatchQueryE
mYm:__ZN6il2cpp2gc9AllocatorIP12Il2CppThreadE10deallocateEPvj
z3d:_XmlNodeReaderNavigator_MoveToAttribute_m2469043676
YYc:__ZN5physx20NpRigidActorTemplateINS_13PxRigidStaticEE11attachShapeERNS_7PxShapeE
RTm:__ZN13Il2CppHashMapIPK14Il2CppAssemblyPK22Il2CppMonoAssemblyNameN6il2cpp5utils11PointerHashIS1_EENSt3__28equal_toIS2_EENSA_9allocatorINSA_4pairIK10KeyWrapperIS2_ES5_EEEEEC2EjRKS9_RKSC_
kPk:_List_1_System_Collections_IList_IndexOf_m147107767_gshared
rpd:__ZN5physx26solveVBlockDefaultFrictionEPNS_13PxsSolverCoreEfjjPNS_13PxcSolverBodyEPNS_17PxcSolverBodyDataEjjPNS_25PxcArticulationSolverDescEjPNS_23PxcSolverConstraintDescEjS9_jRNS_6shdfnd5ArrayINS_24PxsConstraintBatchHeaderENSA_19ReflectionAllocatorISC_EEEESG_PNS_2Cm13SpatialVectorEPNS_25PxcThresholdStreamElementEjRj
tse:_XmlBaseConverter_ToDecimal_m1630711407
xvj:_ClientSessionInfo_SetContext_m2649357891
Htg:_RegistryPermission_IsUnrestricted_m554746079
Bim:_PropertyAttribute__ctor_m1714388149
Fai:_Int32_System_IConvertible_ToInt64_m3790029067_AdjustorThunk
s_f:_TimeSpanTokenizer_t1845673523_marshal_pinvoke
DFc:__ZN5physx15NpActorTemplateINS_18PxArticulationLinkEE17resolveReferencesERNS_24PxDeserializationContextE
KEg:_String_Equals_m2950069882
oAj:_SslStreamBase_InternalReadCallback_m2524917586
RQ:__ZN8Remapper6RemoveEi
jvo:__ZL70EnvironmentPermissionAccess_t3182667772_CustomAttributesCacheGeneratorP21CustomAttributesCache
Esj:_MonoTlsSettings_get_EnabledCiphers_m1160504090
V6c:__ZN5physx19NpRigidBodyTemplateINS_18PxArticulationLinkEE9visualizeERNS_2Cm12RenderOutputEPNS_7NpSceneE
zed:__ZN5physx11writeBack1DERKNS_23PxcSolverConstraintDescERNS_16PxcSolverContextERNS_17PxcSolverBodyDataES6_
_1h:_Type_get_ContainsGenericParameters_m505913180
bMk:__Z30il2cpp_codegen_resolve_pinvokeIPFiPiELj5ELj11EET_RAT0__KcRAT1__S4_20Il2CppCallConvention13Il2CppCharSetib
Szn:__Z52RuntimeInvoker_UInt32_t2149682021_Decimal_t724701077PFvvEPK10MethodInfoPvPS4_
kcc:__ZThn4_N16RayRTreeCallbackILi0ELb0EED0Ev
mJb:__ZN15ReflectionProbe17UseRendererResultEP13ProbeRenderer
urg:_Array_BinarySearch_m3270245097
rii:_FileSystemEnumerableHelpers_IsDir_m4103423272
ifi:_MonoIO_DeleteFile_m3273821223
pzl:_Predicate_1__ctor_m3470414727_gshared
Lfl:_BigInteger_GenerateRandom_m2507308768
xaf:_DateTime_System_IConvertible_ToDouble_m1431748426_AdjustorThunk
sgj:_MethodResponse_System_Runtime_Remoting_Messaging_IInternalMessage_set_TargetIdentity_m1012735553
Xlp:_U3CShakeRoutineU3Ec__Iterator0_Reset_m3336030454
Vph:_Array_InternalArray__ICollection_Contains_TisUInt16_t986882611_m510319131_gshared
N5c:__ZNK5physx2Sc5Scene20getNbParticleSystemsEv
IPo:__ZL94UTF32Encoding_t549530865_CustomAttributesCacheGenerator_UTF32Encoding_GetByteCount_m3218538734P21CustomAttributesCache
rdf:_Decimal_ToString_m541380585
xVd:_XmlConvert_TryToInt16_m1485422103
Owo:__ZL97CryptoStream_t3531341937_CustomAttributesCacheGenerator_CryptoStream_ReadAsyncInternal_m202436906P21CustomAttributesCache
ral:_ExpandString_ToString_m75240801
Ibl:_RegistryKey_get_InternalHandle_m901557358
DOm:__ZN6il2cpp2vm4Type7GetTypeEPK10Il2CppType
Tpe:_XdrBuilder_XDR_BuildGroup_MaxOccurs_m1966539385
bim:_PlayableAsset_get_duration_m1584861105
jOj:_IOAsyncResult_get_CompletedSynchronously_m3214786282
u9c:__ZN5physx2Gu17GetGeomSweepFuncsEv
kvc:__ZN5physx6shdfnd8PoolBaseINS_15PxsArticulationENS0_16AlignedAllocatorILj64ENS0_9AllocatorEEEE17releaseEmptySlabsEv
CLf:_Enum_ToObject_m2601523252
C_i:_Number_ParseInt64_m2718783082
D6l:_InternalAsyncResult_get_FromWrite_m2893408424
V$e:_SyncSortedList_get_SyncRoot_m1229515469
izm:__ZN6il2cpp2vm5Class15GetElementClassEP11Il2CppClass
gff:_Delegate_CreateDelegate_m1706525923
DSc:__ZN5physx22NpParticleBaseTemplateINS_15PxParticleFluidENS_15NpParticleFluidEE23setParticleReadDataFlagENS_22PxParticleReadDataFlag4EnumEb
ALd:__ZN14UnityAnalytics25UnregisterGlobalCallbacksEv
OHb:__Z40ProcessCameraIndexListIsNodeVisibleInOutRK22SceneCullingParametersPK9SceneNodePK4AABBR9IndexList
MPg:_UTF7Encoding_GetBytes_m3015176946
vIj:_ConfigurationException_GetXmlNodeLineNumber_m3219878065
Wya:__ZN16GraphicsSettings8TransferI17RemapPPtrTransferEEvRT_
epj:_BigInteger_op_LessThanOrEqual_m3528380540
FHn:__Z137RuntimeInvoker_Void_t1841601450_RuntimeObject_RuntimeObject_RuntimeObject_RuntimeObject_Int32_t2071877448_Int32_t2071877448_RuntimeObjectPFvvEPK10MethodInfoPvPS4_
rxi:_Enumerator__ctor_m3279905125_AdjustorThunk
tpm:__ZL24UnresolvedVirtualCall_47P12Il2CppObjectS0_PK10MethodInfo
AIa:__ZN7Texture19SupportsAsyncUploadI19StreamedBinaryWriteILb0EEEEbRT_
wdm:_Color_op_Implicit_m3487763211
BOk:_List_1_Sort_m1226837117_gshared
Xzl:_Predicate_1_BeginInvoke_m3556950370_gshared
fMc:__ZN5physx2Gu5Debug9visualizeERKNS_13PxBoxGeometryERNS_2Cm12RenderOutputERKNS5_8Matrix34ERKNS_9PxBounds3Eyfj
NNg:_StringBuilder_ToString_m617673931
MIh:_XmlSchemaValidator_CompleteValidationError_m960141452
GZ:__ZNK13GfxDeviceGLES12GetWireframeEv
aug:_SecurityPermissionAttribute_set_Assertion_m2026819524
aSk:_ObjectComparer_1__ctor_m1388906382_gshared
fBj:_DefaultEventAttribute__cctor_m1343114747
Hac:__ZN5physx6shdfnd5ArrayIPKvNS0_19ReflectionAllocatorIS3_EEE6resizeEjRKS3_
PYf:_TimeSpanResult_SetFailure_m2772690017
ePd:__ZN11UnityEngine7Connect13ConfigHandler12GetListenersERKN4core12basic_stringIcNS2_20StringStorageDefaultIcEEEE
M6f:_FacetsCompiler_SetFlag_m1803832297
j$:__ZN9GfxDevice18AllocRenderSurfaceEb
eqd:__ZN5physx31setupFinalizeSolverConstraints4EPNS_21PxcSolverContact4DescERNS_18PxcNpThreadContextEPhffRKNS_6shdfnd3aos5Vec4VES9_S9_S9_
O1c:__ZN5physx7NpScene5flushEb
UNn:__Z137RuntimeInvoker_Int32_t2071877448_IntPtr_t_RuntimeObject_IntPtr_t_RegistryValueKindU26_t1231633972_Int64U26_t763825331_Int32U26_t455636984PFvvEPK10MethodInfoPvPS4_
xMn:__Z58RuntimeInvoker_FormatLiterals_t2087080800_SByte_t454417549PFvvEPK10MethodInfoPvPS4_
UEl:_Task_1__ctor_m2408210937_gshared
PN:__ZL27CleanupCoreScriptingClassesv
g0f:_Datatype_ENUMERATION_get_TokenizedType_m2593027087
LCj:_EventDescriptorCollection_InternalSort_m2457044943
XWl:_ConfigurationElementCollection__ctor_m3776365441
YMj:_DeflateStream_EndWrite_m644759061
Dye:_XmlSchemaComplexType_HasParticleRef_m176050153
uVn:__Z53RuntimeInvoker_Void_t1841601450_StreamU26_t1763255274PFvvEPK10MethodInfoPvPS4_
zlc:__ZThn8_N5physx3Cct17CapsuleController15getPxControllerEv
ifk:_List_1__ctor_m2634810022_gshared
jrk:_SymbolType_get_BaseType_m590841123
TUk:_ObjectEqualityComparer_1_Equals_m3421534839_gshared
Zoh:_Array_InternalArray__ICollection_Contains_Tisbucket_t976591655_m4004966130_gshared
F$b:__Z26AnimationCurve_CUSTOM_InitP12Il2CppObjectP11Il2CppArray
yvk:_MethodBase_GetMethodFromHandleInternalType_native_m3076791910
CTm:__ZN6il2cpp2vm10Reflection7IsEventEP12Il2CppObject
$qn:__ZNSt3__26__treeINS_12__value_typeIPFvvEPK10MethodInfoEENS_19__map_value_compareIS3_S7_NS_4lessIS3_EELb1EEENS_9allocatorIS7_EEE16__insert_node_atEPNS_16__tree_node_baseIPvEERSI_SI_
YO:__ZN17PersistentManager26GetStreamNameSpaceInternalEi
Bzh:_Array_InternalArray__ICollection_Add_TisEntry_t3655379380_m2356522912_gshared
SAh:_Array_InternalArray__ICollection_Add_TisNamespaceDeclaration_t3577631811_m1740959084_gshared
jt:__ZN4FMOD6System11createSoundEPKcjP22FMOD_CREATESOUNDEXINFOPPNS_5SoundE
CFp:_glRenderbufferStorage__wrapper
xaj:_ModuleBuilder_t4156028127_marshal_pinvoke_cleanup
iNf:_Exception_set_HResult_m2376998645
xGh:_XmlSchemaParticle_get_MaxOccurs_m679464475
n5k:_ReadOnlyCollection_1_get_Item_m3919387105_gshared
k8i:_GenericTypeParameterBuilder_GetGenericParameterConstraints_m1820484100
UOm:__ZN6il2cpp2vm4Type14IsSystemDBNullEPK10Il2CppType
Mom:__ZL24UnresolvedVirtualCall_12P12Il2CppObjectS0_S0_PK10MethodInfo
RFd:__ZThn128_N5physx7profile8ZoneImplINS_28PxProfileNameProviderForwardEED1Ev
WM:__ZN9ShaderLab19CommonPropertyNames13StaticCleanupEPv
wDk:_ResourceManager_CompareNames_m3823500945
hQ:__Z31scripting_method_get_returntype18ScriptingMethodPtr
tyn:__Z45RuntimeInvoker_Int64_t909078037_RuntimeObjectPFvvEPK10MethodInfoPvPS4_
zJj:_DiagnosticsConfigurationHandler_AddSourcesNode_m3218521178
Ulk:_List_1_IsCompatibleObject_m3376558503_gshared
Kad:__ZN5physx2Sq17AABBTreeUpdateMap10invalidateEjjRNS0_8AABBTreeE
M1d:_XmlNamespaceManager_get_DefaultNamespace_m3196089042
QKa:__ZN15SerializeTraitsI12LightmapDataE8TransferI24GenerateTypeTreeTransferEEvRS0_RT_
tJm:__ZN15dense_hashtableINSt3__24pairIK10KeyWrapperIPK9EventInfoEP11Il2CppClassEES6_N6il2cpp6icalls8mscorlib6System19Il2CppEventInfoHashEN14dense_hash_mapIS6_S9_SF_NS6_14EqualsComparerINSE_22Il2CppEventInfoCompareEEENS0_9allocatorISA_EEE9SelectKeyESJ_SL_E8min_sizeEjj
tpd:__ZN5physx28solveParallelDefaultFrictionERNS_18PxsDynamicsContextEjjPNS_13PxcSolverBodyEPNS_17PxcSolverBodyDataEjjPNS_25PxcArticulationSolverDescEjPNS_23PxcSolverConstraintDescEjS9_jPiSA_SA_SA_SA_SA_PNS_25PxcThresholdStreamElementEjSA_PNS_2Cm13SpatialVectorEPKPNS_11PxsBodyCoreERNSD_10BitMapBaseINS_6shdfnd9AllocatorEEEPKPNS_15PxsArticulationEjPViRNSL_5ArrayINS_24PxsConstraintBatchHeaderENSL_19ReflectionAllocatorISW_EEEES10_RNSV_IjNSX_IjEEEES13_PPNS_12PxsRigidBodyEj
GFp:_glStencilOpSeparate__wrapper
asp:__ZNKSt3__27num_getIwNS_19istreambuf_iteratorIwNS_11char_traitsIwEEEEE6do_getES4_S4_RNS_8ios_baseERjRl
ftn:__Z46RuntimeInvoker_Int32_t2071877448_RuntimeObjectPFvvEPK10MethodInfoPvPS4_
lNa:__ZN7Texture13SetAnisoLimitENS_20AnisotropicFilteringE
ZZa:__ZN28LightProbeProxyVolumeManager25UpdateSHCoeffsTextureDataER21LightProbeProxyVolume
Gpa:__Z18CreateDecompressor15CompressionType18MemLabelIdentifier
TA:__ZN11AudioModule16SetListenerPauseEb
DKp:_glDeleteShader__wrapper
t4l:_ChannelData_CopyFrom_m4049054607
li:_emscripten_glCompressedTexSubImage2D
Lba:__ZN13GfxDeviceGLES22MemoryBarrierImmediateEyN2gl17MemoryBarrierTypeE
XX:__ZZN18SpriteAtlasManagerC1EvEN46EarlyUpdateSpriteAtlasManagerUpdateRegistrator7ForwardEv
QJk:_IPEndPoint_GetHashCode_m4274464705
gm:_abort
s2m:__ZN6il2cpp6icalls8mscorlib6System4Type18internal_from_nameEP12Il2CppStringbb
r9:__ZN6prcoreL26RemapGenericFloatToIntegerI18TexFormatARGBFloat17TexFormatARGB8888EEvPKNS_9InnerInfoE
G_f:_Guid__ctor_m543169477
pRf:_CultureInfo_GetCultures_m4202819875
cZb:__Z46GetShaderModelNumericValueFromRequirementsMask18ShaderRequirements
$Cj:_EventDescriptorCollection_System_Collections_IList_get_Item_m1399118971
rKg:_Encoding_get_Latin1_m2686090789
Zzd:__ZN5physx15writeWordBufferEPKtjbRNS_14PxOutputStreamE
GZg:_Task_WrappedTryRunInline_m2007205686
njn:_GC_write
ocn:__ZN6il2cpp2vm6Method8GetClassEPK10MethodInfo
tDe:_X509SubjectKeyIdentifierExtension__ctor_m1109455121
ppm:__ZL24UnresolvedVirtualCall_43P12Il2CppObjectS0_PK10MethodInfo
Ado:__ZL72String_t_CustomAttributesCacheGenerator_String_SplitInternal_m2739035708P21CustomAttributesCache
cgk:_List_1_TrimExcess_m2593580915_gshared
Rie:_XmlSchema_get_BlockDefault_m3167622519
UIk:_HttpWebRequest_U3CSetWriteStreamInnerU3Eb__262_0_m1476374072
TOg:_UnicodeEncoding_GetHashCode_m2443440683
j$d:_XmlLoader_LoadInnerXmlElement_m3440843391
P7b:__Z29Transfer_Blittable_ArrayFieldI8JSONRead10ColorRGBAfEvRT_R9ArrayInfoRK23StaticTransferFieldInfo
E7i:_GenericTypeParameterBuilder_GetPropertyImpl_m3566422383
Ibn:__GLOBAL__sub_I_ThreadImpl_cpp
Ujb:__Z18Transfer_BlittableI18StreamedBinaryReadILb1EELb1EiEvRK29SerializationCommandArgumentsR31RuntimeSerializationCommandInfo
sie:_XmlSchemaException__ctor_m2040281721
ETi:_TripleDES_IsWeakKey_m483013953
xmh:_X509Certificate2_get_PrivateKey_m2662162956
RIf:_StackFrame_GetInternalMethodName_m3997579542
qSm:__ZN15dense_hashtableINSt3__24pairIK10KeyWrapperINS1_IPK12PropertyInfoP11Il2CppClassEEEjEES9_17ReflectionMapHashIS8_EN14dense_hash_mapIS9_jSD_NS9_14EqualsComparerINS0_8equal_toIS8_EEEENS0_9allocatorISB_EEE9SelectKeyESI_SK_E12maybe_shrinkEv
SLk:_NetworkInterface__ctor_m759220571
uXi:_HostProtectionPermission_IsSubsetOf_m974305841
Zsc:__ZN5physx2Sc7BodySim37checkSleepReadinessBesidesWakeCounterEv
E5n:__Z72RuntimeInvoker_Void_t1841601450_AsyncLocalValueChangedArgs_1_t1180157334PFvvEPK10MethodInfoPvPS4_
cKk:_IPv6AddressFormatter_IsIPv4Mapped_m2657168139_AdjustorThunk
tkb:__Z18Transfer_BlittableI18StreamedBinaryReadILb1EELb1EsEvRK29SerializationCommandArgumentsR31RuntimeSerializationCommandInfo
zUk:_ObjectEqualityComparer_1_GetHashCode_m2308379513_gshared
zYd:_XmlDocumentType_get_InternalSubset_m2242322466
pJf:_FormatException__ctor_m333678921
Woe:_XdrBuilder_XDR_BuildElementType_Content_m3499167606
MDg:_Single_System_IConvertible_ToSByte_m3757385387
kze:_XmlSchemaElement_get_FinalResolved_m2733026007
IFe:_RegexFCD__ctor_m531629035
uNd:__ZN22BaseUnityConnectClient17OnEnterStateReadyEv
_cg:_RuntimeGenericParamInfoHandle_GetConstraintsCount_m3415878896_AdjustorThunk
ufg:_SignerInfo__ctor_m627109334
IBd:__ZN15dense_hashtableINSt3__24pairIKiiEEi21InstanceIDHashFunctorN14dense_hash_mapIiiS4_NS0_8equal_toIiEE13stl_allocatorIS3_L18MemLabelIdentifier36ELi16EEE9SelectKeyES7_SA_E9copy_fromERKSD_j
DGc:__ZN5physx2Sc16ArticulationCore14setWakeCounterEf
Y_c:__ZN5physx2Sc10NPhaseCore24createTriggerInteractionERNS0_8ShapeSimES3_NS_7PxFlagsINS_10PxPairFlag4EnumEtEE
Vzh:_Array_InternalArray__ICollection_Add_TisInternalCodePageDataItem_t1742109366_m647995211_gshared
c6h:_UInt64_System_IConvertible_ToDateTime_m2412118561
Pup:__ZNKSt3__210moneypunctIcLb1EE14do_frac_digitsEv
xbc:__ZN5physx2Gu9ContainerD2Ev
$ke:_SchemaElementDecl_get_ContentValidator_m901434622
d_l:_ExeConfigurationHost__ctor_m2672717525
Crj:_EncryptedPrivateKeyInfo_get_EncryptedData_m598672214
ndc:__ZN5physx2Gu12selectNormalEhff
rCk:_TypeDelegator_IsValueTypeImpl_m1437000576
Ivh:_Array_BinarySearch_TisRuntimeObject_m3935103588_gshared
Y4h:_UInt32_System_IConvertible_ToUInt32_m1257480358_AdjustorThunk
q6n:__Z55RuntimeInvoker_CustomAttributeTypedArgument_t1498197914PFvvEPK10MethodInfoPvPS4_
fTg:_Interlocked_CompareExchange_m3339239614
dpe:_XdrBuilder_XDR_BuildElementType_DtValues_m1435235539
ecn:__ZN6il2cpp2osL23CleanupThreadIfCanceledEPv
NSl:_GenericEqualityComparer_1_GetHashCode_m1950634276_gshared
lUc:__ZN5physx3Scb14ParticleSystem16releaseParticlesEjRKNS_16PxStrideIteratorIKjEE
Teo:__ZL98Activator_t1850728717_CustomAttributesCacheGenerator_Activator_CreateInstance_m1465989661____args1P21CustomAttributesCache
Hhn:__ZN6il2cpp6icalls8mscorlib6System9Threading10WaitHandle16WaitAny_internalEP11Il2CppArrayib
Khp:_Transform_set_position_m2942701431
eTa:__ZN19ShaderPropertySheet11ComputeHashEv
jIg:_DecoderFallbackBuffer_InternalFallback_m3347822110
fDm:__ZN30dense_hashtable_const_iteratorI10KeyWrapperIPK19Il2CppGenericMethodES4_N6il2cpp8metadata23Il2CppGenericMethodHashEN14dense_hash_setIS4_S7_NS4_14EqualsComparerINS6_26Il2CppGenericMethodCompareEEENSt3__29allocatorIS4_EEE8IdentityESB_SE_EppEv
X4c:__ZN5physx2Sc5Scene21processLostTouchPairsEv
G_j:_MonoTlsStream_get_CertificateValidationFailed_m1514564666
plb:__ZN4PPtrI6ObjectE8TransferI18StreamedBinaryReadILb1EEEEvRT_
Dal:_KeyHandler_GetVolatileDir_m62390358
dG:__ZN11UnityEngine15CloudWebService20WebRequestRestClient6IsDoneEv
wEj:_PropertyDescriptorCollection_IndexOf_m2940684757
t3o:__ZL104HttpWebRequest_t1951404513_CustomAttributesCacheGenerator_HttpWebRequest_get_ReuseConnection_m3420560548P21CustomAttributesCache
sTe:_Char_IsAscii_m4100577019
Fvg:_UIPermission_Cast_m3255181351
hj:_llvm_fabs_f32
NAk:_PropertyInfo_internal_from_handle_type_m113577331
IF:__ZN11UnityEngine15CloudWebService16SessionContainer16GetJsonDataBlockEjRKN4core12basic_stringIcNS2_20StringStorageDefaultIcEEEERS6_PjSA_
lym:_FieldWithTarget_get_typeString_m124716110
R1e:_ConsoleKeyInfo_get_KeyChar_m1771277047
SZd:_XmlDocument_get_SchemaInfo_m1424570660
wDd:__ZThn28_N14PhysicsManager7onSleepEPPN5physx7PxActorEj
GUk:_ObjectEqualityComparer_1__ctor_m3957050624_gshared
$Vi:_EnvironmentPermission_GetPathList_m127917712
KWf:_RegionInfo__ctor_m2826901964
UMl:_Dictionary_2_Remove_m2167981184_gshared
S7i:_GenericTypeParameterBuilder_get_AssemblyQualifiedName_m902593295
Wye:_XmlSchemaDocumentation__cctor_m972217307
mjd:__ZN5physx22PxcContactConvexConvexERKNS_2Gu13GeometryUnionES3_RKNS_11PxTransformES6_RKfRNS_10PxcNpCacheERNS0_13ContactBufferE
Fcc:__ZNK5physx2Gu11ConvexHullV12HillClimbingERKNS_6shdfnd3aos5Vec3VE
HKi:_Dictionary_2_System_Collections_IDictionary_set_Item_m2290664072_gshared
R_c:__ZNK5physx2Sc17ParticleSystemSim7getCoreEv
Vel:_SimpleCollator__cctor_m2693747668
edf:_Decimal_CompareTo_m2454501434_AdjustorThunk
mP:__ZN14SafeBinaryReadD2Ev
lwf:_Array_InternalArray__set_Item_TisDS_t769197341_m2953540286_gshared
Q3h:_UInt16_System_IConvertible_ToChar_m4055364664
$Tc:__ZN5physx2Sc18ParticleSystemCore10setDampingEf
_Pb:__Z13RegisterClassI7TextureEvv
col:_InternalEnumerator_1_MoveNext_m25933035_AdjustorThunk
eyo:__ZL91SHA384Managed_t741627254_CustomAttributesCacheGenerator_SHA384Managed_HashFinal_m3159561733P21CustomAttributesCache
Jlb:__ZN8Gradient8TransferI18StreamedBinaryReadILb1EEEEvRT_
LDi:_Enumerator_Dispose_m2369319718_AdjustorThunk
ycl:_Win32Native__cctor_m1810929718
hZk:_ReadOnlyCollection_1_System_Collections_Generic_IListU3CTU3E_get_Item_m731630218_gshared
Lbl:_RegistryKeyComparer_Equals_m2921677117
xgo:__ZL79Convert_t2607082565_CustomAttributesCacheGenerator_Convert_ToUInt16_m3991499696P21CustomAttributesCache
Yxh:_Array_InternalArray__IndexOf_TisState_t2667800191_m4055676112_gshared
ujj:_RemotingConfiguration_get_ProcessId_m3870172209
pAg:_Site_get_Name_m976887625
Jpc:__ZN5physx2Sc10NPhaseCore16deleteFilterPairEPNS0_10FilterPairE
qcp:__ZL88AudioClip_t1932558630_CustomAttributesCacheGenerator_AudioClip_get_ambisonic_m3690329337P21CustomAttributesCache
A4h:_UInt32_ToString_m554020223_AdjustorThunk
Svl:_InternalEnumerator_1_MoveNext_m3081678193_AdjustorThunk
y8h:_GuidResult_t2567604379_marshal_pinvoke_back
cXk:_Enumerator_Dispose_m1520016780_AdjustorThunk
_1k:_ReadOnlyCollection_1_System_Collections_IEnumerable_GetEnumerator_m4241694324_gshared
Pmk:_List_1_set_Item_m3717668114_gshared
Q$a:__ZN6ShaderD2Ev
Hj:_SDL_PauseAudio
bMm:_il2cpp_class_from_type
Prg:_Array_Sort_m2323017822
Kah:_Socket_RemapIPEndPoint_m2854173979
jNm:__ZN6il2cpp2os4File11GetStdErrorEv
W$e:_SyncSortedList_get_Item_m3057067955
Jtc:__ZN5physx2Sc5Scene28addActiveBreakableConstraintEPNS0_13ConstraintSimE
VM:__ZN9ShaderLab19CommonPropertyNames16StaticInitializeEPv
HIc:__ZN5physx6shdfnd8PoolBaseINS_16NpParticleSystemENS0_19ReflectionAllocatorIS2_EEE15disposeElementsEv
epi:_MissingMemberException__ctor_m3710131950
j$a:__ZN13MemoryManager31DisallowAllocationsOnThisThreadEv
rFn:__Z108RuntimeInvoker_Boolean_t3825574718_RuntimeObject_RuntimeObject_StackCrawlMarkU26_t725225610_SByte_t454417549PFvvEPK10MethodInfoPvPS4_
fgp:_Ray_get_direction_m4136268940_AdjustorThunk
qvi:_Comparer_1_get_Default_m2982649620_gshared
lGd:__ZN5physx7profile11EventBufferINS_24PxDefaultContextProviderENS_6shdfnd6MutexTINS0_26WrapperReflectionAllocatorIhEEEENS0_14ScopedLockImplIS7_EENS_24PxProfileNullEventFilterEE10eventValueEtyx
mDi:_KeyCollection_System_Collections_IEnumerable_GetEnumerator_m852423030_gshared
KCn:__Z91RuntimeInvoker_Void_t1841601450_RuntimeObject_Int32_t2071877448_RuntimeObject_RuntimeObjectPFvvEPK10MethodInfoPvPS4_
Vy:__ZN11AudioSource23VirtualRedirectTransferER24GenerateTypeTreeTransfer
$fk:_List_1_Sort_m3205162750_gshared
Ggc:__ZN5physx2Gu11getBoxEdgesEv
Bqi:_InternalEnumerator_1_System_Collections_IEnumerator_get_Current_m4267217660_gshared
rMd:__ZN14UnityAnalytics15SendCustomEventERN11UnityEngine9Analytics15UserCustomEventE
LPa:__ZN14Texture2DArray23VirtualRedirectTransferER14SafeBinaryRead
QCb:__ZNK6Camera21CalculateCanDoShadowsEv
w3c:__ZNK5physx2Sc5Scene17getBroadPhaseCapsERNS_16PxBroadPhaseCapsE
vFc:__ZN5physx9NpFactory14onActorReleaseEPNS_7PxActorE
SRl:_GenericEqualityComparer_1_Equals_m880188891_gshared
gen:__ZN6il2cpp2os6Thread12SetStackSizeEj
Nek:_List_1_CopyTo_m266985922_gshared
iBe:_X509ChainElementEnumerator_get_Current_m2232618221
Lvc:__ZN5physx2Sc5Actor15onElementAttachERNS0_7ElementE
uem:_DebugLogHandler_LogFormat_m2866699703
AJn:__Z54RuntimeInvoker_CallingConventions_t1097349142_IntPtr_tPFvvEPK10MethodInfoPvPS4_
l_i:_Number_IsWhite_m3960490656
jVn:__Z71RuntimeInvoker_Boolean_t3825574718_RuntimeObject_IList_1U26_t3083163278PFvvEPK10MethodInfoPvPS4_
yXl:_ConfigurationElementCollection_GetEnumerator_m3962900713
I_o:__ZL110SslClientStream_t3918817353_CustomAttributesCacheGenerator_SslClientStream_add_ClientCertSelection_m2644836210P21CustomAttributesCache
xSh:_XmlCharType_IsPublicId_m2816730696_AdjustorThunk
E3n:__Z71RuntimeInvoker_Void_t1841601450_Int32_t2071877448_Ephemeron_t1875076633PFvvEPK10MethodInfoPvPS4_
B9g:_Datatype_byte__cctor_m2127252874
x3o:__ZL118HttpWebRequest_t1951404513_CustomAttributesCacheGenerator_HttpWebRequest_U3CSetWriteStreamInnerU3Eb__262_0_m1476374072P21CustomAttributesCache
ZK:__Z13VFormatBufferPciPKcz
MTc:__ZN5physx2Sc18ParticleSystemCore23setSimulationFilterDataERKNS_12PxFilterDataE
Qmb:__Z18Transfer_BlittableI18StreamedBinaryReadILb0EELb1EhEvRK29SerializationCommandArgumentsR31RuntimeSerializationCommandInfo
$Eo:__ZL90SafeHandle_t2733794115_CustomAttributesCacheGenerator_SafeHandle_get_IsInvalid_m3910183075P21CustomAttributesCache
_Ck:_ManifestBasedResourceGroveler_GetNeutralResourcesLanguageAttribute_m2247341643
adl:_Win32RegistryApi_GetBinaryValue_m3374485151
U$g:_Operand_get_Type_m2012862719
v9:__ZN6prcoreL27StretchGenericFloatBilinearI15TexFormatRFloatEEvPKNS_9InnerInfoE
Phe:_XmlSchema_get_SchemaTypes_m1481079476
E9c:__ZN5physx6shdfnd8internal8HashBaseINS0_4PairIKNS_2Sq13PrunerPayloadEjEES5_NS0_4HashIS5_EENS1_11HashMapBaseIS5_jS9_NS0_9AllocatorEE6GetKeyESB_Lb1EE15reserveInternalEj
w4n:__Z57RuntimeInvoker_KeyValuePair_2_t38854645_Int32_t2071877448PFvvEPK10MethodInfoPvPS4_
rhn:__ZN6il2cpp6icalls8mscorlib6System13Globalization11CultureData16fill_number_dataEP22Il2CppNumberFormatInfoi
Pth:_Array_InternalArray__IEnumerable_GetEnumerator_TisBoolean_t3825574718_m798244337_gshared
srp:__ZNKSt3__26locale9use_facetERNS0_2idE
ZCl:_TaskAwaiter_1_UnsafeOnCompleted_m1467565677_AdjustorThunk
DUh:_ThreadPool_TryPopCustomWorkItem_m68925166
y6:__Z14PadImageBorderR14ImageReferenceii
VQm:__ZN15dense_hashtableINSt3__24pairIK10KeyWrapperINS1_IPK10MethodInfoP11Il2CppClassEEEjEES9_17ReflectionMapHashIS8_EN14dense_hash_mapIS9_jSD_NS9_14EqualsComparerINS0_8equal_toIS8_EEEENS0_9allocatorISB_EEE9SelectKeyESI_SK_E4findERSA_
lGm:__ZN6il2cpp2vm13MetadataCache28GetFieldDefaultValueForFieldEPK9FieldInfo
$Uf:_GregorianCalendarHelper_CheckTicksRange_m1276004385
Pyo:__ZL97FormatterServices_t3161112612_CustomAttributesCacheGenerator_FormatterServices__cctor_m2703987166P21CustomAttributesCache
gKm:__ZN6il2cpp2vm8basepathEPKc
pdd:__ZN5physx2Gu22gjkRelativePenetrationINS0_9TriangleVENS0_8CapsuleVEEEjRKT_RKT0_RKNS_6shdfnd3aos15PsMatTransformVERKNSB_6FloatVERNSB_5Vec3VESJ_SJ_RSF_PhSL_Rh
qBd:__ZN9Rigidbody14SetIsKinematicEb
Oro:__ZL115ThreadPoolWorkQueue_t673814512_CustomAttributesCacheGenerator_ThreadPoolWorkQueue_EnsureThreadRequested_m4026106717P21CustomAttributesCache
I7m:__ZNK15dense_hashtableINSt3__24pairIK10KeyWrapperIP12Il2CppObjectEN6il2cpp2gc9CachedCCWEEES5_NS7_5utils11PointerHashIS3_EEN14dense_hash_mapIS5_S9_SD_NS5_14EqualsComparerINS0_8equal_toIS4_EEEENS0_9allocatorISA_EEE9SelectKeyESI_SK_E10test_emptyERK24dense_hashtable_iteratorISA_S5_SD_SM_SI_SK_E
ov:__ZN12AudioManager39HandlePendingAudioConfigurationCallbackEv
vNn:__Z119RuntimeInvoker_Int32_t2071877448_RuntimeObject_RuntimeObject_Int32_t2071877448_Int32_t2071877448_BooleanU26_t3168250738PFvvEPK10MethodInfoPvPS4_
lSj:_Cookie_get_Secure_m3357936990
Dk:_emscripten_glIsFramebuffer
Nta:__ZN12_GLOBAL__N_16qAtan2Eff
oKd:__Z13RegisterClassI9RigidbodyEvv
o2g:_DtdParser_ParseElementMixedContent_m3261099362
Hk:_JS_Sound_SetLoopPoints
dVe:_ArrayList__ctor_m1467563650
fA:__ZN12AudioManager17ShouldSourcePauseEb
von:__ZN6il2cpp2vm26MetadataAllocGenericMethodEv
$ea:__ZN19ConstantBuffersGLES12RecordRenderEv
g9c:__ZN5physx13ActorAABBTaskD2Ev
iMo:__ZL78ReadWriteTask_t2745753060_CustomAttributesCacheGenerator_s_invokeAsyncCallbackP21CustomAttributesCache
W3b:__ZN9JSONWrite8TransferI10RectOffsetEEvRT_PKc17TransferMetaFlags
aFf:_Array_InternalArray__get_Item_TisXmlTypeCode_t58293802_m447922847_gshared
H2j:_StringCollection_get_Count_m1458092700
d6:__ZN4crnd12symbol_codec11decode_bitsEj
qzp:__ZNSt3__212basic_stringIwNS_11char_traitsIwEENS_9allocatorIwEEE7reserveEj
wTi:_TailStream_set_Position_m1522261877
Jkg:_Uri_get_Scheme_m3280081480
Kqi:_InternalEnumerator_1_System_Collections_IEnumerator_Reset_m4138519314_AdjustorThunk
VVb:__ZN21FixedBehaviourManagerD0Ev
vip:_Vector2__ctor_m847450945_AdjustorThunk
GBa:__ZN10Matrix3x4f8TransferI24GenerateTypeTreeTransferEEvRT_
C9l:_PKCS12_EncryptedContentInfo_m938119256
sv:__ZN4FMOD6System12createReverbEPPNS_6ReverbE
a9n:__Z30il2cpp_codegen_class_from_typePK10Il2CppType
xOf:_CultureData_get_Invariant_m721978968
Wzi:_Enumerator_System_Collections_IEnumerator_get_Current_m1197115851_gshared
qtk:_TypeBuilderInstantiation_GetProperties_m3443197842
l$a:__Z16MarkDependenciesR27GarbageCollectorThreadStatej
S1e:_ConsoleKeyInfo_get_KeyChar_m1771277047_AdjustorThunk
lBe:_X509ChainElementEnumerator_Reset_m3832280427
FYf:_FormatLiterals_get_SecondFractionSep_m1786718334_AdjustorThunk
iqi:_MulticastDelegate_RemoveImpl_m2024746777
LSn:__Z119RuntimeInvoker_RuntimeObject_RuntimeObject_RuntimeObject_Int32_t2071877448_SByte_t454417549_RuntimeObject_RuntimeObjectPFvvEPK10MethodInfoPvPS4_
cqi:_MulticastDelegate_Equals_m3064081489
sIe:_RegexCompiler_Rightcharnext_m227229720
GWf:_RegionInfo_t3784626978_marshal_pinvoke
jog:_Activator_CreateInstance_m1465989661
TY:__ZNK9Transform11GetPositionEv
mIc:__ZN5physx12NpConstraint8requiresERNS_23PxProcessPxBaseCallbackE
Dwi:_Comparer_1__ctor_m866820372_gshared
Zik:_List_1_set_Capacity_m2679391904_gshared
NXg:_AwaitTaskContinuation_System_Threading_IThreadPoolWorkItem_ExecuteWorkItem_m2075350778
B7l:_TlsServerSettings_set_CertificateTypes_m264196087
Rza:__ZN23SharedMeshRenderingData18UnloadVertexStreamEi
Xlo:__ZL87Single_t2076509932_CustomAttributesCacheGenerator_Single_IsNegativeInfinity_m2615809279P21CustomAttributesCache
zmc:__ZN5physx3Cct13HandleManager3AddEPv
w9l:_PKCS12_Encrypt_m2154408631
wtn:__Z99RuntimeInvoker_Void_t1841601450_RuntimeObject_Int32_t2071877448_Int32_t2071877448_Int32_t2071877448PFvvEPK10MethodInfoPvPS4_
TUb:__ZN19RenderEventsContextC2Ei
RD:__Z6simd4fRKf
$rm:__ZL25UnresolvedVirtualCall_189P12Il2CppObjecthS0_PK10MethodInfo
Rgh:_WebConnectionStream__ctor_m353285484
il:_emscripten_glEnable
D7m:__ZN6il2cpp2gc16GarbageCollector29RegisterFinalizerForNewObjectEP12Il2CppObject
xWo:__ZL130XmlSchemaAttributeGroup_t491156493_CustomAttributesCacheGenerator_XmlSchemaAttributeGroup_t491156493____NameAttribute_PropertyInfoP21CustomAttributesCache
osa:__ZN10TagManager23VirtualRedirectTransferER14SafeBinaryRead
xud:__ZNK5physx2Sc15ClothFabricCore9getNbSetsEv
dpo:__ZL93InternalThread_t4118012807_CustomAttributesCacheGenerator_InternalThread_Finalize_m1426289200P21CustomAttributesCache
jPf:_CharUnicodeInfo_IsWhiteSpace_m1515033943
DFb:__Z15InitLightMeshesv
iSj:_Cookie_set_Port_m312020554
Ayh:_Task_FromCancellation_TisRuntimeObject_m77169158_gshared
$ek:_List_1_RemoveRange_m1237077618_gshared
D2c:__ZNK5physx7NpScene26getNbContactDataBlocksUsedEv
f5j:_KeyValuePair_2_ToString_m1391611625_AdjustorThunk
Yn:FUNCTION_TABLE_iifiii
zDk:_ResourceReader_ReadResources_m675703670
jic:__ZN5physx2Gu29computeCapsule_HeightFieldMTDERKNS_21PxHeightFieldGeometryERKNS_11PxTransformERNS0_8CapsuleVEffbjRNS_10PxSweepHitE
GIi:_Dictionary_2_Insert_m1458719269_gshared
TBj:_DesignerAttribute__ctor_m301030763
a_c:__ZNK5physx2Cm12DelegateTaskINS_7NpSceneEXadL_ZNS2_14executeCollideEPNS_10PxBaseTaskEEEE7getNameEv
$bg:_SchemaCollectionCompiler_PushComplexType_m4246590703
Qvd:__ZN5physx2Gu11HeightField15exportExtraDataERNS_22PxSerializationContextE
UBa:__Z13TransferArrayILi4Ei19StreamedBinaryWriteILb0EEEjRAT__T0_PKcRT1_
hKh:_XmlSerializerNamespaces_set_Namespaces_m1057159241
gNa:__ZN15QualitySettings8TransferI19StreamedBinaryWriteILb0EEEEvRT_
Wyi:_Enumerator_Dispose_m1905011127_gshared
b2l:_GCHandle_op_Explicit_m1252045235
v2j:_OrderedDictionaryEnumerator_get_Current_m3306939169
fib:__Z18Transfer_BlittableI19StreamedBinaryWriteILb0EELb1E8Vector2fEvRK29SerializationCommandArgumentsR31RuntimeSerializationCommandInfo
Pwh:_Array_InternalArray__IndexOf_TisKeyValuePair_2_t3601103940_m2256273826_gshared
UCf:_ThrowHelper_IfNullAndNullsAreIllegalThenThrow_TisByte_t3683104436_m3765641875_gshared
v2l:_ManagedErrorInfo_GetDescription_m3399255087
KZo:__ZL108XmlSchemaType_t1795078578_CustomAttributesCacheGenerator_XmlSchemaType_t1795078578____Redefined_PropertyInfoP21CustomAttributesCache
QJ:__Z15CleanLogHandler7LogTypePKcz
C3a:__ZN9ShaderLab19SerializedSubShader8TransferI19StreamedBinaryWriteILb0EEEEvRT_
IKc:__ZN5physx10NpMaterialC2ERKNS_2Sc12MaterialCoreE
Tbk:_List_1_Clear_m4170865056_gshared
x4d:_VirtualAttribute__ctor_m4067046680_AdjustorThunk
ayf:_Array_qsort_TisDouble_t4078015681_TisRuntimeObject_m1616726054_gshared
Ou:__ZN14AudioBehaviour15ThreadedCleanupEv
hmd:__ZN5physx9PxTaskMgr10resolveRowEjb
kel:_SimpleCollator_GetSortKey_m1317491197
The:_SchemaCollectionPreprocessor_PreprocessSimpleType_m853464718
$pb:__ZN6Camera17RemoveImageFilterERK11ImageFilter
Zaa:__ZNSt3__218__insertion_sort_3IR25ValueParameterArraySorterPN20GpuProgramParameters14ValueParameterEEEvT0_S6_T_
T6e:_CultureAwareComparer_GetHashCode_m3548681005
cSl:_GenericEqualityComparer_1_Equals_m1549453511_gshared
Wih:_WebHeaderCollection__ctor_m4088938710
bWn:__Z91RuntimeInvoker_Void_t1841601450_IntPtr_t_RuntimeObject_Int32U26_t455636984_SByte_t454417549PFvvEPK10MethodInfoPvPS4_
Tda:__ZNSt3__214__split_bufferI20ComputeShaderVariantRNS_9allocatorIS1_EEED2Ev
QAd:__ZN8Collider12GetIsTriggerEv
oYd:_XmlDocument_CreateProcessingInstruction_m3828260893
bKe:_RegexCompiler_DefineLabel_m2029004470
Y7h:_WindowsConsoleDriver_ReadKey_m2722483337
SIn:__Z54RuntimeInvoker_Void_t1841601450_ByteU2AU26_t3544685828PFvvEPK10MethodInfoPvPS4_
gvp:__ZNKSt3__210moneypunctIwLb1EE14do_curr_symbolEv
VSm:__ZNK10KeyWrapperINSt3__24pairIPK9EventInfoP11Il2CppClassEEE14EqualsComparerINS0_8equal_toIS7_EEEclERKS8_SE_
NGk:_FtpWebRequest_OperationCompleted_m3643941383
Svj:_Context_set_WriteSequenceNumber_m3356252710
aDi:_KeyCollection_System_Collections_ICollection_CopyTo_m201091229_gshared
Ttd:__ZNK5physx13NpClothFabric13getRestvaluesEPfj
JMn:__Z41RuntimeInvoker_FormatLiterals_t2087080800PFvvEPK10MethodInfoPvPS4_
PL:__Z27LogRepeatingStringWithFlagsRKN4core12basic_stringIcNS_20StringStorageDefaultIcEEEE15LogMessageFlagsi
Afc:__ZN5physx2Gu16_gjkLocalRayCastINS0_9TriangleVENS0_11ConvexHullVEEEbRT_RT0_RKNS_6shdfnd3aos6FloatVERKNS9_5Vec3VESF_RSA_RSD_SH_f
o7e:_DateTime_AddDays_m1926530883_AdjustorThunk
p_o:__ZL104MonoTlsSettings_t302829305_CustomAttributesCacheGenerator_MonoTlsSettings_get_EnabledCiphers_m1160504090P21CustomAttributesCache
edm:_Camera_get_allCamerasCount_m1873043770
Yqh:_Array_InternalArray__ICollection_Remove_TisDateTimeOffset_t1362988906_m1787485891_gshared
CGo:__ZL98TaskAwaiter_t3341738712_CustomAttributesCacheGenerator_TaskAwaiter_OnCompletedInternal_m1395860754P21CustomAttributesCache
evp:__ZNKSt3__210moneypunctIwLb1EE16do_thousands_sepEv
BDh:_Array_InternalArray__Insert_TisKeyValuePair_2_t1174980068_m2464431954_gshared
Utc:__ZN5physx6shdfnd8PoolBaseINS_2Cm5BlockIPvLj32EEENS0_19ReflectionAllocatorIS5_EEE17releaseEmptySlabsEv
qAh:_Array_InternalArray__ICollection_Add_TisMonoResource_t3127387157_m2070096275_gshared
ufd:__ZN5physx23PxsBroadPhaseContextSap21batchUpdateFewUpdatesEjRPNS_17PxcBroadPhasePairERjS4_
R4o:__ZL122WebRequestModulesSection_t3717257007_CustomAttributesCacheGenerator_WebRequestModulesSection_InitializeDefault_m3487736332P21CustomAttributesCache
Pni:_UnexceptionalStreamWriter_Write_m2677287588
m9o:__ZL62PlayableOutputHandle_t551742311_CustomAttributesCacheGeneratorP21CustomAttributesCache
Qic:__ZN5physx3Cct17getSceneTimestampEPKNS0_30InternalCBData_FindTouchedGeomE
Hyb:__ZNSt3__227__insertion_sort_incompleteIRPFbP10GUIElementS2_EPS2_EEbT0_S7_T_
_Ml:_Dictionary_2_System_Collections_IEnumerable_GetEnumerator_m3112164646_gshared
y$b:__Z41Register_UnityEngine_Input_GetMouseButtonv
Qfh:_SecureStringHelper_CreateString_m3811100024
oQd:__ZN18UnityConnectClient33OnPlayerSessionStateChangedStaticEPS_jyy
vno:__ZL74CaseInsensitiveHashCodeProvider_t2307530285_CustomAttributesCacheGeneratorP21CustomAttributesCache
TTm:__ZN14dense_hash_mapI10KeyWrapperIPK14Il2CppAssemblyEPK22Il2CppMonoAssemblyNameN6il2cpp5utils11PointerHashIS2_EENS4_14EqualsComparerINSt3__28equal_toIS3_EEEENSD_9allocatorINSD_4pairIKS4_S7_EEEEE13set_empty_keyERSJ_
g6h:_UIntPtr__ctor_m3900568171_AdjustorThunk
TPm:__ZNK10KeyWrapperINSt3__24pairIPK9FieldInfoP11Il2CppClassEEE14EqualsComparerINS0_8equal_toIS7_EEEclERKS8_SE_
NG:__ZNK11UnityEngine15CloudWebService23WebRequestUploadHandler11GetProgressEv
Lil:_InternalEnumerator_1_get_Current_m1943362081_gshared
b3:__ZN7ApiGLES4LoadE16GfxDeviceLevelGL
cLa:__ZN18StreamedBinaryReadILb0EE21TransferSTLStyleArrayI13dynamic_arrayI31EnlightenSystemAtlasInformationLj8EEEEvRT_17TransferMetaFlags
RJc:__ZN5physx9NpPhysics15createAggregateEjb
Uko:__ZL90Number_t2840369917_CustomAttributesCacheGenerator_Number_NumberBufferToDecimal_m1859026404P21CustomAttributesCache
Y5:__ZN4crnd12crn_unpacker22decode_color_endpointsEv
qSj:_Cookie_set_Version_m1740254262
RRg:_CancellationToken_get_CanBeCanceled_m3557079996
Eqe:_XdrValidator_ValidateEndStartElement_m83957041
oTb:__ZZL31RegisterOtherRendererPropertiesR22GenericPropertyBindingEN30Wrapper_RendererReceiveShadows13GetFloatValueEPv
VLg:_EncodingCharBuffer_AdjustBytes_m3131274774
YDd:__ZN9Rigidbody5ResetEv
XMn:__Z130RuntimeInvoker_Void_t1841601450_RuntimeObject_Int32U26_t455636984_ByteU26_t1147306860_Int32U26_t455636984_ByteU5BU5DU26_t790777611PFvvEPK10MethodInfoPvPS4_
dfl:_PreviousInfo_t581002487_marshal_pinvoke_cleanup
G7g:_Compiler_IsElementFromGroupBase_m2836349589
zyh:_Task_FromCancellation_TisInt32_t2071877448_m3639406448_gshared
ltb:__ZN8Material11SetPassFastEPN9ShaderLab4PassER17ShaderPassContextP6Shaderib
Tej:_MessageDictionary_set_Item_m3815683065
HIk:_HttpWebResponse_ReadAll_m4206570716
FNa:__ZNK13ScreenManager13GetLockCursorEv
mQd:__ZN11UnityEngine7Connect20BasePersistentValues10SaveValuesER9JSONWrite
nuo:__ZL100SecurityManager_t3191249573_CustomAttributesCacheGenerator_SecurityManager_ResolvePolicy_m1069076191P21CustomAttributesCache
Plf:_ObjectHolder_AddDependency_m3578103628
HTa:__ZN14SafeBinaryRead21TransferSTLStyleArrayINSt3__26vectorI17SubstanceEnumItemNS1_9allocatorIS3_EEEEEEvRT_17TransferMetaFlags
Snm:_AudioListener_AddExtension_m2954727157
Rtp:__ZNKSt3__220__time_get_c_storageIwE8__monthsEv
LIe:_RegexCompiler_DoPush_m3286961226
IWf:_RegionInfo_t3784626978_marshal_pinvoke_cleanup
Qmk:_List_1_IsCompatibleObject_m1536800800_gshared
rAo:__ZL97BinaryMethodReturn_t3366135632_CustomAttributesCacheGenerator_BinaryMethodReturn_Read_m3355178076P21CustomAttributesCache
OAm:_deflate_slow_12387
Tki:_StreamReader__ctor_m3078020052
_ld:__ZN5physx9PxTaskMgr12addReferenceEj
Roi:_MarshalByRefObject_InitializeLifetimeService_m1712948803
QT:__ZN22VirtualJoystickManagerC2Ev
MTj:_CredentialEnumerator_System_Collections_IEnumerator_MoveNext_m1309862340
C$i:_OperationCanceledException_set_CancellationToken_m1769609748
Mzb:__Z12SetupLODFadeR9GfxDeviceR17ShaderPassContextf
WVj:_CFObject_dlopen_m2582071894
X6m:__ZN6il2cpp2gc8GCHandle13GetHandleTypeEj
I9l:_X501_ToString_m3328169518
qFb:__ZL24CollectForwardObjectsJobP27CollectForwardObjectsHeader
Axi:_Enumerator_System_Collections_IDictionaryEnumerator_get_Entry_m345330700_gshared
DFm:__ZNK15dense_hashtableINSt3__24pairIK10KeyWrapperIPK11Il2CppClassEPKcEES6_N6il2cpp5utils11PointerHashIS3_EEN14dense_hash_mapIS6_S9_SE_NS6_14EqualsComparerINS0_8equal_toIS5_EEEENS0_9allocatorISA_EEE9SelectKeyESJ_SL_E12test_deletedERK24dense_hashtable_iteratorISA_S6_SE_SN_SJ_SL_E
gxo:__ZL53HMACSHA256_t2622794722_CustomAttributesCacheGeneratorP21CustomAttributesCache
PIb:__ZNK25CameraStackRenderingState24ResolveTempToEyeTexturesEv
nHb:__Z13IsNodeVisibleRK9SceneNodeRK4AABBRK22SceneCullingParameters
mNk:_PathListComparer__ctor_m3078688280
Cxf:__ZN21InterfaceFuncInvoker1IibE6InvokeEjP11Il2CppClassP12Il2CppObjectb
juk:_EventInfo__ctor_m1190141300
X8j:_Enumerator_System_Collections_IEnumerator_get_Current_m3969878805_gshared
Ktm:__ZL25UnresolvedVirtualCall_280P12Il2CppObject37Win32_IP_ADAPTER_ADDRESSES_t680756680S1_PK10MethodInfo
lIb:__Z24ScheduleCullingAllGroupsR8JobFenceRK22SceneCullingParametersiRK13CullingOutputRK13dynamic_arrayIP12CullingGroupLj4EERKS_
pLp:_emscripten_glStencilMask__wrapper
XCm:__ZN15dense_hashtableI10KeyWrapperIPK19Il2CppGenericMethodES4_N6il2cpp8metadata23Il2CppGenericMethodHashEN14dense_hash_setIS4_S7_NS4_14EqualsComparerINS6_26Il2CppGenericMethodCompareEEENSt3__29allocatorIS4_EEE8IdentityESB_SE_EC2ERKSH_j
vEm:__ZN15dense_hashtableINSt3__24pairIK10KeyWrapperIN6il2cpp5utils13dynamic_arrayIPK10Il2CppTypeLj4EEEEPFvvEEESA_NS3_8metadata19Il2CppSignatureHashEN14dense_hash_mapISA_SD_SG_NSA_14EqualsComparerINSF_22Il2CppSignatureCompareEEENS0_9allocatorISE_EEE9SelectKeyESK_SM_EC2EjRKSG_RKSK_RKSO_
Dng:___DTString_GetDigit_m3380816101
VHj:_UInt32Converter_FromString_m397854293
Wte:_XmlBaseConverter_TimeToString_m4000510460
bgl:_BigInteger_ToString_m3837784224
o2f:_Datatype_NOTATION__ctor_m2075193725
bxa:__ZN15RenderNodeQueue7CleanupEv
tna:__ZNK17ArchiveFileSystem8PositionERK13FileEntryData
Snc:__ZN16NovodexAllocator8allocateEjPKcS1_i
FJf:_DllNotFoundException__ctor_m267198482
REb:__Z17PrepareShadowMapsRK11CullResultsRK11ActiveLightRK10MinMaxAABB
M2j:_StringCollection_Contains_m870435597
PZj:_ChainValidationHelper__ctor_m2868010673
M2n:__Z67RuntimeInvoker_Void_t1841601450_Int32_t2071877448_Entry_t3688716734PFvvEPK10MethodInfoPvPS4_
Qyf:_Array_qsort_TisSingle_t2076509932_m3465722180_gshared
MLj:_TraceListenerCollection_System_Collections_IList_Add_m251190826
T8k:_ReadOnlyCollection_1_CopyTo_m3214490326_gshared
Enk:_List_1_get_Count_m3732967790_gshared
_wn:__Z90RuntimeInvoker_Boolean_t3825574718_RuntimeObject_RuntimeObject_ObjectU5BU5DU26_t3223402458PFvvEPK10MethodInfoPvPS4_
Qjl:_InternalEnumerator_1_MoveNext_m3459902714_AdjustorThunk
lsl:_InternalEnumerator_1_System_Collections_IEnumerator_get_Current_m3239681450_AdjustorThunk
J8j:_Enumerator_get_Current_m1062633493_gshared
nFb:__ZN9ShaderLab10GrabPassesD2Ev
WPa:__ZN14Texture2DArray13UploadTextureEv
otm:__ZL25UnresolvedVirtualCall_258P12Il2CppObject24XPathNodeRef_t2092605142S1_PK10MethodInfo
cZa:__ZN18AwakeFromLoadQueue25RegisterObjectInstanceIDsEv
uAd:__ZN5physx21PxProfileNameProviderD2Ev
Dfh:_TimerThread_StopTimerThread_m3674925406
PRe:_Buffer_BlockCopy_m1586717258
ujk:_List_1_GetEnumerator_m2816713030_gshared
kon:__ZN6il2cpp2os7CpuInfo5UsageEPv
PJi:_Dictionary_2_IsCompatibleKey_m10606929_gshared
tOj:_IOSelectorJob_System_Threading_IThreadPoolWorkItem_MarkAborted_m1562837837
o3c:__ZN5physx2Sc5Scene22removeBroadPhaseRegionEj
Rnl:_InternalEnumerator_1__ctor_m3589241961_AdjustorThunk
iC:__ZN13ProduceHelperI13AudioListenerLb0EE7ProduceE18MemLabelIdentifier18ObjectCreationMode
Rmc:__ZN5physx2Cm12RenderBuffer5clearEv
YPf:_CompareInfo_GetSortKey_m3691382873
aRc:__ZNK5physx2Sc9ClothCore21getStiffnessFrequencyEv
oAi:_Enumerator_System_Collections_IEnumerator_get_Current_m3385981120_gshared
Nqi:_InternalEnumerator_1__ctor_m1692934576_gshared
pcf:_DBNull_ToString_m3228904745
njk:_List_1_Contains_m1130750299_gshared
QRi:_SHA1Managed_HashCore_m2658295635
Fbd:__ZN5physx13PxsCCDContext14postCCDAdvanceEPNS_10PxBaseTaskE
BVi:_HostSecurityManager_get_Flags_m245873585
Nrj:_RC4_get_IV_m506011366
Tam:_X509Crl__ctor_m2469408229
Zib:__Z18Transfer_BlittableI19StreamedBinaryWriteILb0EELb0EyEvRK29SerializationCommandArgumentsR31RuntimeSerializationCommandInfo
_Gm:__ZNSt3__214__split_bufferIN6il2cpp2os11PollRequestERNS_9allocatorIS3_EEED2Ev
AHo:__ZL92Assembly_t4268412390_CustomAttributesCacheGenerator_Assembly_LoadWithPartialName_m3069126665P21CustomAttributesCache
Ela:__ZNK23PreloadManagerOperation25GetAllowParallelExecutionEv
SAk:_RtFieldInfo_UnsafeGetValue_m669795150
iee:_XmlTextWriter_PushStack_m2592760198
zDe:_X509SubjectKeyIdentifierExtension_CopyFrom_m136762226
GGf:_Array_InternalArray__IReadOnlyList_get_Item_TisInternalPrimitiveTypeE_t3020811655_m481137822_gshared
hdl:_Win32RegistryApi_GetSubKeyNames_m1301741334
mzg:_FirstMatchCodeGroup_Resolve_m3455999371
xfh:_TimerThread__cctor_m1728515450
xle:_SchemaEntity_System_Xml_IDtdEntityInfo_get_IsParameterEntity_m3959688571
lWi:_FileDialogPermission__ctor_m3083270861
vGh:_XmlSchemaParticle_get_MinOccurs_m3507692149
zpf:_RuntimeType_GetMethodsByName_m4205820445
Cfl:_BigInteger_op_Division_m1581119694
PLi:_DSACryptoServiceProvider__ctor_m701823690
Vhd:__ZNK5physx10BPWorkTask7getNameEv
YEe:_MatchCollection_get_Count_m3236470266
bGc:__ZN5physx2Sc8ShapeSim16onResetFilteringEv
f5k:_ReadOnlyCollection_1_IsCompatibleObject_m111664797_gshared
HUh:_ThreadPoolTaskScheduler_TryDequeue_m2628067270
GTg:_Reader_HasSameLocalValues_m711220815
L_b:__Z44Register_UnityEngine_Component_get_transformv
i_o:__ZL124MonoTlsSettings_t302829305_CustomAttributesCacheGenerator_MonoTlsSettings_set_ClientCertificateSelectionCallback_m2613062271P21CustomAttributesCache
INj:_GZipStream_get_Length_m436994325
crp:__ZNKSt3__27collateIwE12do_transformEPKwS3_
sBi:_KeyCollection_System_Collections_ICollection_get_SyncRoot_m2897295125_gshared
Etc:__ZN5physx2Sc16ActorInteractionD2Ev
xvb:__ZN17ArchiveFileSystem12MountArchiveEPKcS1_
hSi:_SHA256Managed_sigma_0_m6979104
NIf:_StackFrame_GetMethod_m72881026
LRg:_CancellationToken_t1851405782_marshal_pinvoke_back
$2b:__Z18Transfer_BlittableI9JSONWriteLb1E8Vector4fEvRK29SerializationCommandArgumentsR31RuntimeSerializationCommandInfo
KHe:_RegexCompiler_Compile_m4108849382
Un:FUNCTION_TABLE_viififiii
Bqp:__ZThn8_NSt3__214basic_iostreamIcNS_11char_traitsIcEEED0Ev
fta:__Z30GetScriptableCullingParametersR6CameraR27ScriptableCullingParameters
xqk:_PropertyBuilder_get_Name_m3823568914
syi:_Enumerator_System_Collections_IEnumerator_Reset_m70453843_gshared
KLa:__ZThn32_NK8Renderer14GetSubsetIndexEi
Msn:__Z37RuntimeInvoker_IntPtr_t_RuntimeObjectPFvvEPK10MethodInfoPvPS4_
MIn:__Z58RuntimeInvoker_Byte_t3683104436_IntPtr_t_Int32_t2071877448PFvvEPK10MethodInfoPvPS4_
JGc:__ZN5physx2Sc16ArticulationCore26setExternalDriveIterationsEj
tRl:_GenericComparer_1__ctor_m2050606319_gshared
Eil:_InternalEnumerator_1_System_Collections_IEnumerator_get_Current_m945013892_gshared
isj:_MonoLocalCertificateSelectionCallback_Invoke_m1923619737
_Oe:_UriBuilder__ctor_m3402167180
v$g:_Axis_get_Type_m700858379
$Rb:__ZN13ProduceHelperI15ResourceManagerLb0EE7ProduceE18MemLabelIdentifier18ObjectCreationMode
c0:__ZN9GfxDevice15ImmediateVertexEfff
IPb:__Z13RegisterClassI8MaterialEvv
Euo:__ZL51Evidence_t1407710183_CustomAttributesCacheGeneratorP21CustomAttributesCache
rKa:__ZNK16LightmapSettings22GetTypeVirtualInternalEv
_Xg:_ContinuationTaskFromTask_InnerInvoke_m1128399398
NBa:__ZN20SphericalHarmonicsL28TransferI18StreamedBinaryReadILb0EEEEvRT_
HNf:_FieldAccessException__ctor_m3893881490
_Ao:__ZL96WriteObjectInfo_t2489189536_CustomAttributesCacheGenerator_WriteObjectInfo_Serialize_m1069206888P21CustomAttributesCache
yq:__ZN6Object13AwakeFromLoadE17AwakeFromLoadMode
zZ:__ZN13GfxDeviceGLES15SetStencilStateEPK18DeviceStencilStatei
O6g:_ChoiceNode__ctor_m2548513669
PRl:_GenericEqualityComparer_1_Equals_m2567351232_gshared
jte:_XmlBaseConverter_StringToDateTime_m175756256
lXn:__Z107RuntimeInvoker_Void_t1841601450_Single_t2076509932_Single_t2076509932_Single_t2076509932_Single_t2076509932PFvvEPK10MethodInfoPvPS4_
I5o:__ZL106EventLog_t681067562_CustomAttributesCacheGenerator_EventLog_t681067562____EnableRaisingEvents_PropertyInfoP21CustomAttributesCache
p1n:__Z57RuntimeInvoker_Int32_t2071877448_ContactPoint_t1376425630PFvvEPK10MethodInfoPvPS4_
C_g:_XPathNode_get_NodeType_m87005030_AdjustorThunk
Exn:__Z121RuntimeInvoker_ListBuilder_1_t3225607767_RuntimeObject_Int32_t2071877448_Int32_t2071877448_RuntimeObject_SByte_t454417549PFvvEPK10MethodInfoPvPS4_
ehh:_WebConnectionStream_set_ReadBufferOffset_m4053177349
Vd:_emscripten_glUniform1iv
BCm:__ZNK10KeyWrapperIPK17Il2CppGenericInstE14EqualsComparerIN6il2cpp8metadata24Il2CppGenericInstCompareEEclERKS3_SA_
eGg:_String_System_IConvertible_ToDouble_m3860911722
B8a:__ZN16MemoryFileSystemD2Ev
Z1k:_ReadOnlyCollection_1_System_Collections_Generic_IListU3CTU3E_RemoveAt_m1290016635_gshared
$Jl:_Dictionary_2_System_Collections_Generic_ICollectionU3CSystem_Collections_Generic_KeyValuePairU3CTKeyU2CTValueU3EU3E_Contains_m842343255_gshared
nqj:_ARC4Managed__ctor_m2922048522
dVn:__Z72RuntimeInvoker_CookieToken_t1256074727_SByte_t454417549_SByte_t454417549PFvvEPK10MethodInfoPvPS4_
Pil:_InternalEnumerator_1_System_Collections_IEnumerator_get_Current_m1931522460_AdjustorThunk
Xtg:_SecurityPermission_IsEmpty_m1869313067
_ei:_Path_GetFullPathName_m4093843482
Wnh:_X509CertificateCollection__ctor_m3709509050
y7n:__Z37RuntimeInvoker_Enumerator_t2868816124PFvvEPK10MethodInfoPvPS4_
I0c:__ZN5physx7NpSceneD2Ev
Tig:_EncryptedPrivateKeyInfo_get_Salt_m2734354394
fhp:_UsedByNativeCodeAttribute__ctor_m3185822159
Ake:_SchemaDeclBase_set_DefaultValueRaw_m588558023
N2d:_XmlNodeList_get_ItemOf_m1528953966
c6m:__ZNK15dense_hashtableI10KeyWrapperIP18Il2CppGenericClassES3_N6il2cpp8metadata22Il2CppGenericClassHashEN14dense_hash_setIS3_S6_NS3_14EqualsComparerINS5_25Il2CppGenericClassCompareEEENSt3__29allocatorIS3_EEE8IdentityESA_SD_E10test_emptyERK30dense_hashtable_const_iteratorIS3_S3_S6_SF_SA_SD_E
ian:__ZN6il2cpp2os5posix15PosixWaitObject4WaitEjb
ahd:__ZNK5physx16PxsBroadPhaseMBP18getNumDeletedPairsEv
qxl:_InternalEnumerator_1_MoveNext_m171269126_AdjustorThunk
nFd:__ZN5physx7profile8ZoneImplINS_28PxProfileNameProviderForwardEE10startEventEty
Afm:_UnityEvent_GetDelegate_m1261032859
Zbd:__ZN5physx10PxsCCDPair17sweepAdvanceToToiEfb
hPb:__ZN15ApplicationInfo16GetInstallerNameEv
GNb:__Z23ConvertIntegerToTypePtrItEbPvR14SafeBinaryRead
slp:_MouseOverMaterialSwap_Awake_m2644082797
ZSo:__ZL71DateTimeFormatInfo_t2187473504_CustomAttributesCacheGenerator_nDataItemP21CustomAttributesCache
vro:__ZL87ThreadHelper_t1887861858_CustomAttributesCacheGenerator_ThreadHelper__cctor_m1327679494P21CustomAttributesCache
ke:_emscripten_glStencilFunc
dFc:__ZN5physx6shdfnd8PoolBaseINS_2Cm5BlockIhLj384EEENS0_19ReflectionAllocatorIS4_EEE17releaseEmptySlabsEv
_rd:__ZN5physx16PxsIslandManager11freeBuffersEv
$og:_AppDomain_GetData_m1411657935
Hyk:_MonoMethod_MakeGenericMethod_impl_m2063853616
Oxc:__ZN5physx2Cm12DelegateTaskINS_2Sc17ParticleSystemSimEXadL_ZNS3_21prepareCollisionInputEPNS_10PxBaseTaskEEEE11runInternalEv
Nde:__Z46il2cpp_codegen_get_marshal_directive_exceptionPKc
N4a:__ZN9ShaderLab20SerializedSubProgram14AddMatrixParamEPKcii15ShaderParamTypei
FBa:__ZN24GenerateTypeTreeTransfer8TransferI13dynamic_arrayI8Vector3fLj4EEEEvRT_PKc17TransferMetaFlags
Moi:_MarshalByRefObject_t1285298191_marshal_pinvoke_back
qe:_glGetActiveUniformBlockName
mJn:__Z86RuntimeInvoker_Void_t1841601450_RuntimeObject_RuntimeObject_IntPtr_t_Int32_t2071877448PFvvEPK10MethodInfoPvPS4_
eWi:_EnvironmentPermission_IsUnrestricted_m2227445447
i8k:_ReadOnlyCollection_1_get_Count_m2102381790_gshared
$eh:_U3CU3Ec_U3C_cctorU3Eb__307_10_m2124092215
xdf:_Decimal_Negate_m217743579
z9i:_MethodBuilder_Invoke_m1874904900
KRg:_CancellationToken_t1851405782_marshal_pinvoke
EUe:_Char_System_IConvertible_ToType_m3106771703_AdjustorThunk
GOf:_NumberFormatInfo__ctor_m2143637490
aGm:__ZN6il2cpp2vm13MetadataCache28GetGenericContainerFromIndexEi
Cof:_BinaryCompatibility__cctor_m3600079647
ALn:__Z69RuntimeInvoker_Boolean_t3825574718_SByte_t454417549_Int32_t2071877448PFvvEPK10MethodInfoPvPS4_
mw:__ZN4FMOD7Channel20set3DConeOrientationEP11FMOD_VECTOR
Ln:FUNCTION_TABLE_iiifii
Dtf:_CryptoConfig_CreateFromName_m391442950
Jmn:__ZN6il2cpp6icalls8mscorlib6System2GC24register_ephemeron_arrayEP11Il2CppArray
C9m:__ZN6il2cpp2vm12GenericClass11SetupEventsEP11Il2CppClass
fw:__ZN4FMOD7Channel7setModeEj
Q_e:_SortedList__ctor_m3698381356
T3m:__ZN6il2cpp2vm15ReboxIReferenceEP14Il2CppIUnknownP11Il2CppClass
kWe:_IListWrapper_InsertRange_m1828788128
TPe:_AttributeUsageAttribute__cctor_m925249721
gkf:_FormatterServices_GetObjectData_m28653903
Pqg:_SimpleEnumerator__ctor_m2272112645
Sin:__ZThn4_N6il2cpp2vm13CachedCCWBaseINS0_13ManagedObjectEE7ReleaseEv
lAc:__ZN5physx26PxcFsComputeJointLoadsSimdERKNS_9PxcFsDataEPKNS_12PxcFsInertiaEPNS_6shdfnd3aos6Mat33VEPKfjjNS_21PxcFsScratchAllocatorE
XHi:_Dictionary_2_System_Collections_IDictionary_get_Keys_m117090917_gshared
gwk:_Module__ctor_m3853650010
LXe:_CollectionBase_System_Collections_IList_get_Item_m2370387510
J$k:_ReadOnlyCollection_1_System_Collections_ICollection_get_SyncRoot_m2651700973_gshared
Msp:__ZNSt3__29__num_putIcE23__widen_and_group_floatEPcS2_S2_S2_RS2_S3_RKNS_6localeE
TZc:__ZN5physx6shdfnd8SyncImpl7getSizeEv
BCo:__ZL59RemotingException_t109604560_CustomAttributesCacheGeneratorP21CustomAttributesCache
gHa:__ZNSt3__26__treeINS_12__value_typeIN9ShaderLab16FastPropertyNameE10ColorRGBAfEENS_19__map_value_compareIS3_S5_NS_4lessIS3_EELb1EEENS_9allocatorIS5_EEE12__find_equalIS3_EERPNS_16__tree_node_baseIPvEENS_21__tree_const_iteratorIS5_PNS_11__tree_nodeIS5_SF_EEiEESI_RKT_
ZHp:_glCopyTexImage2D__wrapper
fQo:__ZL88UTF7Encoding_t741406939_CustomAttributesCacheGenerator_UTF7Encoding_GetBytes_m3015176946P21CustomAttributesCache
Lfm:_UnityEventBase_DirtyPersistentCalls_m3176584979
tJo:__ZL68TargetInvocationException_t4098620458_CustomAttributesCacheGeneratorP21CustomAttributesCache
Ilo:__ZL56RankException_t1539875949_CustomAttributesCacheGeneratorP21CustomAttributesCache
hMh:_XsdBuilder_BuildNotation_System_m3704508863
Akc:__ZN5physx11PxHitBufferINS_12PxRaycastHitEED0Ev
qK:__GLOBAL__sub_I_runtime_graphics_billboard_0_cpp
Vfi:_DriveNotFoundException__ctor_m556726899
nnk:_List_1_RemoveAll_m1135879711_gshared
_Kp:_emscripten_glValidateProgram__wrapper
Zio:__ZL77Double_t4078015681_CustomAttributesCacheGenerator_Double_ToString_m1474956491P21CustomAttributesCache
kEj:_PropertyDescriptorCollection__ctor_m2487959314
stb:__Z18ClearByDrawingQuad13GfxClearFlagsRK10ColorRGBAffjR17ShaderPassContext
Cbj:_DynamicPropertyCollection_FindProperty_m1233265924
U8:__ZN6prcoreL17RemapGenericFloatI14TexFormatRHalf15TexFormatRFloatEEvPKNS_9InnerInfoE
Bzb:__Z16ShouldUseShadowsb
BV:__ZN15DirectorManager21RebuildStageCallbacksEv
RNj:_GZipStream_BeginRead_m3633019595
Z7l:_TlsStream_SetLength_m1460039587
Ftb:__ZN19RuntimeSceneManager9LoadSceneERKN4core12basic_stringIcNS0_20StringStorageDefaultIcEEEES6_S6_RK9UnityGUIDiNS_11LoadingModeE
o0e:_ValueList_get_IsFixedSize_m3323758107
caa:__ZN7ApiGLES10DrawArraysE16GfxPrimitiveTypejjj
o$k:_ReadOnlyCollection_1_System_Collections_IList_Insert_m2203370168_gshared
Z9b:__ZN5physx3Cct13BoxController15getPxControllerEv
Mt:__ZN10SampleClip13LoadBaseSoundEv
igc:__ZN5physx2Gu22gjkRelativePenetrationINS0_17ShrunkConvexHullVES2_EEjRKT_RKT0_RKNS_6shdfnd3aos15PsMatTransformVERKNSA_6FloatVERNSA_5Vec3VESI_SI_RSE_PhSK_Rh
XDl:_SparselyPopulatedArrayAddInfo_1_get_Index_m2079572712_gshared
duf:_CryptoHandler_Get_m1494379603
w8d:_XmlTextReaderImpl_ThrowWithoutLineInfo_m3958072042
who:__ZL80Convert_t2607082565_CustomAttributesCacheGenerator_Convert_ToDecimal_m2736745817P21CustomAttributesCache
G8k:_ReadOnlyCollection_1_System_Collections_IList_Clear_m971375276_gshared
lIn:__Z49RuntimeInvoker_TimeSpan_t3430258949_RuntimeObjectPFvvEPK10MethodInfoPvPS4_
$Ce:_X509Helper2_Import_m3097420120
wqi:_InternalEnumerator_1_MoveNext_m1364922282_gshared
_C:__Z57AudioSource_CUSTOM_INTERNAL_CALL_ClearExtensionPropertiesP12Il2CppObjectRK12PropertyName
uQh:_UTF16Decoder_GetChars_m3195883427
S7m:__ZN15dense_hashtableINSt3__24pairIK10KeyWrapperIP12Il2CppObjectEN6il2cpp2gc9CachedCCWEEES5_NS7_5utils11PointerHashIS3_EEN14dense_hash_mapIS5_S9_SD_NS5_14EqualsComparerINS0_8equal_toIS4_EEEENS0_9allocatorISA_EEE9SelectKeyESI_SK_E15insert_noresizeERKSA_
fep:__ZL94CustomEventData_t1269126727_CustomAttributesCacheGenerator_CustomEventData_AddChar_m2955651223P21CustomAttributesCache
Ysd:__ZN5physx2Sc19ParticlePacketShapeC2ERNS0_17ParticleSystemSimEjPNS_16PxvParticleShapeE
fqe:_GroupContent_Copy_m1037033493
Nah:_Socket_get_DualMode_m620903215
K3d:_XmlNodeReaderNavigator_MoveToAttribute_m1050244461
kHa:__ZN22DeviceMVPMatricesStateC2ER9GfxDevice
rCn:__Z75RuntimeInvoker_Void_t1841601450_RuntimeObject_CancellationToken_t1851405782PFvvEPK10MethodInfoPvPS4_
xJe:_Regex_IsMatch_m1286520424
TJc:__ZN5physx9NpPhysics18createTriangleMeshERNS_13PxInputStreamE
Zn:FUNCTION_TABLE_iiiiifiiiif
eFg:_String__ctor_m372528291
vn:FUNCTION_TABLE_iifii
Roo:__ZL82Interlocked_t1625106012_CustomAttributesCacheGenerator_Interlocked_Add_m2992456762P21CustomAttributesCache
r4o:__ZL130AuthenticationModulesSection_t1750570770_CustomAttributesCacheGenerator_AuthenticationModulesSection_InitializeDefault_m2355315077P21CustomAttributesCache
oOa:__ZNSt3__26vectorI13dynamic_arrayI8Vector2fLj4EENS_9allocatorIS3_EEE6assignINS_11__wrap_iterIPS3_EEEENS_9enable_ifIXaasr21__is_forward_iteratorIT_EE5valuesr16is_constructibleIS3_NS_15iterator_traitsISC_E9referenceEEE5valueEvE4typeESC_SC_
A_l:_InternalConfigurationSystem_get_Host_m3360228097
qu:__GLOBAL__sub_I_runtime_video_0_cpp
K3g:_EmptyEnumerator_System_Collections_IEnumerator_get_Current_m1823962236
Tod:__ZN5physx2Cm12DelegateTaskINS_2Sc5SceneEXadL_ZNS3_14updateDynamicsEPNS_10PxBaseTaskEEEED0Ev
RVm:__ZN6il2cpp2vm10Reflection12HasAttributeEP9FieldInfoP11Il2CppClass
mme:_SchemaInfo_set_ErrorCount_m3381752736
ema:__ZNSt3__26__treeIiNS_4lessIiEE13stl_allocatorIiL18MemLabelIdentifier1ELi16EEE7destroyEPNS_11__tree_nodeIiPvEE
tc:invoke_viiifi
b_i:_Number_FormatUInt64_m245621001
_7d:_XmlTextReader_ReadAttributeValue_m3307727945
hIi:_Dictionary_2__ctor_m2818745739_gshared
aUk:_ObjectEqualityComparer_1_Equals_m1555629852_gshared
C2n:__Z66RuntimeInvoker_Void_t1841601450_Int32_t2071877448_Cell_t1535374469PFvvEPK10MethodInfoPvPS4_
SJm:__ZNSt3__214__split_bufferIP11Il2CppClassRNS_9allocatorIS2_EEEC2EjjS5_
kxd:__ZN5physx6shdfnd5ArrayIPNS_7PxActorENS0_19ReflectionAllocatorIS3_EEE8recreateEj
Egg:__ZN23InterfaceActionInvoker2IP8String_tP12Il2CppObjectE6InvokeEjP11Il2CppClassS3_S1_S3_
GXd:_XmlDocument_get_CanReportValidity_m1979689658
fma:__ZNK11AssetBundle14GetPreloadDataEiR13dynamic_arrayIiLj4EE
Yjg:_EncryptedData_get_EncryptedContent_m2732115576
r$n:__Z63RuntimeInvoker_Boolean_t3825574718_ILExceptionBlock_t2042475189PFvvEPK10MethodInfoPvPS4_
Erp:__ZNSt3__215__num_get_floatIeEET_PKcS3_Rj
zKe:_RegexRunner_EnsureStorage_m4273110345
W1j:_NameValueCollection_GetValues_m4268450057
O9d:_XmlTextReaderImpl_get_IsDefault_m394253748
Zvo:__ZL72SecurityAction_t446643378_CustomAttributesCacheGenerator_RequestOptionalP21CustomAttributesCache
yYo:__ZL131XmlSchemaIdentityConstraint_t1058613623_CustomAttributesCacheGenerator_XmlSchemaIdentityConstraint_t1058613623____Name_PropertyInfoP21CustomAttributesCache
Bf:_JS_Sound_SetPosition
vDe:_X509SubjectKeyIdentifierExtension_FromHexChars_m2515150420
tDa:__ZN19RenderBufferManager13GetTempBufferEii17DepthBufferFormat19RenderTextureFormatj22RenderTextureReadWrite14VRTextureUsagei23RenderTextureMemoryless
Krj:_PrivateKeyInfo_Normalize_m1192796352
MFm:__ZL13GetSharedInstPK17Il2CppGenericInst
Olm:_WhereEnumerableIterator_1_MoveNext_m2092954763_gshared
HMh:_BuilderNamespaceManager_LookupNamespace_m4196034964
Shn:__ZN6il2cpp6icalls8mscorlib6System9Threading10WaitHandle18WaitAll_internal40EP11Il2CppArrayi
PBm:__ZNK15dense_hashtableINSt3__24pairIK10KeyWrapperIPKcEP11Il2CppClassEES5_N6il2cpp5utils11StringUtils12StringHasherIS4_EEN14dense_hash_mapIS5_S8_SE_NS5_14EqualsComparerINSB_13VmStringUtils21CaseSensitiveComparerEEENS0_9allocatorIS9_EEE9SelectKeyESJ_SL_E3endEv
Xfp:_Quaternion_Equals_m798965363_AdjustorThunk
B5h:_UInt64_Parse_m834741018
MGb:__Z17PrepareSceneNodesP11CullResults
d4m:__ZNK15dense_hashtableINSt3__24pairIK10KeyWrapperIP14Il2CppIUnknownEjEES5_N6il2cpp5utils11PointerHashIS3_EEN14dense_hash_mapIS5_jSB_NS5_14EqualsComparerINS0_8equal_toIS4_EEEENS0_9allocatorIS7_EEE9SelectKeyESG_SI_E12test_deletedERK24dense_hashtable_iteratorIS7_S5_SB_SK_SG_SI_E
olf:_FormatterServices_CheckSerializable_m1926309083
OSe:_Byte_System_IConvertible_ToUInt32_m3950610247
lMg:_InternalDecoderBestFitFallbackBuffer_GetNextChar_m3666955879
pNc:__ZNK5physx7NpCloth14getNbParticlesEv
uAh:_Array_InternalArray__ICollection_Add_TisResourceLocator_t2156390884_m399566521_gshared
ZUf:_GregorianCalendarHelper_IsValidYear_m2245988971
cFf:_Array_InternalArray__get_Item_TisNamespaceDeclaration_t3577631811_m3434823377_gshared
Ppc:__ZN5physx2Sc10NPhaseCore24releaseShapeInstancePairEPNS0_19ShapeInstancePairLLEjj
RYg:_Task_IsCompletedMethod_m3298576807
Blo:__ZL69OperationCanceledException_t2897400967_CustomAttributesCacheGeneratorP21CustomAttributesCache
tFb:__Z24SetupActiveLightsContextR21ActiveLightingContextRK12ActiveLightsRK11CullResultsP14ShadowMapCacheRK10MinMaxAABB
UKl:_Dictionary_2_System_Collections_Generic_ICollectionU3CSystem_Collections_Generic_KeyValuePairU3CTKeyU2CTValueU3EU3E_Contains_m3400497673_gshared
rkd:__ZN5physx2GuL34fullContactsGenerationConvexConvexERKNS0_11ConvexHullVERS1_RKNS_6shdfnd3aos12PsTransformVES9_bbPNS0_17PersistentContactERjRNS0_13ContactBufferERNS0_25PersistentContactManifoldERNS6_5Vec3VERKNS6_6FloatVEb
ycf:_DBNull_System_IConvertible_ToUInt32_m2681284284
DUm:__ZNK15dense_hashtableINSt3__24pairIK10KeyWrapperIPK22Il2CppGenericParameterEPK24MonoGenericParameterInfoEES6_N6il2cpp5utils11PointerHashIS4_EEN14dense_hash_mapIS6_SA_SF_NS6_14EqualsComparerINS0_8equal_toIS5_EEEENS0_9allocatorISB_EEE9SelectKeyESK_SM_E3endEv
Xva:__ZN6Camera8TransferI24GenerateTypeTreeTransferEEvRT_
Kuo:__ZL55FileCodeGroup_t227438634_CustomAttributesCacheGeneratorP21CustomAttributesCache
URi:_SHA1Managed_SHAExpand_m2143194243
Oa:invoke_iiiiiiif
Ia:invoke_iiiiiiii
fPj:_AutoWebProxyScriptEngine_IsWindows_m2035385363
xfd:__ZN5physx21SapPostUpdateWorkTaskD0Ev
pVk:_ObjectEqualityComparer_1_Equals_m987448272_gshared
hBe:_X509ChainElementCollection_Contains_m3599995067
MIb:__ZN8Renderer17PendingAddToSceneEv
MFc:__ZN5physx7NpActor18releaseConstraintsERNS_12PxRigidActorE
Xmc:__ZN5physx6shdfnd5ArrayINS_11PxDebugLineENS0_19ReflectionAllocatorIS2_EEE8recreateEj
hMp:b125
gMp:b124
jMp:b127
iMp:b126
lMp:b129
kMp:b128
MVc:__ZNK5physx22NpParticleBaseTemplateINS_16PxParticleSystemENS_16NpParticleSystemEE20getMaxMotionDistanceEv
CN:__Z21PostprocessStacktracePKcRN4core12basic_stringIcNS1_20StringStorageDefaultIcEEEE
Ezj:_SslClientStream_OnLocalPrivateKeySelection_m3649986106
d1g:_SR_GetString_m1708794520
QWa:__ZN18StreamedBinaryReadILb0EE21TransferSTLStyleArrayI13dynamic_arrayI16SplashScreenLogoLj4EEEEvRT_17TransferMetaFlags
EXc:__ZNK5physx14NpRigidDynamic25getContactReportThresholdEv
jDg:_Single_CompareTo_m2081476257
o2m:__ZN6il2cpp6icalls8mscorlib6System4Type27GetGenericParameterPositionEP20Il2CppReflectionType
Irh:_Array_InternalArray__ICollection_Remove_TisX509ChainStatus_t4278378721_m4127982424_gshared
jqk:_List_1_TrimExcess_m3115522745_gshared
F_b:__Z47Register_UnityEngine_Camera_get_allCamerasCountv
uyj:_SendRecordAsyncResult_SetComplete_m3006273145
XRc:__ZN5physx22NpParticleBaseTemplateINS_15PxParticleFluidENS_15NpParticleFluidEE16releaseParticlesEv
FNd:__ZN22BaseUnityConnectClient20StartEventDispatcherEv
ZZk:_ReadOnlyCollection_1_System_Collections_IList_get_Item_m3123517064_gshared
cTo:__ZL109DateTimeFormatInfo_t2187473504_CustomAttributesCacheGenerator_DateTimeFormatInfo_get_LanguageName_m3717405917P21CustomAttributesCache
Caa:__ZL25ProgramUniformMatrix4x3fvPK7ApiGLESjiihPKv
ZMb:__Z29StdTemplateConversionFunctionIsiEbPvR14SafeBinaryRead
Aod:__Z22updateIslandsToProcessRKN5physx2Cm10BitMapBaseINS_6shdfnd9AllocatorEEEPKjRKNS_11NodeManagerERS4_
GOl:_EqualityComparer_1_System_Collections_IEqualityComparer_Equals_m3376587337_gshared
DQo:__ZL88UTF8Encoding_t111055448_CustomAttributesCacheGenerator_UTF8Encoding_GetChars_m4254629357P21CustomAttributesCache
Kwb:__ZN12InputManager13InputEndFrameEv
QZe:_SyncHashtable__ctor_m2029869827
nIm:__ZNSt3__26__treeIP11Il2CppClassNS_4lessIS2_EENS_9allocatorIS2_EEE25__emplace_unique_key_argsIS2_JRKS2_EEENS_4pairINS_15__tree_iteratorIS2_PNS_11__tree_nodeIS2_PvEEiEEbEERKT_DpOT0_
b4k:_ReadOnlyCollection_1__ctor_m1901764820_gshared
uUk:_ObjectEqualityComparer_1__ctor_m3574387696_gshared
f_l:_IgnoreSection__cctor_m1005553135
cze:_XmlSchemaElement_get_IsNillable_m1382235314
Yio:__ZL77Double_t4078015681_CustomAttributesCacheGenerator_Double_ToString_m1085043609P21CustomAttributesCache
aBd:__ZN8Collider30GetRelativePositionAndRotationERK9TransformR10Matrix4x4f
HKo:__ZL78Contract_t1212488476_CustomAttributesCacheGenerator_Contract_ForAll_m462374650P21CustomAttributesCache
$ji:_U3CU3Ec__ctor_m2251844701
dcd:__ZN5physx35PxcSweepEstimateAnyShapeHeightfieldERKNS_11PxsCCDShapeES2_PKNS_12PxsRigidBodyES5_RKNS_11PxTransformES8_f
bFe:_MatchEnumerator__ctor_m2362522808
qnc:__ZN5physx3Cct13BoxControllerC2ERKNS_16PxControllerDescERNS_9PxPhysicsEPNS_7PxSceneE
Pop:___munmap
tQc:__ZN5physx2Sc9ClothCore22removeCollisionCapsuleEj
f4e:_Convert_ToInt64_m1722087499
tg:_localtime_r
Nxb:__ZN22RenderingCommandBuffer13GetAndCheckRTE24BuiltinRenderTextureTypeRKN9ShaderLab16FastPropertyNameEPKcPP13RenderTexture
HDl:_AsyncLocal_1__ctor_m17043560_gshared
HAm:__ZN6il2cpp2vm5Class16GetDeclaringTypeEP11Il2CppClass
f$k:_ReadOnlyCollection_1_System_Collections_IList_get_IsFixedSize_m1129109364_gshared
Hlp:_PlayerControl__ctor_m2343782357
w3f:_Datatype_unsignedByte_get_ValueType_m4023076842
iFo:__ZL65InterfaceTypeAttribute_t4113096249_CustomAttributesCacheGeneratorP21CustomAttributesCache
dco:__ZL136TimeZoneInfo_t436210607_CustomAttributesCacheGenerator_TimeZoneInfo_System_Runtime_Serialization_ISerializable_GetObjectData_m3268765269P21CustomAttributesCache
yg:_strftime
Uca:__ZN7Texture33SetStoredColorSpaceNoDirtyNoApplyE17TextureColorSpace
SWl:_ConfigurationProperty_get_Validator_m1030428852
kS:__ZN12FileAccessorD2Ev
_va:__ZN10ColorRGBAf8TransferI18StreamedBinaryReadILb0EEEEvRT_
dAa:__ZN14VertexDataInfoC2Ev
zNf:_Exception_GetObjectData_m2653827630
ZXg:_Task_get_InternalCurrent_m2778287894
kOn:__Z85RuntimeInvoker_Boolean_t3825574718_XPathNodeU5BU5DU26_t3094971498_Int32U26_t455636984PFvvEPK10MethodInfoPvPS4_
tpl:_InternalEnumerator_1_get_Current_m2415979394_gshared
vVi:_X509CertificateImplMono_GetPublicKey_m859468785
glb:__ZL17Transfer_GUIStyleI18StreamedBinaryReadILb1EELb1EEvRK29SerializationCommandArgumentsR31RuntimeSerializationCommandInfo
_Xf:_TextInfo_GetCaseInsensitiveHashCode_m3270054820
lDi:_KeyCollection_System_Collections_Generic_IEnumerableU3CTKeyU3E_GetEnumerator_m2473465285_gshared
Ctj:_CipherSuite_CreateHashAlgorithm_m722595391
IIm:__ZN6il2cpp6icalls8mscorlib6SystemL9IsPrivateEPK12PropertyInfo
Y8g:_Datatype_anyURI__ctor_m2800452853
Avg:_UIPermission_set_Clipboard_m2145644125
jcd:__ZNK5physx18PxcConvexTriangles16getPolygonNormalEj
Cvn:__Z72RuntimeInvoker_DateTime_t693205669_DateTime_t693205669_Int32_t2071877448PFvvEPK10MethodInfoPvPS4_
E3i:_CustomAttributeData_GetCustomAttributes_m3258419955
Zgm:_Matrix4x4_GetColumn_m83396621
YTj:_Dns_hostent_to_IPHostEntry_m2029197676
nfg:_AuthenticodeDeformatter_VerifyCounterSignature_m1893533540
SM:__ZN9shadertag10InitializeEv
Ozb:__ZN13BatchRenderer20RenderSingleWithPassER17ShaderPassContextPK18SharedMaterialDataP6ShaderPN9ShaderLab4PassEiPKNS7_10GrabPassesEjib15BatchBreakCause
EGd:__ZN5physx24NpPtrTableStorageManager8canReuseEjj
jPi:_RC2CryptoServiceProvider_GenerateIV_m3062066003
dNa:__ZN15QualitySettings14QualitySetting8TransferI24GenerateTypeTreeTransferEEvRT_
pCh:_Array_InternalArray__ICollection_CopyTo_TisParameterModifier_t1820634920_m4127516211_gshared
mHg:_DecoderReplacementFallback__ctor_m2344783488
O$i:_OutOfMemoryException__ctor_m239206850
u0c:__ZN5physx2Sc27ConstraintProjectionManager33processConstraintForGroupBuildingEPNS0_13ConstraintSimERNS0_20ScratchAllocatorListIS3_Lj64EEE
WNn:__Z121RuntimeInvoker_Int32_t2071877448_RuntimeObject_RuntimeObject_Int32_t2071877448_ByteU5BU5DU26_t790777611_Int32_t2071877448PFvvEPK10MethodInfoPvPS4_
Qfe:_XmlValidatingReaderImpl_get_IsEmptyElement_m3443858512
UBf:_Array_UnsafeStore_TisRuntimeObject_m840173032_gshared
LLi:_Utils_ConvertByteArrayToInt_m2784549085
gcg:_SequentialSearchPrimeGeneratorBase_GenerateNewPrime_m545729286
Vsk:_TypeBuilder_IsCreated_m3831781276
oxn:__Z88RuntimeInvoker_RuntimeObject_RuntimeObject_RuntimeObject_RuntimeObject_Int32_t2071877448PFvvEPK10MethodInfoPvPS4_
YLn:__Z114RuntimeInvoker_Int32_t2071877448_RuntimeObject_RuntimeObject_Int32_t2071877448_Int32_t2071877448_Int32_t2071877448PFvvEPK10MethodInfoPvPS4_
m9b:__ZL34CleanupModule_PerformanceReportingv
kwd:__ZN5physx20InternalTriangleMesh17allocateTrianglesEjb
S$j:_SystemCertificateValidator__cctor_m4072828367
f4n:__Z60RuntimeInvoker_DictionaryEntry_t3048875398_Int32_t2071877448PFvvEPK10MethodInfoPvPS4_
bXb:__ZN22BlockMemoryCacheWriter14LockCacheBlockEjPPhS1_
RZf:_TimeSpanRawInfo_get_PositiveLocalized_m4226395634_AdjustorThunk
Fme:_SchemaInfo_System_Xml_IDtdInfo_get_Name_m2287438333
w9o:__ZL110SceneManager_t90660965_CustomAttributesCacheGenerator_SceneManager_LoadSceneAsyncNameIndexInternal_m1250496078P21CustomAttributesCache
KUc:__ZN5physx22NpParticleBaseTemplateINS_15PxParticleFluidENS_15NpParticleFluidEED2Ev
$5k:_ReadOnlyCollection_1_System_Collections_Generic_ICollectionU3CTU3E_Add_m3326213104_gshared
P5f:_DtdValidator_ProcessElement_m2021581749
F7i:_GenericTypeParameterBuilder_HasElementTypeImpl_m2592272488
z_c:__ZN5physx2Cm29ConstraintImmediateVisualizer19visualizeDoubleConeERKNS_11PxTransformEfb
nTn:__Z94RuntimeInvoker_ParsingError_t953959262_RuntimeObject_Int16_t4041245914_UriParserU26_t624495709PFvvEPK10MethodInfoPvPS4_
L6b:__Z22TransferField_NonArrayI8JSONRead27Converter_SimpleNativeClassI8GUIStyleEEvRK23StaticTransferFieldInfoR31RuntimeSerializationCommandInfoRT0_
Kac:__ZN5physx6shdfnd5ArrayINS_13PxExtendedBoxENS0_19ReflectionAllocatorIS2_EEE8recreateEj
Nhd:__ZN5physx20ProcessBPResultsTask11runInternalEv
Ztc:__ZN5physx6shdfnd5ArrayIPvNS0_19ReflectionAllocatorINS_2Cm5BlockIS2_Lj16EEEEEE4copyINS0_15InlineAllocatorILj256ES7_EEEEvRKNS1_IS2_T_EE
ZXd:_XmlLoader_LoadDocumentType_m2663740937
EVh:_ThreadHelper__cctor_m1327679494
eh:_llvm_eh_typeid_for
xPb:__Z13RegisterClassI10GameObjectEvv
ZBo:__ZL102__BinaryParser_t1222443990_CustomAttributesCacheGenerator___BinaryParser_ReadObjectWithMap_m2090167292P21CustomAttributesCache
sYk:_Collection_1_IsCompatibleObject_m23857476_gshared
ZKe:_RegexInterpreter_Operand_m3667075792
YOe:_Uri__ctor_m723586302
PJo:__ZL125GenericTypeParameterBuilder_t1370236603_CustomAttributesCacheGenerator_GenericTypeParameterBuilder_GetConstructors_m103067670P21CustomAttributesCache
a1c:__ZN5physx7NpScene19getActiveTransformsERjh
FUd:_XmlReaderSection_CreateDefaultResolver_m1340494240
Qpc:__ZN5physx2Sc10NPhaseCore39pool_deleteParticleElementRbElementPairEPNS0_35ParticleElementRbElementInteractionEjj
DLk:_sockaddr_dl_t3955242742_marshal_pinvoke
mpi:_MissingMemberException__ctor_m4277447068
$F:__Z7ToUpperIN4core12basic_stringIcNS0_20StringStorageDefaultIcEEEEET_RKS5_
HBk:_StrongNameKeyPair_System_Runtime_Serialization_ISerializable_GetObjectData_m1693082120
Bpg:_AppDomainSetup_t611332832_marshal_pinvoke_back
OFi:_ValueCollection_CopyTo_m254858027_gshared
vnb:__Z18Transfer_BlittableI18StreamedBinaryReadILb0EELb1E8Vector4fEvRK29SerializationCommandArgumentsR31RuntimeSerializationCommandInfo
xzh:_Array_InternalArray__ICollection_Add_TisEntry_t3688716734_m2947982604_gshared
Sai:_Int64_CompareTo_m1953686218
hRl:_GenericComparer_1__ctor_m221205314_gshared
vbi:_Int64_System_IConvertible_ToInt16_m2022633688_AdjustorThunk
QUl:_Configuration_get_LocationConfigPath_m609030371
ckp:_Cover__cctor_m1712156803
Izd:__ZN5physx6shdfnd5ArrayINS_11RTreeNodeNQENS0_19ReflectionAllocatorIS2_EEE19resizeUninitializedEj
QOj:_AuthenticationModulesSection_get_AuthenticationModules_m3852393563
Lqc:__ZNK5physx2Sc16InteractionScene18getLLIslandManagerEv
a$d:_XmlElement_get_Attributes_m3671402762
ILi:_DSA_Create_m3450041777
yFa:__ZN8Material8TransferI14SafeBinaryReadEEvRT_
Ibd:__ZN5physx17PxcNpMemBlockPool34acquireExceptionalConstraintMemoryEj
_Ha:__ZN12CubemapArray17UploadToGfxDeviceEv
jal:__Z30il2cpp_codegen_resolve_pinvokeIPFjjP41TIME_DYNAMIC_ZONE_INFORMATION_t2883369749ELj36ELj31EET_RAT0__KcRAT1__S5_20Il2CppCallConvention13Il2CppCharSetib
_Jm:_SessionStateChanged_EndInvoke_m2606584272
ZXm:__ZN24dense_hashtable_iteratorINSt3__24pairIK10KeyWrapperIP11Il2CppClassES4_EES5_N6il2cpp8metadata16SZArrayClassHashEN14dense_hash_mapIS5_S4_SA_NS5_14EqualsComparerINS9_19SZArrayClassCompareEEENS0_9allocatorIS7_EEE9SelectKeyESE_SG_E30advance_past_empty_and_deletedEv
H$i:_OrdinalComparer__ctor_m2952942058
Ucd:__ZN5physxL23PxcSweepConvexTrianglesERKNS_11PxsCCDShapeES2_RKNS_11PxTransformES5_S5_S5_fRNS_6PxVec3ES7_RNS_10PxcNpCacheERNS_18PxcNpThreadContextERKNS_2Cm23FastVertex2ShapeScalingERNS_2Gu9TriangleVEf
tLc:__ZNK5physx7NpShape16getPlaneGeometryERNS_15PxPlaneGeometryE
GJp:_emscripten_glGetUniformiv__wrapper
Szd:__ZN5physx27InternalTriangleMeshBuilder14fillRemapTableEv
iu:__ZN11AudioSource4StopEb
mll:_InternalEnumerator_1_Dispose_m1037069_AdjustorThunk
kyc:__ZN5physx6shdfnd8PoolBaseINS_13NpRigidStaticENS0_19ReflectionAllocatorIS2_EEE17releaseEmptySlabsEv
adb:__ZN14SafeBinaryRead21TransferSTLStyleArrayI13dynamic_arrayI10Matrix4x4fLj4EEEEvRT_17TransferMetaFlags
Mwa:__ZN15LODGroupManager26CollectAllLODGroupManagersERK16CoreCameraValuesR13dynamic_arrayIPS_Lj4EEb
kcf:_DateTimeResult_SetFailure_m493683545_AdjustorThunk
Epo:__ZL47Timer_t791717973_CustomAttributesCacheGeneratorP21CustomAttributesCache
qBf:_Array_swap_TisDateTime_t693205669_m3742563553_gshared
atb:__Z25GetSplashScreenBackgroundRK5RectTIfE
oml:_InternalEnumerator_1_System_Collections_IEnumerator_get_Current_m1679297177_gshared
D3j:_BaseNumberConverter_FromStringError_m896703023
qDk:_ResourceManager__ctor_m498829021
Ifa:__ZN18GlslGpuProgramGLESD2Ev
aLb:__ZN13RenderTexture14SetVolumeDepthEi
AHl:_Tuple_3_GetHashCode_m132921887_gshared
yFd:__ZThn116_NK5physx7profile8ZoneImplINS_28PxProfileNameProviderForwardEE10hasClientsEv
bld:__ZN5physx2Gu20pcmContactCapsuleBoxERKNS0_13GeometryUnionES3_RKNS_11PxTransformES6_RKfRNS0_5CacheERNS0_13ContactBufferE
p7b:__ZN10Matrix4x4f8TransferI8JSONReadEEvRT_
JZk:_ReadOnlyCollection_1_CopyTo_m1045297632_gshared
nwg:_PermissionSet__ctor_m2569419083
NIk:_AuthorizationState_Reset_m2998197623
YIf:_StackTrace__ctor_m772333217
Z$g:_Operator__cctor_m2203786867
zO:__ZN17PersistentManager18ReadObjectThreadedEi
U1:__ZN25TransformFeedbackSkinning31CleanupTransformFeedbackShadersEv
Bwa:__Z22scripting_object_unbox18ScriptingObjectPtr
bDk:_MissingManifestResourceException__ctor_m1317920336
qul:_InternalEnumerator_1_Dispose_m3671580532_AdjustorThunk
CZf:_TimeSpanParse__cctor_m3845946459
dTk:_ObjectEqualityComparer_1_Equals_m2872873530_gshared
Uxe:_XmlSchemaComplexContentExtension_set_BaseTypeName_m1500836125
Huo:__ZL79Evidence_t1407710183_CustomAttributesCacheGenerator_Evidence_CopyTo_m3322038291P21CustomAttributesCache
Rce:_XmlTextReaderImpl_get_NamespaceManager_m4196160167
Zdf:_Decimal_System_IConvertible_ToInt16_m3159038792_AdjustorThunk
oxi:_Enumerator_System_Collections_IDictionaryEnumerator_get_Value_m3705393446_gshared
b6n:__Z41RuntimeInvoker_KeyValuePair_2_t3716250094PFvvEPK10MethodInfoPvPS4_
TOa:__ZN10VertexData8TransferI18StreamedBinaryReadILb0EEEEvRT_
_xc:__ZN5physx2Sc5Scene9addStaticERNS0_10StaticCoreEPKPvjj
GWh:_Timer_GetTimeMonotonic_m1741120680
Vrn:__ZN6il2cpp8metadata25Il2CppGenericClassCompare7CompareEPK18Il2CppGenericClassS4_
plg:_PKCS12_GetExistingParameters_m2413397265
Yyl:_Nullable_1_get_Value_m1743067844_gshared
WHl:_Tuple_4_Equals_m293337750_gshared
NOl:_EqualityComparer_1__ctor_m1847532519_gshared
hFk:_WriteDelegate__ctor_m2716162599
OYa:__ZN14PreloadManager16UpdatePreloadingEv
Rsa:__ZN12BaseRendererD2Ev
mBa:__ZN14SafeBinaryRead21TransferSTLStyleArrayI19StaticArrayTransferIiLi4EEEEvRT_17TransferMetaFlags
Kup:__ZNKSt3__210moneypunctIcLb1EE16do_thousands_sepEv
I7c:__ZN5physx2Sc5Scene9addShapesEPKPvjjRNS0_8RigidSimEPNS_12PxsRigidBodyERPNS0_8ShapeSimEPNS_9PxBounds3E
Upo:__ZL82WaitHandle_t677569169_CustomAttributesCacheGenerator_WaitHandle_Dispose_m441403862P21CustomAttributesCache
L4m:__ZNK15dense_hashtableINSt3__24pairIK10KeyWrapperINS1_IPKcS4_EEEiEES6_24NamespaceAndNamePairHashN14dense_hash_mapIS6_iS9_NS6_14EqualsComparerI26NamespaceAndNamePairEqualsEENS0_9allocatorIS8_EEE9SelectKeyESD_SF_E10test_emptyEj
Kbl:_RegistryKey_CreateMarkedForDeletionException_m2959634582
Nmn:__ZN6il2cpp6icalls8mscorlib6System10Reflection4Emit13ModuleBuilder10basic_initEP29Il2CppReflectionModuleBuilder
Jen:__ZN14dense_hash_mapI10KeyWrapperIPK19Il2CppGenericMethodEP10MethodInfoN6il2cpp8metadata23Il2CppGenericMethodHashENS4_14EqualsComparerINS8_26Il2CppGenericMethodCompareEEENSt3__29allocatorINSD_4pairIKS4_S6_EEEEEC2EjRKS9_RKSC_
p9d:_NodeData_SetNamedNode_m2372283377
x7h:_Version_AppendPositiveNumber_m305041698
Tjd:__ZN5physx23PxcPCMContactConvexMeshERKNS_2Gu13GeometryUnionES3_RKNS_11PxTransformES6_RKfRNS_10PxcNpCacheERNS0_13ContactBufferE
s8n:__Z94RuntimeInvoker_RuntimeObject_Double_t4078015681_Double_t4078015681_RuntimeObject_RuntimeObjectPFvvEPK10MethodInfoPvPS4_
DI:__ZNK21UnityDefaultAllocatorI17LowLevelAllocatorE8ContainsEPKv
rvj:_ClientSessionInfo_get_Id_m3046630969
hce:_XmlTextReaderImpl_get_DtdParserProxy_LineStartPosition_m2034878202
Qtf:_AsymmetricAlgorithm_FromXmlString_m1538717734
cZm:__ZN6il2cpp2vm13CachedCCWBaseI46ManagedErrorInfo_t914761495_ComCallableWrapperE7DestroyEv
K1e:_ConsoleDriver_TtySetup_m2722934590
YCn:__Z62RuntimeInvoker_RuntimeObject_DateTime_t693205669_RuntimeObjectPFvvEPK10MethodInfoPvPS4_
o4m:_il2cpp_z_inflate_fast
cNa:__ZN24GenerateTypeTreeTransfer21TransferSTLStyleArrayINSt3__26vectorIN15QualitySettings14QualitySettingENS1_9allocatorIS4_EEEEEEvRT_17TransferMetaFlags
RTa:__ZNSt3__26vectorI14SubstanceInputNS_9allocatorIS1_EEE8__appendEj
aWe:_IListWrapper_Add_m1561705369
wPl:_EqualityComparer_1_get_Default_m2707073525_gshared
Vsi:_ArraySegment_1_System_Collections_Generic_IListU3CTU3E_get_Item_m2541481689_AdjustorThunk
UUa:__ZNSt3__26vectorI9InputAxisNS_9allocatorIS1_EEE6resizeEj
JSg:_CancellationTokenSource_get_ThreadIDExecutingCallbacks_m4212163674
Pbo:__ZL79RuntimeObject_CustomAttributesCacheGenerator_Object_ReferenceEquals_m3900584722P21CustomAttributesCache
Vzb:__ZN13BatchRendererC2ER15RenderLoopStatsRK15RenderNodeQueuebbb
Fsg:_SecurityElement_IsValidAttributeValue_m483287146
thp:_FormerlySerializedAsAttribute__ctor_m3044655632
U5a:__ZNK2UI13RectTransform22GetTypeVirtualInternalEv
kKg:_Encoding_get_Unicode_m1382741113
qWk:_Queue_1__ctor_m1123553692_gshared
q6e:_DateTimeParse_HandleTimeZone_m3544601315
Oql:_InternalEnumerator_1__ctor_m1626855592_gshared
bkd:__ZN5physx2Gu33MultiplePersistentContactManifold24addManifoldContactPointsEPNS0_21MeshPersistentContactEjPPNS0_15PCMContactPatchEjRKNS_6shdfnd3aos6FloatVESB_h
hWg:_Task__ctor_m2563468577
hxg:_AllMembershipCondition_ToString_m3894000262
Hti:_ArraySegment_1_System_Collections_Generic_IListU3CTU3E_IndexOf_m3130654213_gshared
h3i:_AssemblyTitleAttribute__ctor_m1696431446
UUi:_X509CertificateImplApple_SecCertificateCopySubjectSummary_m1705199766
I8g:_Datatype_anySimpleType_get_TokenizedType_m3462956126
nfn:__ZN24dense_hashtable_iteratorINSt3__24pairIK10KeyWrapperIPK19Il2CppGenericMethodEP10MethodInfoEES6_N6il2cpp8metadata23Il2CppGenericMethodHashEN14dense_hash_mapIS6_S9_SD_NS6_14EqualsComparerINSC_26Il2CppGenericMethodCompareEEENS0_9allocatorISA_EEE9SelectKeyESH_SJ_E30advance_past_empty_and_deletedEv
Jrj:_PrivateKeyInfo_RemoveLeadingZero_m3396807048
I0k:_ReadOnlyCollection_1_System_Collections_Generic_ICollectionU3CTU3E_get_IsReadOnly_m1251192075_gshared
pOk:_List_1_Insert_m1561732170_gshared
Odk:_List_1_CopyTo_m3173392944_gshared
mGb:__ZN18DeferredRenderLoopD2Ev
vBf:_Array_swap_TisDouble_t4078015681_m3383122565_gshared
A7i:_GenericTypeParameterBuilder_GetMethods_m1243855818
xia:__ZNK16TypeTreeIterator4NameEv
Ulf:_ObjectHolder_set_ValueTypeFixupPerformed_m3210221279
f3d:_XmlNodeReader_get_Depth_m4117731583
XBi:_KeyCollection_System_Collections_Generic_ICollectionU3CTKeyU3E_get_IsReadOnly_m2924879015_gshared
Aco:__ZL40UIntPtr_t_CustomAttributesCacheGeneratorP21CustomAttributesCache
KR:__ZN15FileSystemEntry3SetEPKc
oag:_SchemaAttDef_System_Xml_IDtdAttributeInfo_get_Prefix_m3962090022
Wqd:__ZN5physx6shdfnd5ArrayIPNS_13PxcNpMemBlockENS0_19ReflectionAllocatorIS3_EEE6resizeEjRKS3_
L2o:__ZL54SslProtocols_t894678499_CustomAttributesCacheGeneratorP21CustomAttributesCache
sae:_XmlTextReaderImpl_OnEof_m2801067185
A0o:__ZL79SR_t2523137205_CustomAttributesCacheGenerator_SR_GetString_m3230013847____args1P21CustomAttributesCache
acf:_DateTimeRawInfo_t1887088787_marshal_pinvoke_cleanup
zxf:_Array_qsort_TisBoolean_t3825574718_m1029518450_gshared
IXc:__ZN5physx14NpRigidDynamic8requiresERNS_23PxProcessPxBaseCallbackE
ZOo:__ZL67EncodingByteBuffer_t3578698359_CustomAttributesCacheGenerator_bytesP21CustomAttributesCache
Xv:__ZN20SoundChannelInstance15ParameterBuffer5ApplyEPN4FMOD7ChannelE
Plo:__ZL74SByte_t454417549_CustomAttributesCacheGenerator_SByte_TryParse_m2461143221P21CustomAttributesCache
T2h:_TypeIdentifiers_WithoutEscape_m1377177423
UNh:_Parser_ParseChar_m775068027_AdjustorThunk
vjo:__ZL73Enum_t2459695545_CustomAttributesCacheGenerator_Enum_ToObject_m1688724857P21CustomAttributesCache
GZo:__ZL107XmlSchemaType_t1795078578_CustomAttributesCacheGenerator_XmlSchemaType_t1795078578____Datatype_PropertyInfoP21CustomAttributesCache
URo:__ZL99CompareInfo_t2310920157_CustomAttributesCacheGenerator_CompareInfo_t2310920157____Name_PropertyInfoP21CustomAttributesCache
eFd:__ZN5physx7profile8ZoneImplINS_28PxProfileNameProviderForwardEE21setProfileZoneManagerEPNS_20PxProfileZoneManagerE
eOd:__ZN11UnityEngine15PlatformWrapper24GetRuntimePlatformStringEv
_i:_glIsEnabled
N$a:__ZN15CacheWriterBaseD2Ev
W_f:_Guid_ToString_m51661589_AdjustorThunk
Skc:__ZN5physx3Cct17CapsuleController15setFootPositionERKNS_14PxExtendedVec3E
oic:__ZN5physx2Gu33PCMCapsuleVsMeshContactGeneration13generateEEMTDERKNS_6shdfnd3aos5Vec3VES6_RKNS3_6FloatVES6_jS6_S6_PNS0_21MeshPersistentContactERj
Sbb:__Z25scripting_class_get_image17ScriptingClassPtr
GHc:__ZN18MultiQueryCallbackIN5physx10PxSweepHitEED0Ev
cim:_PlayableAsset_Internal_CreatePlayable_m2166162235
wYa:__ZNSt3__26vectorIN4core12basic_stringIcNS1_20StringStorageDefaultIcEEEE13stl_allocatorIS5_L18MemLabelIdentifier13ELi16EEEC2INS_11__wrap_iterIPS5_EEEET_SE_RKS8_PNS_9enable_ifIXaasr21__is_forward_iteratorISE_EE5valuesr16is_constructibleIS5_NS_15iterator_traitsISE_E9referenceEEE5valueEvE4typeE
cj:_emscripten_glDrawElementsInstanced
Sgj:_MonoMethodMessage_GetArgName_m1514377162
NNn:__Z39RuntimeInvoker_RegistryHive_t2561794591PFvvEPK10MethodInfoPvPS4_
Zbg:_SchemaCollectionCompiler_CleanupSimpleType_m858516665
u8l:_GeneralNames_get_IPAddresses_m1712556836
Mqj:_HMAC_Initialize_m3052649104
Uhm:_Playable__ctor_m71878399_AdjustorThunk
bdf:_Decimal_FCallAddSub_m2716413624
P5a:__ZN9Transform17MainThreadCleanupEv
dbp:__ZL143UnitySynchronizationContext_t1205147244_CustomAttributesCacheGenerator_UnitySynchronizationContext_InitializeSynchronizationContext_m2786500889P21CustomAttributesCache
pln:_GC_clear_hdr_marks
MLp:_emscripten_glCreateShader__wrapper
fak:_Enumerator_System_Collections_IEnumerator_Reset_m96379611_gshared
oNl:_EnumEqualityComparer_1_GetHashCode_m1173987957_gshared
gGo:__ZL73CompilationRelaxationsAttribute_t238494011_CustomAttributesCacheGeneratorP21CustomAttributesCache
aue:_XmlBaseConverter_DecimalToUInt64_m412118568
rdl:_MSCompatUnicodeTable_GetTailoringInfo_m2792223347
SRh:_XmlCharacterData_get_InnerText_m1635815996
g9j:_Enumerator_get_Current_m1908082014_AdjustorThunk
slo:__ZL86Number_t2840369917_CustomAttributesCacheGenerator_Number_TryStringToNumber_m2081746450P21CustomAttributesCache
v1j:_NameObjectCollectionBase_get_Keys_m446053925
nj:_emscripten_glGetShaderiv
f4g:_NameTable_Grow_m2973870525
Xw:__ZN4FMOD6System10getVersionEPj
Rrd:__ZN5physx2Sc7BodySim10sleepCheckEffb
iek:_List_1_Sort_m3764861451_gshared
y6k:__ZN21InterfaceFuncInvoker1IbtE6InvokeEjP11Il2CppClassP12Il2CppObjectt
PSk:_ObjectComparer_1_Compare_m1552110319_gshared
_Jh:_XsdBuilder_ProcessAttribute_m3518624271
Gxh:_Array_InternalArray__IndexOf_TisSByte_t454417549_m1427585061_gshared
Yle:_SchemaEntity_set_DeclaredURI_m1819242117
rfo:__ZL115BadImageFormatException_t4102491222_CustomAttributesCacheGenerator_BadImageFormatException_get_FusionLog_m689642791P21CustomAttributesCache
pjp:_YieldInstruction_t3462875981_marshal_pinvoke
g3j:_ArrayConverter_ConvertTo_m1413480260
i7l:_X509Certificate_Parse_m1764345628
lVo:__ZL85XmlConvert_t1936105738_CustomAttributesCacheGenerator_XmlConvert_ToString_m4223697254P21CustomAttributesCache
T4b:__ZN9JSONWrite8TransferIN4math12int2_storageEEEvRT_PKc17TransferMetaFlags
XXi:_KeyContainerPermission_IsUnrestricted_m2478546348
lLp:_emscripten_glCullFace__wrapper
dui:_U3CGetEnumeratorU3Ed__35_System_IDisposable_Dispose_m877079910_gshared
kve:_XmlNumeric10Converter_ToString_m1709878749
J_:__ZN9GfxDevice21ReleaseSharedMeshDataEP14SharedMeshData
_Ho:__ZL73MonoMethod_t_CustomAttributesCacheGenerator_MonoMethod_Invoke_m3376991795P21CustomAttributesCache
fwk:_Module_t4282841206_marshal_pinvoke_cleanup
Lmg:_SmallXmlParser_Peek_m2814840810
ZEi:_Enumerator_System_Collections_IEnumerator_Reset_m1708159448_gshared
hMj:_TypedElement_get_TypeName_m1790982264
JVa:__ZNSt3__27__sort5IRNS_6__lessINS_4pairIPKN5Unity4TypeE7Hash128EES8_EEPS8_EEjT0_SC_SC_SC_SC_T_
iWi:_EnvironmentPermission_IsEmpty_m770865100
VKn:__Z123RuntimeInvoker_RuntimeObject_RuntimeObject_Int32_t2071877448_Int32_t2071877448_RuntimeObject_RuntimeObject_SByte_t454417549PFvvEPK10MethodInfoPvPS4_
Kqh:_Array_InternalArray__ICollection_Remove_TisEntry_t4272951227_m1911824392_gshared
Vkf:_SerializationHeaderRecord_Dump_m1499246609
PKl:_Dictionary_2_System_Collections_Generic_IDictionaryU3CTKeyU2CTValueU3E_get_Values_m786874976_gshared
wkn:_GC_unreachable_finalize_mark_proc
njp:_WaitForSecondsRealtime_get_keepWaiting_m4138104467
rg:___syscall192
w4g:_Res_GetString_m2515920565
mEn:__Z86RuntimeInvoker_Void_t1841601450_RuntimeObject_Int32_t2071877448_BooleanU26_t3168250738PFvvEPK10MethodInfoPvPS4_
T3i:_CustomAttributeFormatException__ctor_m2124495731
Uln:_maybe_finalize
gDf:_ThrowHelper_IfNullAndNullsAreIllegalThenThrow_TisTimeSpan_t3430258949_m3611052542_gshared
pBn:__Z50RuntimeInvoker_Void_t1841601450_Single_t2076509932PFvvEPK10MethodInfoPvPS4_
ITh:_TaskScheduler_TryDequeue_m4103077380
Taf:_DateTimeOffset_get_DateTime_m229084964_AdjustorThunk
lqf:_RuntimeType_FilterApplyMethodBase_m3489698640
zjf:_ObjectIDGenerator__ctor_m278693416
jKa:__ZN8Material28UpdateHashesOnPropertyChangeEN9ShaderLab16FastPropertyNameE
trk:_SymbolType_GetProperties_m598653058
Gce:_XmlTextReaderImpl_PopXmlContext_m4011420409
Iwg:_PermissionSet_Intersect_m1732433896
A2f:_Datatype_QName_get_ListValueType_m1980926531
sXe:_CaseInsensitiveComparer_Compare_m1192858479
yZo:__ZL133XmlSchemaSubstitutionGroup_t3854467138_CustomAttributesCacheGenerator_XmlSchemaSubstitutionGroup_t3854467138____Examplar_PropertyInfoP21CustomAttributesCache
uPn:__Z65RuntimeInvoker_RuntimeObject_RuntimeObject_DecimalU26_t1613489971PFvvEPK10MethodInfoPvPS4_
Kab:__Z18Transfer_BlittableI14SafeBinaryReadLb1E8Vector4fEvRK29SerializationCommandArgumentsR31RuntimeSerializationCommandInfo
V0:__ZN13GfxDeviceGLES20SetComputeBufferDataE15ComputeBufferIDPKvjj
Tup:__ZNSt3__210moneypunctIwLb0EED0Ev
_mj:_BinaryMethodCall_Write_m2892699187
rTi:_TailStream_get_CanRead_m4130112114
Zy:__ZN11AudioSource12AddToManagerEv
pyg:_DefaultPolicies_get_Nothing_m2318328717
ozl:_Predicate_1_EndInvoke_m2487624220_gshared
z4m:__ZN6il2cpp2vm5Image13ClassFromNameEPK11Il2CppImagePKcS6_
EBp:dynCall_vdddddd
O2a:__ZN24GenerateTypeTreeTransfer21TransferSTLStyleArrayINSt3__26vectorIN9ShaderLab14SerializedPassENS1_9allocatorIS4_EEEEEEvRT_17TransferMetaFlags
quc:__ZN5physx6shdfnd8internal8HashBaseIPNS_2Sc13ConstraintSimES5_NS0_4HashIS5_EENS1_11HashSetBaseIS5_S7_NS0_9AllocatorELb1EE6GetKeyES9_Lb1EE6createERKS5_Rb
qN:__ZL32MarkLevelGameManagerDependenciesR27GarbageCollectorThreadState
LHn:__Z143RuntimeInvoker_Void_t1841601450_RuntimeObject_RuntimeObject_RuntimeObject_RuntimeObject_RuntimeObject_RuntimeObject_RuntimeObject_RuntimeObjectPFvvEPK10MethodInfoPvPS4_
a1:__ZNK13GfxDeviceGLES26HasActiveRandomWriteTargetEv
dYm:__GLOBAL__sub_I_Thread_cpp
VTf:_TaiwanCalendar_GetDefaultInstance_m1873345903
fCc:__ZNK5physx15NpActorTemplateINS_18PxArticulationLinkEE7getNameEv
uGp:_glGetActiveUniformsiv__wrapper
P2j:_StringCollection_Insert_m1467620830
D8h:_GuidResult_SetFailure_m2794594131_AdjustorThunk
mac:__ZNK5physx3Cct10Controller16getInternalStateERNS_17PxControllerStateE
HP:__ZN13MonoBehaviour19SetupScriptingCacheE17ScriptingClassPtrP10MonoScript
fGk:_FtpWebRequest_DownloadData_m766254495
h0k:_ReadOnlyCollection_1_System_Collections_Generic_ICollectionU3CTU3E_Add_m836770477_gshared
oOl:_EqualityComparer_1_System_Collections_IEqualityComparer_Equals_m3640442426_gshared
LGh:_XmlSchemaRedefine_get_Groups_m2787066472
kO:__ZNK15dense_hashtableINSt3__24pairIKiiEEi21InstanceIDHashFunctorN14dense_hash_mapIiiS4_NS0_8equal_toIiEE13stl_allocatorIS3_L18MemLabelIdentifier1ELi16EEE9SelectKeyES7_SA_E13find_positionERS2_
lql:_InternalEnumerator_1__ctor_m2945276195_AdjustorThunk
IIh:_XmlSchemaValidator_QNameString_m3663159848
XO:__ZN17PersistentManager29ReadAndActivateObjectThreadedEiRK26SerializedObjectIdentifierP14SerializedFilebb
u7k:_ReadOnlyCollection_1_System_Collections_IList_set_Item_m950802741_gshared
jYe:_CompatibleComparer_Equals_m750118686
Akm:_Func_3_BeginInvoke_m1301784476_gshared
I6c:__ZN5physx10PxsContext15setScratchBlockEPvj
xSi:_SHA384Managed_Sigma_1_m3377328591
szo:__ZL112ObjectManager_t2645893724_CustomAttributesCacheGenerator_ObjectManager_DoNewlyRegisteredObjectFixups_m3886515649P21CustomAttributesCache
Xap:__ZL74UnityEventBase_t828812576_CustomAttributesCacheGenerator_m_PersistentCallsP21CustomAttributesCache
cW:__ZZN15DirectorManager15InitializeClassEvEN52PreLateUpdateDirectorUpdateAnimationBeginRegistrator7ForwardEv
Q2m:__ZN6il2cpp2vm13LivenessState18ShouldProcessValueEP12Il2CppObjectP11Il2CppClass
mTh:_TaskScheduler_PublishUnobservedTaskException_m1618384244
bka:__ZN4PPtrI6SpriteE8TransferI14SafeBinaryReadEEvRT_
Elj:___BinaryParser_ReadObjectWithMapTyped_m942254985
fXl:_ConfigurationElementCollection_get_SyncRoot_m1263605066
DHn:__Z52RuntimeInvoker_Void_t1841601450_TimeSpan_t3430258949PFvvEPK10MethodInfoPvPS4_
dXm:__ZN15dense_hashtableINSt3__24pairIK10KeyWrapperIP11Il2CppClassES4_EES5_N6il2cpp8metadata16SZArrayClassHashEN14dense_hash_mapIS5_S4_SA_NS5_14EqualsComparerINS9_19SZArrayClassCompareEEENS0_9allocatorIS7_EEE9SelectKeyESE_SG_E16reset_thresholdsEv
EPn:__Z66RuntimeInvoker_RuntimeObject_RuntimeObject_TimeSpanU26_t1370980163PFvvEPK10MethodInfoPvPS4_
npc:__ZN5physx2Cm27getDynamicGlobalPoseAlignedERKNS_11PxTransformES3_S3_RS1_
Ygm:_Matrix4x4_GetHashCode_m375571566
BKi:_Dictionary_2_System_Collections_Generic_ICollectionU3CSystem_Collections_Generic_KeyValuePairU3CTKeyU2CTValueU3EU3E_CopyTo_m3494157322_gshared
MNn:__Z58RuntimeInvoker_RegistryValueKind_t3069013676_RuntimeObjectPFvvEPK10MethodInfoPvPS4_
Ckg:_Uri_get_IsLoopback_m350861923
j2a:__ZNSt3__26vectorIN9ShaderLab14SerializedPassENS_9allocatorIS2_EEE8__appendEj
zxd:__ZN5physx6shdfnd5ArrayIPvNS0_19ReflectionAllocatorIN17PxcPoolMallocData10PoolData32EEEE15growAndPushBackERKS2_
A1a:__ZNSt3__26vectorIN9ShaderLab20SerializedSubProgram13BufferBindingENS_9allocatorIS3_EEEC2INS_11__wrap_iterIPS3_EEEET_SB_RKS5_PNS_9enable_ifIXaasr21__is_forward_iteratorISB_EE5valuesr16is_constructibleIS3_NS_15iterator_traitsISB_E9referenceEEE5valueEvE4typeE
I9k:_Comparison_1_Invoke_m1248212203_gshared
Pvj:_Context_get_SupportedCiphers_m2172827298
tUb:__ZZL23RegisterLightPropertiesR22GenericPropertyBindingEN20Wrapper_LightColorb213GetFloatValueEPv
YNg:_StringBuilder_Append_m3194953358
TNa:__ZNK13ScreenManager21IsMultiDisplayEnabledEv
TIp:_emscripten_glBlendColor__wrapper
IWl:_ConfigurationElement_SerializeElement_m4131562944
SJa:__ZN9Texture2D23VirtualRedirectTransferER18StreamedBinaryReadILb0EE
L6i:_EventBuilder_t2927243889_marshal_pinvoke
yKf:_Double_System_IConvertible_ToUInt16_m286326038_AdjustorThunk
hJi:_Dictionary_2_get_Keys_m1900997095_gshared
Mjm:_Func_1__ctor_m4106752573_gshared
UWo:__ZL124XmlSchemaComplexType_t4086789226_CustomAttributesCacheGenerator_XmlSchemaComplexType_t4086789226____ContentType_PropertyInfoP21CustomAttributesCache
dkj:_TypeInfo__ctor_m1475908211
Qco:__ZL94RuntimeType_t2836228502_CustomAttributesCacheGenerator_RuntimeType_IsContextfulImpl_m774791549P21CustomAttributesCache
maj:_MethodOnTypeBuilderInst_get_ContainsGenericParameters_m3990467731
Pzj:_SslServerStream_EndNegotiateHandshake_m3019120590
Dse:_XmlBaseConverter_ToInt32_m2601445907
oQ:__ZN16ScriptingManager27NativeTypeForScriptingClassE17ScriptingClassPtr
Yag:_SchemaCollectionCompiler_CompileGroup_m3122146982
Lle:_SchemaEntity_get_Pos_m2927799871
tam:_X509CertificateEnumerator_System_Collections_IEnumerator_MoveNext_m1448966539
qim:_PlayableOutput_GetHandle_m3774862504_AdjustorThunk
gnk:_List_1_IndexOf_m441311894_gshared
cvj:_TlsServerHelloDone__ctor_m2125611008
IVo:__ZL53KeySequence_t746093258_CustomAttributesCacheGeneratorP21CustomAttributesCache
qCg:_SecuritySafeCriticalAttribute__ctor_m2508714287
JXk:_Stack_1_System_Collections_ICollection_CopyTo_m2045830142_gshared
FPb:__Z13RegisterClassI5LightEvv
vHd:__ZN5physx2Gu20registerHeightFieldsEv
xLa:__ZN8Renderer20RendererAddedToSceneEv
fvf:_DES_get_Key_m2584608215
Vff:_MemberPrimitiveTyped_Set_m23751498
lfd:__ZN5physx22concludeContactCoulombERKNS_23PxcSolverConstraintDescERNS_16PxcSolverContextE
al:_emscripten_set_canvas_size
OMj:_DeflateStream_Flush_m3971344454
GSc:__ZNK5physx15NpParticleFluid12getStiffnessEv
QYe:_Hashtable__ctor_m741952536
f3l:_Marshal_ReleaseInternal_m163406182
S1a:__ZNSt3__26vectorIN9ShaderLab20SerializedSubProgramENS_9allocatorIS2_EEE8__appendEj
lJ:__ZN20DynamicHeapAllocatorI17LowLevelAllocatorE8AllocateEji
OLd:__ZN11UnityEngine9Analytics15UserCustomEvent12ToJsonStringER9JSONWrite
Wah:_ServicePointManager_get_ServerCertValidationCallback_m977745064
uAb:__ZN20DynamicPropertySheet15SetVectorQueuedERKN9ShaderLab16FastPropertyNameERK8Vector4fN19ShaderPropertySheet8SetFlagsE
Q_k:__ZN21InterfaceFuncInvoker1I18Decimal_t724701077iE6InvokeEjP11Il2CppClassP12Il2CppObjecti
vlg:_PKCS12_get_IterationCount_m3572300030
KQk:_List_1_set_Item_m50748761_gshared
dFl:_Task_1_get_Factory_m2174754308_gshared
GQh:_XmlCharType_IsStartNCNameSingleChar_m2228921981
rvh:_Array_InternalArray__IEnumerable_GetEnumerator_TisNamespace_t1808381789_m2435369757_gshared
tCa:__ZN14RenderSettings23VirtualRedirectTransferER19StreamedBinaryWriteILb0EE
ESk:_ObjectComparer_1_Equals_m3715344493_gshared
$jp:_Cover_OnPointerExit_m3254957746
q3b:__ZL26Transfer_SimpleNativeClassI9JSONWrite10RectOffsetLb0EEvRK29SerializationCommandArgumentsR31RuntimeSerializationCommandInfo
Qkn:_GC_push_conditional
$Ld:__ZN21UnityAnalyticsManager23VirtualRedirectTransferER24GenerateTypeTreeTransfer
b5:__ZN17GenericDynamicVBO10AllocateVBEjR21DynamicVBOChunkHandle
lOn:__Z117RuntimeInvoker_Boolean_t3825574718_XPathNodeU5BU5DU26_t3094971498_Int32U26_t455636984_RuntimeObject_Int32_t2071877448PFvvEPK10MethodInfoPvPS4_
VGk:_FtpWebResponse_get_Headers_m1164624792
ydj:_CallContextRemotingData_set_LogicalCallID_m1779974441
b7d:_XmlText_get_LocalName_m1057734595
Vei:_Path_GetPathRoot_m1269357080
rjd:__ZL27PxcTestFacesSepAxesBackfaceRKN5physx2Gu13PolygonalDataES3_RKNS_2Cm8Matrix34ES7_RKNS4_23FastVertex2ShapeScalingESA_S7_RKNS_6PxVec3ERfRSB_RjPjSG_fSD_
Eik:_List_1_System_Collections_IList_Insert_m3497683264_gshared
a6m:__ZN30dense_hashtable_const_iteratorI10KeyWrapperIP18Il2CppGenericClassES3_N6il2cpp8metadata22Il2CppGenericClassHashEN14dense_hash_setIS3_S6_NS3_14EqualsComparerINS5_25Il2CppGenericClassCompareEEENSt3__29allocatorIS3_EEE8IdentityESA_SD_EppEv
Kmf:_SerializationFieldInfo_get_FieldInfo_m2714907419
c3j:_StringDictionary_set_Item_m3594495450
pNm:__ZN6il2cpp2osL19StatToFileAttributeERKNSt3__212basic_stringIcNS1_11char_traitsIcEENS1_9allocatorIcEEEER4statPSA_
yl:_glMapBufferRange
KJa:__ZN9Texture2D8TransferI18StreamedBinaryReadILb0EEEEvRT_
oKl:_Dictionary_2_Remove_m1947153975_gshared
t$b:__Z31Input_CUSTOM_GetMouseButtonDowni
TRn:__Z41RuntimeInvoker_HandshakeState_t1820731088PFvvEPK10MethodInfoPvPS4_
fvm:_UnityEvent_1_RemoveListener_m2092327996_gshared
TNc:__ZNK5physx7NpCloth23getExternalAccelerationEv
_5e:_DateTimeParse_GetDateOfNDS_m265292806
Hra:__ZNK9Transform16GetLocalPositionEv
ttm:__ZL25UnresolvedVirtualCall_263P12Il2CppObjectPK10MethodInfo
Jqg:_Array_System_Collections_ICollection_get_Count_m2897196527
Bla:__ZN13LoadOperation19IntegrateTimeSlicedEi
Erl:_InternalEnumerator_1_MoveNext_m2180350026_AdjustorThunk
Lgd:__ZN5physx16PxsBroadPhaseMBP9updatePPUEPNS_10PxBaseTaskE
Vsf:_SByte_System_IConvertible_ToInt16_m2746591444_AdjustorThunk
q0f:_Datatype_float_get_TypeCode_m782063017
l1:__ZN13GfxDeviceGLES22DispatchComputeProgramE12ObjectHandleI18ComputeProgram_TagPvE15ComputeBufferIDj
ivb:__ZN20DefaultGfxDeviceImpl32InitStereoGlobalsBuffersPlatformEiijPKv
och:_SafeSocketHandle_UnRegisterForBlockingSyscall_m3418232661
sBn:__Z60RuntimeInvoker_Void_t1841601450_StreamingContext_t1417235061PFvvEPK10MethodInfoPvPS4_
C3e:_Convert_ToInt32_m2297793940
l_a:__Z17TransformAABBSlowRK4AABBRK10Matrix4x4fRS_
C9k:_Comparison_1_EndInvoke_m2063942591_gshared
d4k:_ReadOnlyCollection_1_get_Item_m3639694723_gshared
zVm:__ZN13Il2CppHashMapINSt3__24pairIPK9FieldInfoP11Il2CppClassEEj17ReflectionMapHashIS7_ENS0_8equal_toIS7_EENS0_9allocatorINS1_IK10KeyWrapperIS7_EjEEEEEC2EjRKS9_RKSB_
B0a:__ZN9ShaderLab21SerializedShaderState8TransferI14SafeBinaryReadEEvRT_
Ejm:_EmptyArray_1__cctor_m2051206517_gshared
zRi:_RSAPKCS1SignatureFormatter_SetKey_m2365816458
Y7f:_LeafNode_get_IsNullable_m2246299596
Xke:_SchemaElementDecl_get_IsNotationDeclared_m1183726514
MRm:__ZN15dense_hashtableINSt3__24pairIK10KeyWrapperINS1_IPK11Il2CppImageP11Il2CppClassEEEjEES9_17ReflectionMapHashIS8_EN14dense_hash_mapIS9_jSD_NS9_14EqualsComparerINS0_8equal_toIS8_EEEENS0_9allocatorISB_EEE9SelectKeyESI_SK_E8min_sizeEjj
c5i:_ByRefType_MakePointerType_m1908407954
PUc:__ZN5physx6shdfnd8PoolBaseINS_16NpParticleSystemENS0_19ReflectionAllocatorIS2_EEE12allocateSlabEv
Xbh:_NetworkStream_get_CanRead_m1212930377
ndg:_RuntimeMarshal_DecodeBlobSize_m927311023
J7d:_XmlTextReader_get_Name_m221688903
lGa:__ZN15SerializeTraitsINSt3__24pairIN4core12basic_stringIcNS2_20StringStorageDefaultIcEEEES6_EEE8TransferI24GenerateTypeTreeTransferEEvRS7_RT_
rIp:b89
kIp:b88
TIm:__ZN6il2cpp6icalls8mscorlib6SystemL8IsPublicEPK9EventInfo
dIp:b81
cIp:b80
ida:__ZN7ApiGLES19CreateSparseTextureEjj14GraphicsFormatiiiiRiS1_S1_
_Q:__ZN18ResourceImageGroup7CleanupEv
hIp:b85
bsc:__ZN5physx2Gu36closestPtPointTetrahedronTesselationEPNS_6shdfnd3aos5Vec3VES4_S4_RjRS3_S6_
jIp:b87
sMo:__ZL85StreamReader_t2360341767_CustomAttributesCacheGenerator_StreamReader__ctor_m697099430P21CustomAttributesCache
eq:__ZN11Quaternionf8TransferI24GenerateTypeTreeTransferEEvRT_
Gjd:__ZN5physx25PxcPCMContactSphereConvexERKNS_2Gu13GeometryUnionES3_RKNS_11PxTransformES6_RKfRNS_10PxcNpCacheERNS0_13ContactBufferE
$7i:_GenericTypeParameterBuilder_get_DeclaringType_m1652924692
$Tb:__ZN13ProduceHelperI4MeshLb0EE7ProduceE18MemLabelIdentifier18ObjectCreationMode
Hrj:_PrivateKeyInfo_Decode_m1053025782
bBe:_X509ChainElementCollection_System_Collections_ICollection_CopyTo_m1467895312
htd:__ZN5physx2Cm18DelegateFanoutTaskINS_2Sc5SceneEXadL_ZNS3_20particlePostShapeGenEPNS_10PxBaseTaskEEEED0Ev
flg:_PKCS12_Decrypt_m2457743414
kLm:__Z56ves_icall_System_Threading_ThreadPool_ReportThreadStatusb
$Dl:_SparselyPopulatedArrayFragment_1_get_Item_m2316076924_gshared
mm:_glDeleteShader
g7f:_FacetsCompiler_CompileTotalDigitsFacet_m1855480163_AdjustorThunk
Ugk:_List_1_Reverse_m2685828274_gshared
qNf:_Exception_GetType_m3898489832
a9:__ZN6prcoreL17RemapGenericFloatI15TexFormatRGHalf16TexFormatRGFloatEEvPKNS_9InnerInfoE
M3n:__Z89RuntimeInvoker_Void_t1841601450_Int32_t2071877448_SequenceConstructPosContext_t3853454650PFvvEPK10MethodInfoPvPS4_
vod:__ZN5physx16PxsIslandManager17cleanupEdgeEventsEv
LIc:__ZN5physx6shdfnd8PoolBaseINS_10NpMaterialENS0_19ReflectionAllocatorIS2_EEE15disposeElementsEv
Bil:_InternalEnumerator_1_get_Current_m1894741129_gshared
tBj:_TypeDescriptor_get_InterfaceType_m1539894436
fxo:__ZL51HMACSHA1_t1958407246_CustomAttributesCacheGeneratorP21CustomAttributesCache
eZb:__Z27scripting_add_internal_callPKcPKv
e4l:_AppDomainLevelActivator__ctor_m230071814
R8m:__ZN6il2cpp2os6Socket25SetSocketOptionMembershipENS0_17SocketOptionLevelENS0_16SocketOptionNameEjj
gKk:_LazyAsyncResult__ctor_m1085495249
KHg:_DecoderNLS__ctor_m3937441754
jVm:__ZN13Il2CppHashMapINSt3__24pairIPK9EventInfoP11Il2CppClassEEj17ReflectionMapHashIS7_ENS0_8equal_toIS7_EENS0_9allocatorINS1_IK10KeyWrapperIS7_EjEEEEEC2EjRKS9_RKSB_
$6m:__GLOBAL__sub_I_GarbageCollector_cpp
_ca:__Z17GetPlayerSettingsv
nko:__ZL48Int32_t2071877448_CustomAttributesCacheGeneratorP21CustomAttributesCache
Fbc:__ZL21ContactReductionAllInRN5physx2Gu13ContactBufferEjjRKNS_7PxMat33EPKNS_6PxVec3EPKh
i8d:_XmlTextReader_get_LineNumber_m2626706892
Gam:_X509Store_CheckStore_m1027496478
gKj:_ListenerElementsCollection_InitializeDefaultInternal_m375652092
pIo:__ZL82MethodBase_t904190842_CustomAttributesCacheGenerator_MethodBase_Invoke_m1075809207P21CustomAttributesCache
onh:_X509Certificate2ImplMono_GetCertHash_m907347488
hZl:_ProtectedConfigurationSection_InstantiateProvider_m1916220169
oEa:__ZN13RenderTexture8TransferI24GenerateTypeTreeTransferEEvRT_
Oyp:__ZNSt3__212basic_stringIcNS_11char_traitsIcEENS_9allocatorIcEEEC2ERKS5_jjRKS4_
V9m:__ZN23WorkerThreadStateHolderC2Ev
mFg:_String_Contains_m4017059963
M9e:_DateTimeParse_TryParse_m991964766
zio:__ZL77Decimal_t724701077_CustomAttributesCacheGenerator_Decimal_Truncate_m511056681P21CustomAttributesCache
Pxp:__ZNSt3__26locale5__imp7installINS_7codecvtIDsc11__mbstate_tEEEEvPT_
xDh:_Array_InternalArray__Insert_TisKeyValuePair_2_t4275477795_m2017583275_gshared
Bpn:__ZN6il2cpp2vm9Parameter30GetDefaultParameterValueObjectEPK10MethodInfoPK13ParameterInfoPb
xVn:__Z80RuntimeInvoker_Boolean_t3825574718_RuntimeObject_Int32_t2071877448_RuntimeObjectPFvvEPK10MethodInfoPvPS4_
Iwf:_Array_InternalArray__set_Item_TisLabelData_t3712112744_m2253365137_gshared
bxk:_MonoCMethod_get_Attributes_m3914742834
HFh:_XmlSchemaObjectCollection_set_Item_m183355626
TUl:_Configuration_set_Parent_m3106974805
Zzg:_ZoneMembershipCondition_set_SecurityZone_m863145258
t5i:_ConstructorBuilder_get_DeclaringType_m4264602248
x9n:__ZL64AppDomain_t2719102437_CustomAttributesCacheGenerator_ProcessExitP21CustomAttributesCache
Vuh:_Array_InternalArray__IEnumerable_GetEnumerator_TisBinaryTypeEnum_t2877339122_m2595527943_gshared
N0n:__Z49RuntimeInvoker_Int32_t2071877448_Byte_t3683104436PFvvEPK10MethodInfoPvPS4_
X9d:_XmlTextReaderImpl_GetIndexOfAttributeWithPrefix_m155543695
nlo:__ZL82Number_t2840369917_CustomAttributesCacheGenerator_Number_TryParseInt32_m3844601330P21CustomAttributesCache
QGm:__ZN6il2cpp6icalls6System6System3Net7Sockets6Socket5CloseEiPi
ssj:_MonoTlsSettings_get_ClientCertificateSelectionCallback_m1748559228
SCc:__ZN5physx19NpRigidBodyTemplateINS_18PxArticulationLinkEE16setRigidBodyFlagENS_15PxRigidBodyFlag4EnumEb
wHi:_Dictionary_2_Add_m286245028_gshared
qnm:_PCMReaderCallback_EndInvoke_m4163012370
Cml:_InternalEnumerator_1_Dispose_m2915635719_AdjustorThunk
NLj:_TraceListenerCollection_System_Collections_IList_Contains_m4113625380
tdf:_Decimal_Parse_m2662862650
hqp:__ZNSt3__215basic_streambufIcNS_11char_traitsIcEEE4syncEv
K5l:_Context_get_DefaultContext_m2211922324
B5f:_DtdValidator_Init_m1395928050
ATa:__ZN14SafeBinaryRead21TransferSTLStyleArrayINSt3__26vectorI14SubstanceInputNS1_9allocatorIS3_EEEEEEvRT_17TransferMetaFlags
Rgn:__ZN6il2cpp5utils11StringUtils15StringDuplicateEPKDsj
zRa:__ZN12BoneWeights48TransferI24GenerateTypeTreeTransferEEvRT_
hwe:_XmlSchemaAnnotated__ctor_m3212660426
mLm:__ZNSt3__26vectorIP16ThreadPoolDomainNS_9allocatorIS2_EEE21__push_back_slow_pathIRKS2_EEvOT_
Yrj:_RSAManaged_GetPaddedValue_m2972141669
Xwj:_TlsServerCertificate_ProcessAsSsl3_m277089231
_Ej:_PropertyDescriptorCollection__cctor_m299292564
P7m:__ZN6il2cpp2gcL10CleanupCCWEPvS1_
fvh:_Array_InternalArray__IEnumerable_GetEnumerator_TisUInt16_t986882611_m3665860884_gshared
vsb:__Z19scripting_gc_enablev
Rvb:__ZZ23InitPlayerLoopCallbacksvEN41InitializationPlayerUpdateTimeRegistrator7ForwardEv
nGd:__ZN5physx7profile11EventBufferINS_24PxDefaultContextProviderENS_6shdfnd6MutexTINS0_26WrapperReflectionAllocatorIhEEEENS0_14ScopedLockImplIS7_EENS_24PxProfileNullEventFilterEE9stopEventEty
DMi:_HashAlgorithm_get_CanTransformMultipleBlocks_m3090834581
DMk:_Win32_FIXED_INFO_t1371335919_marshal_pinvoke_back
CMb:__Z29StdTemplateConversionFunctionIihEbPvR14SafeBinaryRead
Vie:_XmlSchemaElement_get_QualifiedName_m545714459
R$o:__ZL95DefaultSection_t3840532724_CustomAttributesCacheGenerator_DefaultSection_IsModified_m1050808524P21CustomAttributesCache
YQa:__ZN14SafeBinaryRead21TransferSTLStyleArrayI13dynamic_arrayI11ColorRGBA32Lj4EEEEvRT_17TransferMetaFlags
_wj:_TlsServerCertificate_RemoteValidation_m465839726
Tga:__ZN9GfxDevice22UploadTextureCubeArrayE9TextureIDPKhjii14GraphicsFormati18TextureUploadFlags
k8g:_Compiler_GetComplexType_m1009102127
GYl:_ConfigurationPropertyAttribute__ctor_m2756034538
nug:_SiteIdentityPermission_IsValid_m337880737
JXl:_ConfigurationElementCollection_OnDeserializeUnrecognizedElement_m1168261278
I$k:_ReadOnlyCollection_1_System_Collections_IEnumerable_GetEnumerator_m4018713246_gshared
xUf:_EncodingTable_MapCodePageDataItem_m2030517611
w4a:__ZN9ShaderLab7Program27CreateFromSerializedProgramERKNS_17SerializedProgramE10ShaderTypeiP16PropertyNamesSetPK6Shader
hcf:_DateTimeResult_Init_m1318519161_AdjustorThunk
jjo:__ZL73Enum_t2459695545_CustomAttributesCacheGenerator_Enum_ToObject_m2460371738P21CustomAttributesCache
mkj:_TypeInfo__ctor_m1219583114
Ecg:_RuntimeClassHandle_GetTypeFromClass_m2720406627
NTm:__ZN6il2cpp2gc19AppendOnlyGCHashMapINSt3__24pairIPK11Il2CppImageP11Il2CppClassEEP22Il2CppReflectionModule17ReflectionMapHashIS9_ENS2_8equal_toIS9_EEEC2Ev
rjo:__ZL73Enum_t2459695545_CustomAttributesCacheGenerator_Enum_ToString_m3754726711P21CustomAttributesCache
wO:__Z20GetPersistentManagerv
h4o:__ZL117SocketAsyncEventArgs_t2815111766_CustomAttributesCacheGenerator_SocketAsyncEventArgs_set_BytesTransferred_m3155684685P21CustomAttributesCache
J5l:_Context_Finalize_m1386439645
bL:__ZN21SystemInfoStringCache16StaticInitializeEPv
N7l:_TlsStream__ctor_m4117943603
oqo:__ZL127CancellationCallbackInfo_t1473383178_CustomAttributesCacheGenerator_CancellationCallbackInfo_ExecutionContextCallback_m49258201P21CustomAttributesCache
Pwf:_Array_InternalArray__set_Item_TisParameterModifier_t1820634920_m3126548327_gshared
Iqc:__ZN5physx2Sc7BodySim18internalWakeUpBaseEf
Edn:__ZN6il2cpp2gc16GarbageCollector23MakeDescriptorForObjectEPji
g7m:__ZNK10KeyWrapperIP12Il2CppObjectE14EqualsComparerINSt3__28equal_toIS1_EEEclERKS2_S9_
tAk:_ParameterModifier_t1820634920_marshal_pinvoke
Jpb:__ZNK13MonoBehaviour7GetNameEv
r$a:__ZN19ScriptingInvocation28AdjustArgumentsToMatchMethodEv
m6m:__ZN15dense_hashtableI10KeyWrapperIP18Il2CppGenericClassES3_N6il2cpp8metadata22Il2CppGenericClassHashEN14dense_hash_setIS3_S6_NS3_14EqualsComparerINS5_25Il2CppGenericClassCompareEEENSt3__29allocatorIS3_EEE8IdentityESA_SD_E6insertERKS3_
cuf:__ZN23InterfaceActionInvoker2IP8String_tP6Type_tE6InvokeEjP11Il2CppClassP12Il2CppObjectS1_S3_
iup:__ZNKSt3__28time_getIwNS_19istreambuf_iteratorIwNS_11char_traitsIwEEEEE10__get_yearERiRS4_S4_RjRKNS_5ctypeIwEE
Bmm:_AesCryptoServiceProvider_get_Padding_m609922460
BCn:__Z52RuntimeInvoker_TimeSpan_t3430258949_Int64_t909078037PFvvEPK10MethodInfoPvPS4_
Lt:__Z15_CheckFMODError11FMOD_RESULTPKciS1_
pza:__Z20RenderMultipleMeshesRK15RenderNodeQueueRK18RenderMultipleData17ShaderChannelMask
l7d:_XmlTextEncoder_get_AttributeValue_m3169434864
GOm:__ZN6il2cpp2vm4Type19GetGenericParameterEPK10Il2CppType
iAl:_Predicate_1_EndInvoke_m2126732967_gshared
ADk:_ResourceReader__ReadResources_m215566279
gsi:_InternalEnumerator_1_get_Current_m2826780083_gshared
cZc:__ZN5physx20NpRigidActorTemplateINS_13PxRigidStaticEE15exportExtraDataERNS_22PxSerializationContextE
AEl:_Task_1_StartNew_m2115868853_gshared
SPj:_ChunkStream_get_ChunkLeft_m3001057228
qrh:_Array_InternalArray__ICollection_Remove_TisCustomAttributeNamedArgument_t94157543_m2838387005_gshared
Qud:__ZN5physx13BigConvexData5VLoadERNS_13PxInputStreamE
dGl:_U3CU3Ec__DisplayClass35_0__ctor_m1308056217_gshared
Jd:_glBeginQuery
G1i:_Assembly_GetCustomAttributes_m95309865
Ndl:_U3CU3Ec__cctor_m3187612089
k$e:_SortedList_GetKey_m107993602
Cqi:_InternalEnumerator_1_System_Collections_IEnumerator_get_Current_m4267217660_AdjustorThunk
_7n:__Z36RuntimeInvoker_Enumerator_t980360738PFvvEPK10MethodInfoPvPS4_
yBk:_RuntimeMethodInfo_GetObjectData_m585156611
S8c:__ZN5physx11NodeManager6resizeEj
nxb:__ZN6Camera12RenderStereoENS_10RenderFlagE8CullFlagPNS_24PerformEyeRenderFunctionE
oqj:_RC4__ctor_m1585026462
Y7a:__ZN20LocalFileSystemPosix10ToAbsoluteEPKc
jza:__ZN20TierGraphicsSettings8TransferI19StreamedBinaryWriteILb0EEEEvRT_
v4j:_CustomTypeDescriptor__ctor_m1465663759
Hxh:_Array_InternalArray__IndexOf_TisX509ChainStatus_t4278378721_m1338369069_gshared
wHn:__Z63RuntimeInvoker_InternalPrimitiveTypeE_t3020811655_RuntimeObjectPFvvEPK10MethodInfoPvPS4_
wK:__GLOBAL__sub_I_runtime_input_0_cpp
f2e:_Convert_ToBoolean_m48997236
q2c:__ZNK5physx7NpScene28getSceneQueryStaticTimestampEv
Um:f0
Kja:__ZN9BehaviourD0Ev
Qqj:_KeyPairPersistence__ctor_m1857048652
PHo:__ZL42EventInfo_t_CustomAttributesCacheGeneratorP21CustomAttributesCache
dUh:_TaskToApm_End_m1655855787
eXi:_GacIdentityPermission_FromXml_m487064581
Gya:__Z32TransferEnumWithNameForceIntSizeI14SafeBinaryRead7HDRModeEvRT_RT0_PKc17TransferMetaFlags
JTh:_TaskScheduler_NotifyWorkItemProgress_m3258361607
CDd:__ZNSt3__26vectorI9CollisionNS_9allocatorIS1_EEE21__push_back_slow_pathIKS1_EEvRT_
Lka:__ZN25ThreadsafeLinearAllocatorD2Ev
HYb:__ZL50GetAndClearChangedTransformsForMultilpleSystemsJobP45GetChangedTransformsForMultipleSystemsJobDatajPK23TransformAccessReadOnlyPKyj
rad:__ZN5physx2Sq10AABBPruner11preallocateEj
GZa:__Z21SendMessageToEveryoneRK17MessageIdentifier11MessageData
KLo:__ZL123FileSystemEnumerableIterator_1_t1650443184_CustomAttributesCacheGenerator_FileSystemEnumerableIterator_1_Dispose_m604053229P21CustomAttributesCache
XOh:_XsdValidator_LoadSchema_m2375064976
fU:__ZN21BillboardBatchManager16StaticInitializeEPv
UVm:__ZN6il2cpp2vm10Reflection27GetMonoGenericParameterInfoEPK22Il2CppGenericParameter
JFn:__Z75RuntimeInvoker_Void_t1841601450_CancellationToken_t1851405782_RuntimeObjectPFvvEPK10MethodInfoPvPS4_
hSk:_ObjectComparer_1_GetHashCode_m3109174097_gshared
uM:__ZN12_GLOBAL__N_138ArchiveRedirectFileSystemStaticDestroyEPv
bNf:_EventHandler_Invoke_m1137722757
$ee:_XmlValidatingReader_get_Name_m825290169
Heh:_U3CU3Ec__ctor_m3368924843
mRi:_RSAPKCS1KeyExchangeFormatter_get_Rng_m298251470
fEm:__ZN30dense_hashtable_const_iteratorINSt3__24pairIK10KeyWrapperIN6il2cpp5utils13dynamic_arrayIPK10Il2CppTypeLj4EEEEPFvvEEESA_NS3_8metadata19Il2CppSignatureHashEN14dense_hash_mapISA_SD_SG_NSA_14EqualsComparerINSF_22Il2CppSignatureCompareEEENS0_9allocatorISE_EEE9SelectKeyESK_SM_E30advance_past_empty_and_deletedEv
XHa:__ZN12CubemapArray34UpdateFileTextureUploadInstructionEP26FileAssetUploadInstructionj
R$c:__ZN5physx2Sc19ShapeInstancePairLLC2ERNS0_8ShapeSimES3_RNS0_9ActorPairENS_7PxFlagsINS_10PxPairFlag4EnumEtEE
lsm:__ZL25UnresolvedVirtualCall_201P12Il2CppObject18OpCode_t2247480392hPK10MethodInfo
BCk:_TypeFilter_EndInvoke_m997625354
hda:__Z23CreateSparseTextureGLES9TextureIDii14GraphicsFormati
_Jp:_emscripten_glStencilFunc__wrapper
Q1f:_Datatype_nonNegativeInteger_get_TypeCode_m3527320375
zln:_GC_continue_reclaim
uci:_InvalidCastException__ctor_m2730571470
eBe:_X509ChainElementCollection_System_Collections_IEnumerable_GetEnumerator_m2559704689
$_o:__ZL86BigInteger_t925946153_CustomAttributesCacheGenerator_BigInteger_op_Implicit_m622924526P21CustomAttributesCache
Vlh:_PublicKey_get_Key_m126090744
uPe:_UriTypeConverter__ctor_m3743725527
Zma:__ZN17ArchiveFileSystem10AddStorageEP20ArchiveStorageReader
YCc:__ZN5physx19NpRigidBodyTemplateINS_18PxArticulationLinkEE27setMaxDepenetrationVelocityEf
CQc:__ZN5physx2Sc9ClothCore16setStretchConfigENS_22PxClothFabricPhaseType4EnumERKNS_20PxClothStretchConfigE
h9e:_DateTimeFormat_Format_m1582627805
V2c:__ZN5physx15PxsParticleData13onOriginShiftERKNS_6PxVec3E
nGm:__ZN6il2cpp2vm13MetadataCache37GetParameterDefaultValueDataFromIndexEi
bOl:_EqualityComparer_1_System_Collections_IEqualityComparer_GetHashCode_m1203798961_gshared
O2o:__ZL69Regex_t1803876613_CustomAttributesCacheGenerator_internalMatchTimeoutP21CustomAttributesCache
jzm:__ZN6il2cpp2vm5Class15GetEnumBaseTypeEP11Il2CppClass
Wci:_DirectoryNotFoundException__ctor_m3713860966
grm:__ZL25UnresolvedVirtualCall_142P12Il2CppObjectS0_iS0_iS0_S0_PK10MethodInfo
ZWg:_AsyncCausalityTracer_TraceOperationCreation_m3376453187
_Ia:__ZNK9Texture2D16GetNpotTexelSizeEv
cnl:_InternalEnumerator_1__ctor_m245588437_gshared
aDe:_X509Helper2_GetMonoCertificate_m856848072
lok:_List_1_Reverse_m2674140946_gshared
PAe:_XmlSchemaMinInclusiveFacet__ctor_m3075511773
fDn:__Z82RuntimeInvoker_Boolean_t3825574718_RuntimeObject_RuntimeObject_Int32U26_t455636984PFvvEPK10MethodInfoPvPS4_
IId:__ZN13dynamic_arrayItLj2EE6insertEPtPKtS3_
$nl:_InternalEnumerator_1__ctor_m1573273247_AdjustorThunk
_ve:_XmlSchemaGroupBase__ctor_m2369132284
Tjl:_InternalEnumerator_1_System_Collections_IEnumerator_Reset_m3063878094_AdjustorThunk
BRe:__ZN21InterfaceFuncInvoker1ItP12Il2CppObjectE6InvokeEjP11Il2CppClassS1_S1_
g5:__ZN9GfxDevice22GetDefaultVertexBufferE26GfxDefaultVertexBufferTypej
sil:_InternalEnumerator_1_get_Current_m1364852572_AdjustorThunk
ecf:_DateTimeResult_t824298922_marshal_pinvoke
mIp:_glGetActiveUniform__wrapper
wop:_sscanf
$mc:__ZN5physx3Cct17CapsuleControllerC2ERKNS_16PxControllerDescERNS_9PxPhysicsEPNS_7PxSceneE
lRa:__ZN14SafeBinaryRead21TransferSTLStyleArrayINSt3__26vectorI17BlendShapeChannelNS1_9allocatorIS3_EEEEEEvRT_17TransferMetaFlags
vtb:__Z17BeginSplashScreenv
Bvp:__ZNSt3__212basic_stringIwNS_11char_traitsIwEENS_9allocatorIwEEE6appendIPwEENS_9enable_ifIXaasr21__is_forward_iteratorIT_EE5valuesr38__libcpp_string_gets_noexcept_iteratorIS9_EE5valueERS5_E4typeES9_S9_
A3a:__ZN9ShaderLab16SerializedShader8TransferI19StreamedBinaryWriteILb0EEEEvRT_
F9g:_Datatype_char_Compare_m3519785558
L0e:_Stack_Pop_m3788808882
x1o:__ZL53DnsType_t1822475631_CustomAttributesCacheGenerator_MRP21CustomAttributesCache
GLj:_TraceListenerCollection_Remove_m3313713630
Rx:__ZN24AudioScriptBufferManagerD2Ev
Fem:_ArgumentCache__ctor_m1191928438
XMf:_Environment_get_IsMacOS_m3527377232
P9e:_DateTime_op_Equality_m1867073872
Gzl:_Predicate_1_Invoke_m3072524500_gshared
Tib:__Z18Transfer_BlittableI19StreamedBinaryWriteILb0EELb0EaEvRK29SerializationCommandArgumentsR31RuntimeSerializationCommandInfo
N4:__ZN18GfxFramebufferGLES18GetFramebufferNameERK20GfxRenderTargetSetup
M7g:_Compiler_GetMappingParticle_m3397526482
C8f:_NamespaceListNode_ConstructPos_m1907758040
VNm:__ZN6il2cpp2vm14TypeNameParser12ParseVersionERKNSt3__212basic_stringIcNS2_11char_traitsIcEENS2_9allocatorIcEEEERtSB_SB_SB_
gJk:_HttpWebResponse_get_Headers_m2263588500
$kj:___BinaryParser_ReadObjectWithMap_m2090167292
xV:__ZN13PlayableGraph27SchedulePlayableDestructionERK9HPlayable
QYg:_Task_get_IsCompleted_m669578966
kjc:__ZN5physx6shdfnd5ArrayINS_12PxDebugPointENS0_19ReflectionAllocatorIS2_EEE15growAndPushBackERKS2_
u2f:_Datatype_QName_CreateValueConverter_m2885644481
hSd:__Z13RegisterClassI20UnityConnectSettingsEvv
Klp:_UpdateManager_get_PlayerUpdater_m2087858960
VAh:_Array_InternalArray__ICollection_Add_TisNamespace_t1808381789_m25605740_gshared
uDi:_Enumerator_get_Current_m3465627948_AdjustorThunk
Pbb:__Z22scripting_array_length17ScriptingArrayPtr
Asg:_SecurityElement_GetAttribute_m4288291176
T8e:_DateTimeParse_MatchWord_m3902556592
bce:_XmlTextReaderImpl_get_DtdParserProxy_EntityStackLength_m2270583290
WBd:__ZN8Collider13AwakeFromLoadE17AwakeFromLoadMode
Urh:_Array_InternalArray__ICollection_Remove_TisMap_t2552390023_m1306601165_gshared
jIa:__ZN14SafeBinaryRead20TransferTypelessDataEjPvi
TFo:__ZL66StringFreezingAttribute_t2691375565_CustomAttributesCacheGeneratorP21CustomAttributesCache
iIe:_RegexCompiler_BltFar_m4006134061
K_d:_XmlElement_CloneNode_m2544333692
qRf:_CultureInfo_internal_get_cultures_m2614088836
oA:__ZN13dynamic_arrayI12SoundChannelLj4EE9push_backERKS0_
Ica:__Z19GetActiveColorSpacev
vij:_SoapTypeAttribute_get_IsInteropXmlElement_m2941294827
RRf:_CultureInfo_get_UserDefaultUICulture_m1870150362
CPj:_ChunkStream__ctor_m2666552004
oUe:_Char_System_IConvertible_ToUInt32_m1557991717_AdjustorThunk
fZi:_NumberFormatter_RoundBits_m1545255255
OL:__Z6StrCmpPKcS0_
JIo:__ZL124CustomAttributeExtensions_t3511575125_CustomAttributesCacheGenerator_CustomAttributeExtensions_GetCustomAttribute_m714006593P21CustomAttributesCache
e5a:__Z21CheckGpuProgramUsable20ShaderGpuProgramType
nXk:_Enumerator_Dispose_m3136759080_AdjustorThunk
Jym:__ZN30dense_hashtable_const_iteratorINSt3__24pairIK10KeyWrapperIPK22Il2CppGenericParameterEP11Il2CppClassEES6_N6il2cpp5utils11PointerHashIS4_EEN14dense_hash_mapIS6_S9_SE_NS6_14EqualsComparerINS0_8equal_toIS5_EEEENS0_9allocatorISA_EEE9SelectKeyESJ_SL_EppEv
kFc:__ZN5physx6shdfnd5ArrayIPvNS0_19ReflectionAllocatorINS_2Cm5BlockIhLj128EEEEEE4copyINS0_15InlineAllocatorILj256ES7_EEEEvRKNS1_IS2_T_EE
LPe:_Attribute_GetHashCode_m2653962112
MJi:_Dictionary_2_System_Collections_IDictionary_get_Keys_m4245826226_gshared
Ofg:_X509Chain_get_TrustAnchors_m3673637552
iGh:_XmlSchemaObjectEntry_t2510586510_marshal_pinvoke_back
UEb:__ZNK15SharedLightData24GetFinalShadowResolutionEv
f0n:__Z55RuntimeInvoker_Int32_t2071877448_TableRange_t2011406615PFvvEPK10MethodInfoPvPS4_
RIc:__ZN5physx6shdfnd8PoolBaseINS_16NpConnectorArrayENS0_19ReflectionAllocatorIS2_EEE15disposeElementsEv
NWa:__ZN12AspectRatios8TransferI18StreamedBinaryReadILb0EEEEvRT_
WId:__ZN14PhysicsManager19CreatePvdConnectionEv
sto:__ZL50U3CU3Ec_t2369272528_CustomAttributesCacheGeneratorP21CustomAttributesCache
Kjl:_InternalEnumerator_1_System_Collections_IEnumerator_get_Current_m1994409205_gshared
dWb:__ZN10GameObject14CopyPropertiesERS_
TQo:__ZL139StringBuilder_t1221177846_CustomAttributesCacheGenerator_StringBuilder_System_Runtime_Serialization_ISerializable_GetObjectData_m3547759871P21CustomAttributesCache
g9l:_X509CertificateEnumerator_MoveNext_m4060814498
gHf:_Array_InternalArray__IReadOnlyList_get_Item_TisKeyframe_t1449471340_m764890515_gshared
AFo:__ZL111DllImportAttribute_t3000813225_CustomAttributesCacheGenerator_DllImportAttribute_GetCustomAttribute_m1650962565P21CustomAttributesCache
DWn:__Z61RuntimeInvoker_Int32_t2071877448_IntPtr_t_Int32U26_t455636984PFvvEPK10MethodInfoPvPS4_
RNa:__ZNK13ScreenManager12IsFullScreenEv
app:_rand
_Fp:_emscripten_glFramebufferRenderbuffer__wrapper
gGe:_RegexParser__ctor_m2189499351
_Hc:__ZNK5physx12NpConstraint9getActorsERPNS_12PxRigidActorES3_
hJk:_HttpWebResponse_get_ResponseUri_m1762364973
Fje:_XmlSchemaElement_get_SchemaType_m2904856246
ixp:__ZNKSt3__28numpunctIwE16do_decimal_pointEv
hdn:__ZN6il2cpp5utils9PathUtils7CombineIcEENSt3__212basic_stringIT_NS3_11char_traitsIS5_EENS3_9allocatorIS5_EEEERKNS0_10StringViewIS5_EERKSA_
h5o:__ZL67SourceElementsCollection_t1050626936_CustomAttributesCacheGeneratorP21CustomAttributesCache
cyn:__Z77RuntimeInvoker_Void_t1841601450_RuntimeObject_Int32_t2071877448_RuntimeObjectPFvvEPK10MethodInfoPvPS4_
kof:_SerializationInfo_GetInt32_m4039439501
txd:__ZN5physx6shdfnd8PoolBaseIN17PxcPoolMallocData10PoolData16ENS0_19ReflectionAllocatorIS3_EEE15disposeElementsEv
f9n:__ZL88TIME_DYNAMIC_ZONE_INFORMATION_t2883369749_CustomAttributesCacheGenerator_TimeZoneKeyNameP21CustomAttributesCache
Gaf:_DateTimeFormat_InvalidFormatForLocal_m2277234597
tBd:__ZN9Rigidbody23UpdateInterpolationNodeEv
wrp:__ZNSt3__26locale2id5__getEv
BGg:_TermInfoReader_GetString_m148713352
TRm:__ZN15dense_hashtableINSt3__24pairIK10KeyWrapperINS1_IPK11Il2CppImageP11Il2CppClassEEEjEES9_17ReflectionMapHashIS8_EN14dense_hash_mapIS9_jSD_NS9_14EqualsComparerINS0_8equal_toIS8_EEEENS0_9allocatorISB_EEE9SelectKeyESI_SK_E12expand_arrayEjN21dense_hash_map_traits17integral_constantIbLb0EEE
yni:_SyncTextWriter_WriteLine_m1533988802
qHb:__Z22PrepareOptimizedPlanesPK5PlaneiPKN4math7_float4E
$H:__ZN11UnityEngine15CloudWebService17WebFileDownloaderINS0_20WebRequestRestClientENS0_23WebRequestRestHeaderMapEE10InitializeERKN4core12basic_stringIcNS5_20StringStorageDefaultIcEEEE
dU:__ZN17UniqueIDGenerator15CreatePureIndexEv
Cxp:__ZNSt3__27codecvtIDsc11__mbstate_tED0Ev
Kin:__ZN6il2cpp2vm3CCW9CreateCCWEP12Il2CppObject
Zr:__ZN11UnityEngine9Animation28GenericAnimationBindingCache15DidReloadDomainEv
hpg:_AppDomain_InternalGetProcessGuid_m1278588156
Q0g:_XPathScanner_get_Prefix_m2200197683
Fyk:_MonoMethod_MakeGenericMethod_m3628255919
tXd:_XmlDocument_SetBaseURI_m3104244186
qsj:_MonoTlsSettings_get_RemoteCertificateValidationCallback_m1443513448
Cgj:_MonoMethodMessage__ctor_m2634034578
K4l:_CrossAppDomainChannel_get_ChannelPriority_m3276663196
HWl:_ConfigurationElement_ResetModified_m933170487
T0c:__ZN5physx7NpScene8addActorERNS_7PxActorE
msg:_PublisherIdentityPermission__ctor_m1174888927
w5k:_ReadOnlyCollection_1_System_Collections_Generic_ICollectionU3CTU3E_Clear_m3105133800_gshared
CXa:__ZNSt3__26vectorIN15ResourceManager10DependencyE13stl_allocatorIS2_L18MemLabelIdentifier52ELi16EEE6assignINS_11__wrap_iterIPS2_EEEENS_9enable_ifIXaasr21__is_forward_iteratorIT_EE5valuesr16is_constructibleIS2_NS_15iterator_traitsISC_E9referenceEEE5valueEvE4typeESC_SC_
Qeh:_SocketAsyncResult_Complete_m3032125426
ktn:__Z116RuntimeInvoker_Boolean_t3825574718_RuntimeObject_Int32_t2071877448_RuntimeObject_Int32_t2071877448_Int32_t2071877448PFvvEPK10MethodInfoPvPS4_
hag:_RangeContentValidator_ExpectedParticles_m1251067262
idi:_BinaryReader_ReadBoolean_m2892291883
b9e:_DateTime_ToFileTime_m1401286571_AdjustorThunk
yym:__ZN15dense_hashtableINSt3__24pairIK10KeyWrapperIPK22Il2CppGenericParameterEP11Il2CppClassEES6_N6il2cpp5utils11PointerHashIS4_EEN14dense_hash_mapIS6_S9_SE_NS6_14EqualsComparerINS0_8equal_toIS5_EEEENS0_9allocatorISA_EEE9SelectKeyESJ_SL_E14squash_deletedEv
Ugf:_ObjectReader_CreateReadObjectInfo_m3655328261
svl:_InternalEnumerator_1_System_Collections_IEnumerator_get_Current_m1537547841_gshared
Q7e:_DateTime_System_Runtime_Serialization_ISerializable_GetObjectData_m3063838665_AdjustorThunk
xpd:__ZN21PxsParallelSolverTaskD0Ev
EUb:__ZZL23RegisterLightPropertiesR22GenericPropertyBindingEN18Wrapper_LightRange13SetFloatValueEPvf
k5d:_DelegatePInvokeWrapper_HashCodeOfStringDelegate_t3565421161
qej:_IllogicalCallContext_get_HasUserData_m2443359663
Iaa:__ZNSt3__26vectorI27ComputeShaderBuiltinSamplerNS_9allocatorIS1_EEE21__push_back_slow_pathIKS1_EEvRT_
gGn:__Z45RuntimeInvoker_SNIP_t4214504621_RuntimeObjectPFvvEPK10MethodInfoPvPS4_
Zwj:_TlsServerCertificate_validateCertificates_m1988583701
SCp:dynCall_viififi
vKj:_SourceElement_get_Name_m2862367819
XIj:_DiagnosticsConfiguration_get_IndentSize_m2823148493
rsg:_SecurityElement_get_Attributes_m3244705680
SDn:__Z66RuntimeInvoker_Int32_t2071877448_RuntimeObject_Int32U26_t455636984PFvvEPK10MethodInfoPvPS4_
sce:_XmlTextReaderImpl_DtdParserProxy_OnSystemId_m1596356439
Vuf:_HopToThreadPoolAwaitable_GetAwaiter_m2856229444_AdjustorThunk
vta:__ZNK9Transform18TransformDirectionERK8Vector3f
mtd:__ZN5physx21PxsBodyTransformVault6updateEv
YVo:__ZL106XmlSchemaAny_t3277730824_CustomAttributesCacheGenerator_XmlSchemaAny_t3277730824____Namespace_PropertyInfoP21CustomAttributesCache
Vna:__ZNK17ArchiveFileSystem12GetAssetGUIDERK13FileEntryData
X4a:__ZNSt3__26vectorIN9ShaderLab20SerializedSubProgram15MatrixParameterENS_9allocatorIS3_EEE21__push_back_slow_pathIKS3_EEvRT_
Ukf:_SerializationHeaderRecord_Read_m4211855730
nLp:_emscripten_glClearStencil__wrapper
o8g:_ContentValidator__ctor_m3711408011
ebc:__ZL29GeomMTDCallback_CapsuleConvexRN5physx6PxVec3ERfRKNS_10PxGeometryERKNS_11PxTransformES5_S8_
x4l:_ChannelInfo_get_ChannelData_m2401378984
k8e:_DateTime_IsAmbiguousDaylightSavingTime_m3462643651_AdjustorThunk
d8g:_Compiler_CompileLocalAttributes_m422996348
CPl:_EqualityComparer_1_get_Default_m1852501307_gshared
bek:_List_1_RemoveAll_m2176570696_gshared
xao:__ZL69RuntimeArray_CustomAttributesCacheGenerator_Array_Reverse_m3433347928P21CustomAttributesCache
YEm:__ZN15dense_hashtableINSt3__24pairIK10KeyWrapperIPK11Il2CppClassEPKcEES6_N6il2cpp5utils11PointerHashIS3_EEN14dense_hash_mapIS6_S9_SE_NS6_14EqualsComparerINS0_8equal_toIS5_EEEENS0_9allocatorISA_EEE9SelectKeyESJ_SL_E12resize_deltaEjj
Uzp:__ZNK10__cxxabiv120__si_class_type_info27has_unambiguous_public_baseEPNS_19__dynamic_cast_infoEPvi
tWf:_NumberFormatInfo_get_PercentNegativePattern_m1162448153
Ino:__ZL56SyncHashtable_t1343674558_CustomAttributesCacheGeneratorP21CustomAttributesCache
PDp:_glTexSubImage3D__wrapper
f5:__Z30AddDefaultStreamsToMeshBuffersR9GfxDeviceR11MeshBuffersj17ShaderChannelMaskS3_
YL:__ZL16GetInterfaceImpl18UnityInterfaceGUID
OWf:_RegionInfo_construct_internal_region_from_name_m3316088619
Czm:__ZN6il2cpp2vmL17SetupFieldOffsetsENS0_15FieldLayoutKindEP11Il2CppClassjRKNSt3__26vectorIjNS4_9allocatorIjEEEE
Ath:_Array_QSortArrange_TisXmlSchemaObjectEntry_t2510586510_m661053438_gshared
I3h:_UInt16_Parse_m3560204090
Xgn:__ZN6il2cpp6icalls8mscorlib6System15MonoCustomAttrs27GetCustomAttributesInternalEP12Il2CppObjectP20Il2CppReflectionTypeb
OWe:_ReadOnlyArrayList_ToArray_m4108054600
PDk:_ResourceReader_GetValueForNameIndex_m711285602
M2:__Z24PluginsSetGraphicsDevicePvi18GfxDeviceEventType
zK:__GLOBAL__sub_I_runtime_math_random_0_cpp
Rwn:__Z88RuntimeInvoker_Boolean_t3825574718_TransitionTime_t3441274853_TransitionTime_t3441274853PFvvEPK10MethodInfoPvPS4_
G7k:__ZN21InterfaceFuncInvoker1IyiE6InvokeEjP11Il2CppClassP12Il2CppObjecti
QRj:_Cookie_get_Comment_m2183197327
u9b:__ZNK5physx3Cct13BoxController11getPositionEv
rjh:_WebProxy_GetProxyAuto_m229067655
iTj:_CookieContainer__cctor_m1826135890
Gtb:__ZN14PreloadManager35WaitForAllAsyncOperationsToCompleteEv
jWc:__ZN5physx14NpRigidDynamicC2ERKNS_11PxTransformE
k7k:_ReadOnlyCollection_1_System_Collections_Generic_ICollectionU3CTU3E_Clear_m3326029860_gshared
Tec:__Z27sweepCCTBox_HeightFieldGeomRKN5physx10PxGeometryERKNS_11PxTransformERKNS_2Gu3BoxERKNS_6PxVec3EfRNS_10PxSweepHitENS_7PxFlagsINS_9PxHitFlag4EnumEtEEf
GN:__ZNK18ScriptingObjectPtr17ToScriptingStringEv
A3j:_AttributeEntry_t168441916_marshal_pinvoke_back
yip:_Vector2_GetHashCode_m801363174
qv:__ZL31InitializeAudioScriptingClassesv
Sol:_InternalEnumerator_1_get_Current_m3939996428_AdjustorThunk
Dyb:__Z14SortGUIByDepthP10GUIElementS0_
nxi:_Enumerator_System_Collections_IDictionaryEnumerator_get_Key_m4126695840_AdjustorThunk
Qcf:_Decimal__ctor_m407612739_AdjustorThunk
tL:__ZN13RuntimeStaticI13dynamic_arrayIPK31TransferFunctionScriptingTraitsLj4EELb0EE16StaticInitializeEPv
uej:_LogicalCallContext__ctor_m3173272863
fxm:_Physics_Raycast_m1646062349
z4n:__Z58RuntimeInvoker_AttributeEntry_t168441916_Int32_t2071877448PFvvEPK10MethodInfoPvPS4_
Oac:__ZN5physx3Cct9SweepTest18updateTouchedGeomsEPKNS0_30InternalCBData_FindTouchedGeomERKNS0_13UserObstaclesERKNS_17PxExtendedBounds3ERKNS_19PxControllerFiltersERKNS_6PxVec3E
bwm:_CustomEventData_AddChar_m2955651223
Spi:_MonoCustomAttrs__cctor_m2608447972
RPh:_Ucs4Encoding_get_WebName_m3720752748
Lui:_ConcurrentDictionary_2_System_Collections_Generic_IDictionaryU3CTKeyU2CTValueU3E_Add_m348547761_gshared
uGd:_PxCloseExtensions
y8a:__ZNK20LocalFileSystemPosix21GetAvailableDiskSpaceEPKcRy
fL:__ZNSt3__26__treeIiNS_4lessIiEENS_9allocatorIiEEE7destroyEPNS_11__tree_nodeIiPvEE
pEj:_PropertyDescriptorCollection_InternalSort_m736852018
lto:__ZL50U3CU3Ec_t4201340503_CustomAttributesCacheGeneratorP21CustomAttributesCache
qmh:_X509Certificate2__ctor_m1095336775
DIe:_RegexCompiler_GenerateOneCode_m3401400535
zQn:__Z89RuntimeInvoker_XmlSchemaContentType_t2874429441_RuntimeObject_RuntimeObject_RuntimeObjectPFvvEPK10MethodInfoPvPS4_
Azk:_MonoProperty_GetGetMethod_m1100580870
Ref:_Delegate_t3022476291_marshal_pinvoke
Gpi:_MonoCustomAttrs_RetrieveAttributeUsageNoCache_m2407587183
cfn:__ZN15dense_hashtableINSt3__24pairIK10KeyWrapperIPK19Il2CppGenericMethodEP10MethodInfoEES6_N6il2cpp8metadata23Il2CppGenericMethodHashEN14dense_hash_mapIS6_S9_SD_NS6_14EqualsComparerINSC_26Il2CppGenericMethodCompareEEENS0_9allocatorISA_EEE9SelectKeyESH_SJ_E13set_empty_keyERKSA_
O6a:__Z19scripting_array_new17ScriptingClassPtrjj
cA:__ZN11SoundHandle13CreateChannelEb
IIn:__Z90RuntimeInvoker_Void_t1841601450_IntPtr_t_Int32_t2071877448_RuntimeObject_Int32_t2071877448PFvvEPK10MethodInfoPvPS4_
AKa:__ZN14SafeBinaryRead21TransferSTLStyleArrayI13dynamic_arrayI12LightmapDataLj4EEEEvRT_17TransferMetaFlags
Vpg:_ArgumentException__ctor_m3312963299
Z1a:__ZNSt3__26vectorIN9ShaderLab20SerializedSubProgram16TextureParameterENS_9allocatorIS3_EEE6assignIPS3_EENS_9enable_ifIXaasr21__is_forward_iteratorIT_EE5valuesr16is_constructibleIS3_NS_15iterator_traitsISA_E9referenceEEE5valueEvE4typeESA_SA_
CDm:__ZN13Il2CppHashMapIN6il2cpp5utils13dynamic_arrayIPK10Il2CppTypeLj4EEEPFvvENS0_8metadata19Il2CppSignatureHashENS9_22Il2CppSignatureCompareENSt3__29allocatorINSC_4pairIK10KeyWrapperIS6_ES8_EEEEEC2EjRKSA_RKSB_
gSi:_SHA256Managed_sigma_1_m2498954277
tUm:__ZN15dense_hashtableINSt3__24pairIK10KeyWrapperIPK22Il2CppGenericParameterEPK24MonoGenericParameterInfoEES6_N6il2cpp5utils11PointerHashIS4_EEN14dense_hash_mapIS6_SA_SF_NS6_14EqualsComparerINS0_8equal_toIS5_EEEENS0_9allocatorISB_EEE9SelectKeyESK_SM_E15set_deleted_keyERKSB_
Ztm:__ZL25UnresolvedVirtualCall_295P12Il2CppObjectiPK10MethodInfo
OJh:_XsdBuilder__ctor_m3775111562
LOb:__ZN6prcoreL11inner_clearILj2EEEvPhjjj
tDi:_Enumerator_MoveNext_m820976778_AdjustorThunk
Ttm:__ZL25UnresolvedVirtualCall_289P12Il2CppObjectPK10MethodInfo
FPe:_Attribute_GetCustomAttributes_m3188023331
w9j:_Enumerator_System_Collections_IEnumerator_get_Current_m2853089017_AdjustorThunk
oQc:__ZNK5physx2Sc9ClothCore20getNbCollisionPlanesEv
bh:_emscripten_exit_fullscreen
cgd:__ZNK5physx23PxsBroadPhaseContextSap7getTypeEv
svd:__ZNK5physx13GuMeshFactory17getNbHeightFieldsEv
LPo:__ZL90UTF32Encoding_t549530865_CustomAttributesCacheGenerator_UTF32Encoding_GetBytes_m2290150495P21CustomAttributesCache
a2l:_GCHandle_Free_m1639542352_AdjustorThunk
FVj:_FtpDataStream_BeginRead_m3442528438
Wvj:_Context_set_ClientRandom_m631392719
rJo:__ZL61ResourceAttributes_t2389678029_CustomAttributesCacheGeneratorP21CustomAttributesCache
abk:_Enumerator_System_Collections_IEnumerator_Reset_m2023954240_AdjustorThunk
R5g:_BaseProcessor_SendValidationEvent_m4242715233
R7b:__Z29Transfer_Blittable_ArrayFieldI8JSONRead11QuaternionfEvRT_R9ArrayInfoRK23StaticTransferFieldInfo
TCo:__ZL65SoapParameterAttribute_t2780084514_CustomAttributesCacheGeneratorP21CustomAttributesCache
Fad:__ZNK5physx2Gu12OBBAABBTestsILb1EEclENS_6shdfnd3aos5Vec3VES5_
Iyl:_Nullable_1_get_HasValue_m1182428964_AdjustorThunk
a9o:__ZL75Object_t1021602117_CustomAttributesCacheGenerator_Object_Destroy_m682534386P21CustomAttributesCache
UVn:__Z104RuntimeInvoker_Boolean_t3825574718_RuntimeObject_Int32_t2071877448_Int32_t2071877448_Int32U26_t455636984PFvvEPK10MethodInfoPvPS4_
GTb:__ZNK24RendererAnimationBinding15GenerateBindingERKN4core12basic_stringIcNS0_20StringStorageDefaultIcEEEEbRN11UnityEngine9Animation14GenericBindingE
$xa:__Z15GetFlareManagerv
fPb:__ZN15ApplicationInfo24GetApplicationIdentifierEv
lhp:_HitInfo_op_Implicit_m3551745410
eSj:_CookieException__ctor_m39051905
s_e:_Queue_Clone_m1124962851
QDf:_Array_InternalArray__get_Item_TisKeyValuePair_2_t1483742713_m2122760261_gshared
vjc:__ZN26IntersectAnyVsMeshCallbackILi0ELb0EED2Ev
Hmp:___toread
Orb:__ZNSt3__26vectorI10vector_mapIiiNS_4lessIiEE13stl_allocatorINS_4pairIiiEEL18MemLabelIdentifier38ELi16EEES4_IS9_LS7_38ELi16EEE26__swap_out_circular_bufferERNS_14__split_bufferIS9_RSA_EE
wzo:__ZL100ObjectManager_t2645893724_CustomAttributesCacheGenerator_ObjectManager_AddOnDeserialized_m2116830580P21CustomAttributesCache
bUf:_DateTimeFormatInfoScanner_AddDateWords_m1778969177
kTn:__Z82RuntimeInvoker_RuntimeObject_Int32_t2071877448_Int16_t4041245914_Int32_t2071877448PFvvEPK10MethodInfoPvPS4_
XSm:__ZN15dense_hashtableINSt3__24pairIK10KeyWrapperINS1_IPK9EventInfoP11Il2CppClassEEEjEES9_17ReflectionMapHashIS8_EN14dense_hash_mapIS9_jSD_NS9_14EqualsComparerINS0_8equal_toIS8_EEEENS0_9allocatorISB_EEE9SelectKeyESI_SK_E12maybe_shrinkEv
Vvm:_UnityAnalyticsHandler_InternalCreate_m427483392
Yba:__ZN4gles20DestroyRenderSurfaceEP7ApiGLESP17RenderSurfaceGLES
cxi:_Enumerator_MoveNext_m1671207978_gshared
Lif:_ObjectReader_NextRectangleMap_m2179789702
v9j:_Enumerator_System_Collections_IEnumerator_get_Current_m2853089017_gshared
ken:__ZN6il2cpp2os6Thread4JoinEj
Xxp:__ZNSt3__26locale5__imp7installINS_7num_putIcNS_19ostreambuf_iteratorIcNS_11char_traitsIcEEEEEEEEvPT_
mPm:__ZNK15dense_hashtableINSt3__24pairIK10KeyWrapperINS1_IPK14Il2CppAssemblyP11Il2CppClassEEEjEES9_17ReflectionMapHashIS8_EN14dense_hash_mapIS9_jSD_NS9_14EqualsComparerINS0_8equal_toIS8_EEEENS0_9allocatorISB_EEE9SelectKeyESI_SK_E10test_emptyEj
$dc:__ZN12_GLOBAL__N_141SphereMeshContactGenerationCallback_ScaleD0Ev
_kc:__ZN5physx3Cct17CapsuleController16setContactOffsetEf
y8k:_ReadOnlyCollection_1_System_Collections_IEnumerable_GetEnumerator_m1025011433_gshared
EWh:_Timer_Change_m1589925050
hle:_SchemaElementDecl_GetAttDef_m3692193106
uZo:__ZL126XmlSchemaSimpleTypeUnion_t91327365_CustomAttributesCacheGenerator_XmlSchemaSimpleTypeUnion_t91327365____BaseTypes_PropertyInfoP21CustomAttributesCache
lja:__ZN17PersistentManager40GlobalToLocalSerializedFileIndexInternalERK26SerializedObjectIdentifier
aF:__ZN11UnityEngine15CloudWebService17SessionEventQueue14ParseEventDataERKN4core12basic_stringIcNS2_20StringStorageDefaultIcEEEE
blj:___BinaryParser_ReadMethodObject_m2155521955
KIe:_RegexCompiler_ReadyPushStack_m3578476918
xQ:__ZNK14dense_hash_mapIPKcPK4RTTIN11TypeManager23ConstCharPtrHashFunctorENS5_19ConstCharPtrEqualToE13stl_allocatorINSt3__24pairIKS1_S4_EEL18MemLabelIdentifier7ELi16EEE5beginEv
rap:__ZL47Rect_t3681755626_CustomAttributesCacheGeneratorP21CustomAttributesCache
AHc:__ZN12GeomQueryAnyIN5physx10PxSweepHitEE7geomHitERKNS0_2Sq17SceneQueryManagerERKNS0_15MultiQueryInputERKNS3_9ShapeDataERKNS0_10PxGeometryERKNS0_11PxTransformENS0_7PxFlagsINS0_9PxHitFlag4EnumEtEEjPS1_fbPNS0_9PxBounds3E
Y7o:__ZL90CullingGroup_t1091689465_CustomAttributesCacheGenerator_CullingGroup_SendEvents_m386073533P21CustomAttributesCache
d3:__ZN13TranslateGLES4InitERK12GraphicsCaps16GfxDeviceLevelGL
Sob:__Z29Transfer_Blittable_ArrayFieldI18StreamedBinaryReadILb0EE10ColorRGBAfEvRT_R9ArrayInfoRK23StaticTransferFieldInfo
Rre:_XmlAtomicValue_get_ValueAsDouble_m2199427473
jdc:__ZN43CapsuleHeightfieldContactGenerationCallback7onEventEjPj
PCd:__ZThn4_N12MemoryStream4readEPvj
qof:_SerializationInfoEnumerator_Reset_m2206466680
Tyf:_Array_qsort_TisRegexOptions_t2418259727_m4207644620_gshared
ENk:_ServerCertValidationCallback__ctor_m230802396
TVk:_Enumerator__ctor_m677001007_gshared
YFp:_emscripten_glGetShaderPrecisionFormat__wrapper
PMd:__Z32CustomEventData_CUSTOM_AddUInt32P12Il2CppObjectP12Il2CppStringj
N1i:_Assembly_GetType_m2805031155
Cpn:__ZN6il2cpp5utils9Exception26FormatInvalidCastExceptionEPK11Il2CppClassS4_
PRb:__ZN13ProduceHelperI10TagManagerLb0EE7ProduceE18MemLabelIdentifier18ObjectCreationMode
SZc:__ZN5physx6shdfnd8internal8HashBaseIPNS_13NpVolumeCacheES4_NS0_4HashIS4_EENS1_11HashSetBaseIS4_S6_NS0_9AllocatorELb0EE6GetKeyES8_Lb0EE15reserveInternalEj
Cue:_XmlDateTimeConverter_ToString_m4240374186
mZm:__ZThn8_N46ManagedErrorInfo_t914761495_ComCallableWrapper6AddRefEv
jqn:__ZN6il2cpp2os6Memory12AlignedAllocEjj
CKc:__ZN5physx6shdfnd8internal8HashBaseIPKNS_6PxBaseES5_NS0_4HashIS5_EENS1_11HashSetBaseIS5_S7_NS0_9AllocatorELb0EE6GetKeyES9_Lb0EE6createERKS5_Rb
DNj:_GZipStream__ctor_m3019216668
Jed:__ZN5physx28solveFrictionCoulombPreBlockEPKNS_23PxcSolverConstraintDescEjRNS_16PxcSolverContextE
rFl:_Task_1_TrySetResult_m1398503260_gshared
BMl:_Dictionary_2_get_Item_m624719168_gshared
cjn:__ZN6il2cpp8metadataL7CompareEPK10Il2CppTypeS3_
ohf:_ObjectNull_Dump_m2892613415
Keb:__Z18Transfer_BlittableI17RemapPPtrTransferLb0E11ColorRGBA32EvRK29SerializationCommandArgumentsR31RuntimeSerializationCommandInfo
Nrk:_TypeBuilder_get_is_created_m736553860
Ddp:__ZL52Rigidbody_t4233889191_CustomAttributesCacheGeneratorP21CustomAttributesCache
Qrj:_RSAManaged__ctor_m1370411656
dVi:_X509CertificateImplApple_GetSubjectName_m3097245185
gnb:__Z18Transfer_BlittableI18StreamedBinaryReadILb0EELb1E10ColorRGBAfEvRK29SerializationCommandArgumentsR31RuntimeSerializationCommandInfo
lSe:_Byte_TryParse_m3806590295
Him:_PropertyName_op_Equality_m112228798
kZb:__ZL27GetComponentsImplementationILb0ELi0EEbR10GameObjectbRK17CompareParametersRK39GetComponentsImplementation_ReturnValue
TVo:__ZL122XmlSchemaAnnotation_t2400301303_CustomAttributesCacheGenerator_XmlSchemaAnnotation_t2400301303____IdAttribute_PropertyInfoP21CustomAttributesCache
Yih:_WebHeaderCollection_GetObjectData_m3940120977
uqb:__ZN9Scripting36IsSystemCollectionsGenericDictionaryE17ScriptingClassPtr
KKj:_Switch__cctor_m1094090392
Yhm:_PlayableHandle_op_Equality_m2854547329
kGc:__ZN5physx12NpConstraint12actorDeletedEPNS_12PxRigidActorE
otp:__ZNKSt3__220__time_get_c_storageIcE3__xEv
BXn:__Z32RuntimeInvoker_Scene_t1684909666PFvvEPK10MethodInfoPvPS4_
yAh:_Array_InternalArray__ICollection_Add_TisInternalPrimitiveTypeE_t3020811655_m2425484145_gshared
cUj:_EmptyWebProxy__ctor_m2917991161
ER:__ZL16ReadTypeTreeImplILb0EEbR8TypeTreeRK16TypeTreeIteratorRPKhS6_i
NSe:_Byte_System_IConvertible_ToInt32_m1032609763_AdjustorThunk
Ael:_SimpleCollator_CompareFlagPair_m1777501184
Iwo:__ZL65CryptographicException_t3349726436_CustomAttributesCacheGeneratorP21CustomAttributesCache
D$o:__ZL115ConfigurationSection_t2600766927_CustomAttributesCacheGenerator_ConfigurationSection_DeserializeSection_m1139223106P21CustomAttributesCache
Woc:__ZN5physx2Sc8ShapeSim18reinsertBroadPhaseEv
KCa:__ZNK22BuiltinResourceManager21GetResourceInstanceIDEPKN5Unity4TypeERKN4core12basic_stringIcNS4_20StringStorageDefaultIcEEEE
qnf:_SafeSerializationManager_System_Runtime_Serialization_ISerializable_GetObjectData_m3011023642
_te:_XmlBaseConverter_DecimalToInt32_m1869631194
gxn:__Z144RuntimeInvoker_Int32_t2071877448_RuntimeObject_RuntimeObject_RuntimeObject_RuntimeObject_RuntimeObject_RuntimeObject_RuntimeObject_RuntimeObjectPFvvEPK10MethodInfoPvPS4_
BEc:__ZN5physx2Sc5Scene11removeShapeERNS0_8ShapeSimEb
Zrn:__ZN6il2cpp6icalls8mscorlib6System7Runtime8Remoting8Contexts7Context15RegisterContextEP12Il2CppObject
IAb:__ZN28LightProbeProxyVolumeContext8CopyFromERKS_
dLm:__Z60ves_icall_System_Threading_ThreadPool_NotifyWorkItemCompletev
Zra:__ZN23TransformChangeDispatch32QueueTransformChangeIfHasChangedER18TransformHierarchy
cTi:_SymmetricAlgorithm_get_FeedbackSize_m544664262
iDi:_KeyCollection_System_Collections_Generic_ICollectionU3CTKeyU3E_Clear_m2171877459_gshared
dXh:_WaitHandle_WaitAny_internal_m2562309934
ufe:_XmlValidatingReader_get_NameTable_m1697762873
Zba:__ZN7ApiGLES18DeleteRenderbufferERj
Gsc:__ZN5physx6shdfnd5ArrayIPvNS0_15InlineAllocatorILj256ENS0_19ReflectionAllocatorINS_16NpConnectorArrayEEEEEE15growAndPushBackERKS2_
Daa:__ZL23ProgramUniformMatrix4fvPK7ApiGLESjiihPKv
jca:__ZN7ApiGLES13CreateTextureEjj14GraphicsFormatiiiii
iUb:__ZN13ProduceHelperI11LightProbesLb0EE7ProduceE18MemLabelIdentifier18ObjectCreationMode
y3o:__ZL68U3CU3Ec__DisplayClass241_0_t143720807_CustomAttributesCacheGeneratorP21CustomAttributesCache
d6n:__Z32RuntimeInvoker_bucket_t976591655PFvvEPK10MethodInfoPvPS4_
qid:__ZN5physx14SingleAABBTaskC2Ev
H1a:__ZN9ShaderLab20SerializedSubProgram15MatrixParameter8TransferI14SafeBinaryReadEEvRT_
Bao:__ZL66RuntimeArray_CustomAttributesCacheGenerator_Array_Sort_m3645766612P21CustomAttributesCache
Jzn:__Z51RuntimeInvoker_Int32_t2071877448_Single_t2076509932PFvvEPK10MethodInfoPvPS4_
bQe:_BitConverter_AmILittleEndian_m2716658112
mZb:__ZL27GetComponentsImplementationILb0ELi1EEbR10GameObjectbRK17CompareParametersRK39GetComponentsImplementation_ReturnValue
HAg:_StrongNameMembershipCondition_GetHashCode_m107097991
rNb:__Z29StdTemplateConversionFunctionIatEbPvR14SafeBinaryRead
j2:__ZN13RenderTexture7ReleaseEv
zAk:_Pointer_System_Runtime_Serialization_ISerializable_GetObjectData_m4103721774
o5b:__Z18Transfer_BlittableI8JSONReadLb1EN4math12int3_storageEEvRK29SerializationCommandArgumentsR31RuntimeSerializationCommandInfo
uSa:__ZN10MeshFilter23VirtualRedirectTransferER14SafeBinaryRead
YGf:_Array_InternalArray__IReadOnlyList_get_Item_TisXmlTypeCode_t58293802_m2731152689_gshared
vfm:_UnityAction_BeginInvoke_m1146054769
NLh:_XsdBuilder_BuildAttributeGroup_Name_m1899143316
T2e:_Convert_ToByte_m1201588964
ESa:__ZN12MeshRenderer17MainThreadCleanupEv
VUf:_GregorianCalendar_ToFourDigitYear_m1664347424
nzm:__ZN6il2cpp2vmL10InitLockedEP11Il2CppClassRKNS_2os12FastAutoLockE
Hxo:__ZL52RIPEMD160_t1732039966_CustomAttributesCacheGeneratorP21CustomAttributesCache
ufa:__ZN22CreateGpuProgramOutput12CreateParamsEv
Xag:_SchemaCollectionCompiler_CompileSubstitutionGroup_m1959774783
sNj:_DeflateStreamNative__ctor_m1760870959
_of:_RuntimeMethodHandle_GetHashCode_m2682236001_AdjustorThunk
bDc:__ZNK5physx18NpArticulationLink11getChildrenEPPNS_18PxArticulationLinkEj
i4l:_ActivationServices_AllocateUninitializedClassInstance_m3410698501
WNm:__ZNSt3__26vectorIiNS_9allocatorIiEEE21__push_back_slow_pathIiEEvOT_
tsg:_PublisherIdentityPermission_Cast_m2553252527
V2:__ZNK14GfxContextGLES13GetDefaultFBOEv
cLk:_IPAddressCollection_Contains_m273604859
Nhh:_WebConnectionStream_get_ReadTimeout_m2163859558
xjn:_GC_promote_black_lists
sug:_SiteIdentityPermission_Intersect_m1786553301
Hrh:_Array_InternalArray__ICollection_Remove_TisSByte_t454417549_m2474211570_gshared
JMi:_HashAlgorithmName_t1682985260_marshal_pinvoke_back
Akk:_List_1_RemoveAll_m4219497792_gshared
bGf:_Array_InternalArray__IReadOnlyList_get_Item_TisInternalCodePageDataItem_t1742109366_m2517112882_gshared
Lqd:__Z15atomIntegrationfPKPN5physx11PxsBodyCoreEPKPNS_12PxsRigidBodyEjPKNS_2Cm13SpatialVectorEPNS_13PxcSolverBodyEPNS_17PxcSolverBodyDataEPS9_RjSH_
ZIi:_Dictionary_2_System_Collections_IDictionary_Remove_m4168212840_gshared
M0d:_XmlName_get_HashCode_m2787227311
eMm:_il2cpp_class_is_enum
$oo:__ZL59NativeOverlapped_t2890300033_CustomAttributesCacheGeneratorP21CustomAttributesCache
vYm:__ZN6il2cpp2vm6Thread49CheckCurrentThreadForInterruptAndThrowIfNecessaryEv
fva:__ZNSt3__23mapIN9ShaderLab16FastPropertyNameEN18UnityPropertySheet11UnityTexEnvENS_4lessIS2_EENS_9allocatorINS_4pairIKS2_S4_EEEEEixERS9_
nba:__ZNK13TranslateGLES25GetTextureTargetDimensionEj
oal:_Locale_GetText_m1954433032
Iwc:__ZN5physx11NpAggregate22removeActorAndReinsertERNS_7PxActorEb
STk:_ObjectEqualityComparer_1__ctor_m3376379772_gshared
lyd:__ZZL19ExtractHullPolygonsRjRN5physx2Gu9ContainerERKNS0_17ConvexHullBuilderEPS2_S3_EN5Local9FloodFillES3_PKNS0_11AdjTriangleEjPb
S6i:_FieldBuilder_get_FieldType_m2267463269
Yrg:_SimpleEnumerator_Clone_m3032847657
xpj:_ModulusRing_Multiply_m3113924743
i4o:__ZL112SocketAsyncEventArgs_t2815111766_CustomAttributesCacheGenerator_SocketAsyncEventArgs_set_SocketError_m3211520547P21CustomAttributesCache
xN:__ZN9Scripting12LogExceptionE21ScriptingExceptionPtriPKcb
i$g:_XPathNodeRef_t2092605142_marshal_pinvoke_back
Y9f:_Preprocessor_GetParentSchema_m551371976
dj:_emscripten_glVertexAttrib4f
C2k:_ReadOnlyCollection_1_System_Collections_IEnumerable_GetEnumerator_m531171980_gshared
wKd:__ZL28RegisterModuleICalls_Physicsv
GOk:_List_1__ctor_m4178800742_gshared
mLe:_RegexRunner_IsBoundary_m1473648497
SRa:__ZN10Matrix4x4f8TransferI19StreamedBinaryWriteILb0EEEEvRT_
B_l:_PropertyInformationCollection_GetEnumerator_m2342156100
nXd:_XmlDocument_CloneNode_m3521203409
jye:_XmlSchemaComplexType_SetAttributeWildcard_m809646719
To:FUNCTION_TABLE_vf
UBb:__ZN11HaloManager21ReleaseGeometryJobMemEP25DynamicVBOGeometryJobData
qzc:__ZN5physx14NpArticulation26setMaxProjectionIterationsEj
qmc:__ZN5physx3Cct15ObstacleContext14removeObstacleEj
K5i:_ConstructorOnTypeBuilderInst_get_DeclaringType_m1917633829
vRl:_GenericEqualityComparer_1_GetHashCode_m3450627064_gshared
JRg:_ContextCallback__ctor_m2431076997
gXh:_WaitHandle__ctor_m1256161634
p1h:_Type_GetMethod_m1930231379
x0:__ZN9GfxDevice18SetGlobalDepthBiasEff
W7l:_TlsStream_Write_m3425460533
Nip:_Vector3_get_normalized_m1057036856
nFo:__ZL70TypeLibImportClassAttribute_t2390314680_CustomAttributesCacheGeneratorP21CustomAttributesCache
iEe:_Group_get_Success_m2001463544
J0f:_DatatypeImplementation_Compare_m4228143089
vQk:_List_1_TrimExcess_m1899723436_gshared
rj:_emscripten_glGetPointerv
zHe:_RegexCharClass_AddDigit_m980847912
wWc:__ZNK5physx15NpActorTemplateINS_14PxRigidDynamicEE13getActorFlagsEv
cgp:_Ray_get_origin_m1676163607
u_d:_XmlDownloadManager_GetNonFileStreamAsync_m3329548055
xqm:__ZL25UnresolvedVirtualCall_105P12Il2CppObjectS0_S0_S0_S0_PK10MethodInfo
fwi:_Comparer_1__ctor_m743418999_gshared
mtb:__Z26ApplyMaterialPassWithCacheRK18SharedMaterialDataR17ShaderPassContextP6ShaderPN9ShaderLab4PassEibPKNS6_10GrabPassesEPNS6_11SubProgramsEPK22DeviceRenderStateBlock
$Ed:__ZN5physx7profile8ZoneImplINS_28PxProfileNameProviderForwardEE17handleBufferFlushEPKhj
e9f:_Parser_LoadAttributeNode_m3731814113
xcj:_Lease_set_SponsorshipTimeout_m1892549099
jqm:__ZL24UnresolvedVirtualCall_91P12Il2CppObjectS0_S0_iS0_S0_S0_PK10MethodInfo
Amk:_List_1_TrimExcess_m315124657_gshared
htp:__ZNKSt3__28time_getIcNS_19istreambuf_iteratorIcNS_11char_traitsIcEEEEE11do_get_yearES4_S4_RNS_8ios_baseERjP2tm
Fwc:__ZN5physx2Sc5ActorC2ERNS0_16InteractionSceneEhNS0_14IslandNodeInfo4TypeE
R8e:_DateTimeParse_GetTimeZoneName_m1220782145
hpn:__ZNSt3__26__treeINS_12__value_typeINS_12basic_stringIcNS_11char_traitsIcEENS_9allocatorIcEEEEPFvvEEENS_19__map_value_compareIS7_SA_NS_4lessIS7_EELb1EEENS5_ISA_EEE16__construct_nodeIJRKNS_21piecewise_construct_tENS_5tupleIJOS7_EEENSL_IJEEEEEENS_10unique_ptrINS_11__tree_nodeISA_PvEENS_22__tree_node_destructorINS5_ISS_EEEEEEDpOT_
rnh:_X509Certificate2ImplMono_Equals_m817162225
GJj:_EventLog_Dispose_m2616880507
uwm:_CustomEventData_InternalDestroy_m3784703600
POi:_RandomNumberGenerator_Create_m2275686895
E3m:__ZN30dense_hashtable_const_iteratorINSt3__24pairIK10KeyWrapperIP14Il2CppIUnknownEjEES5_N6il2cpp5utils11PointerHashIS3_EEN14dense_hash_mapIS5_jSB_NS5_14EqualsComparerINS0_8equal_toIS4_EEEENS0_9allocatorIS7_EEE9SelectKeyESG_SI_EppEv
$Ni:_HMACSHA512_get_BlockSize_m2385642379
nRc:__ZN5physx15NpActorTemplateINS_7PxClothEED2Ev
H8i:_ILGenerator_target_len_m1964456727
b8n:__Z37RuntimeInvoker_Enumerator_t4185700713PFvvEPK10MethodInfoPvPS4_
l7e:_DateTime_Add_m2721963937
SPc:__ZN5physx2Sc9ClothCore16setRestPositionsEPKNS_6PxVec4E
wAp:__ZNSt8bad_castC2Ev
Qza:__Z27ConvertSubMeshesToTrianglesR13dynamic_arrayI7SubMeshLj4EERS_ItLj2EE
FFk:_FtpWebRequest_get_ReadWriteTimeout_m338224764
_Nb:__ZL13MotionHandleriPK27EmscriptenDeviceMotionEventPv
Rmh:_X509Certificate2Collection__ctor_m819526826
LQi:_RSACryptoServiceProvider_GetHashNameFromOID_m1617433214
b1h:_Type_MakeArrayType_m63838788
wng:___DTString_MatchLongestWords_m670456305_AdjustorThunk
Yu:__ZN12AudioManager5ResetEv
pqj:_ARC4Managed_Finalize_m4206406046
yqj:_KeyBuilder_Key_m3814433741
Wpg:_ArgumentException__ctor_m158205422
Gsg:_SecurityElement_Unescape_m1089723634
Ark:_SymbolType_GetElementType_m2113158391
o5n:__Z60RuntimeInvoker_XPathResultType_t1521569578_Int32_t2071877448PFvvEPK10MethodInfoPvPS4_
lzg:_FirstMatchCodeGroup_CopyNoChildren_m1764349030
m9:__ZN6prcoreL17RemapGenericFloatI17TexFormatRGBAHalf15TexFormatRGHalfEEvPKNS_9InnerInfoE
krh:_Array_InternalArray__ICollection_Remove_TisHeaderVariantInfo_t2058796272_m2267970270_gshared
$mf:_OptionalFieldAttribute__ctor_m1631641277
gUm:__ZNK15dense_hashtableINSt3__24pairIK10KeyWrapperIPK14Il2CppAssemblyEPK22Il2CppMonoAssemblyNameEES6_N6il2cpp5utils11PointerHashIS4_EEN14dense_hash_mapIS6_SA_SF_NS6_14EqualsComparerINS0_8equal_toIS5_EEEENS0_9allocatorISB_EEE9SelectKeyESK_SM_E10test_emptyEj
a7e:_DateTime__ctor_m3153923094
edn:__ZN6il2cpp6icalls8mscorlib6System11Environment20GetWindowsFolderPathEi
swl:_InternalEnumerator_1_Dispose_m3642485841_AdjustorThunk
uqh:_Array_InternalArray__ICollection_Remove_TisXPathNode_t3118381855_m2146645897_gshared
bNe:_UriHelper_IsReservedUnreservedOrHash_m375934092
O4a:__ZN9ShaderLab20SerializedSubProgram15AddTextureParamEPKcii16TextureDimension
mE:__ZN23CloudWebServicesManager23VirtualRedirectTransferER17RemapPPtrTransfer
wjo:__ZL72Enum_t2459695545_CustomAttributesCacheGenerator_Enum_ToObject_m275924358P21CustomAttributesCache
pvo:__ZL99FileIOPermission_t3702443043_CustomAttributesCacheGenerator_FileIOPermission_GetHashCode_m540449549P21CustomAttributesCache
gbn:__ZN6il2cpp2os10SocketImpl12ReceiveArrayEPNS0_6WSABufEiPiNS0_11SocketFlagsE
KOk:_List_1_get_Capacity_m3741893550_gshared
afc:__ZNK5physx2Gu15HeightFieldUtil12traceSegmentI24ConvexVsHeightfieldSweepLb0ELb0ELb1EEEvRKNS_6PxVec3ES6_PT_PS5_
j7f:_FacetsCompiler_CheckValue_m2836626566_AdjustorThunk
Wud:__ZNK5physx12PxConvexMesh19getConcreteTypeNameEv
Fvl:_InternalEnumerator_1__ctor_m200749079_AdjustorThunk
KYf:_TimeSpanParse_Parse_m1825338314
GSa:__ZNK12MeshRenderer22GetTypeVirtualInternalEv
cYi:_KeyContainerPermissionAccessEntryCollection_IndexOf_m417606575
n9o:__ZL56PlayableOutput_t988259697_CustomAttributesCacheGeneratorP21CustomAttributesCache
Bfc:__ZN5physx2Gu19gjkLocalPenetrationINS0_9TriangleVENS0_17ShrunkConvexHullVEEEjRKT_RKT0_RKNS_6shdfnd3aos6FloatVERNSB_5Vec3VESG_SG_RSC_PhSI_Rhb
ZBl:_ConfiguredTaskAwaiter__ctor_m136027847_AdjustorThunk
sTh:_TaskExceptionHolder_MarkAsUnhandled_m919241615
t0d:_XmlReaderSettings_get_ValidationType_m2357679692
g_b:__Z32Behaviour_Get_Custom_PropEnabledP12Il2CppObject
nRh:_XmlAttributeCollection_get_ItemOf_m177692376
hhc:__ZN5physx2Gu15GJKLocalRayCastERNS0_9TriangleVERNS0_4BoxVERKNS_6shdfnd3aos6FloatVERKNS6_5Vec3VESC_RS7_RSA_SE_fb
yyd:__ZN5physx18AdjacenciesBuilderC2Ev
Uoc:__ZN5physx2Sc13ShapeIterator4initERKNS0_8ActorSimE
n_k:_ReadOnlyCollection_1_CopyTo_m2688506969_gshared
zFa:__ZN14SafeBinaryRead19TransferSTLStyleMapINSt3__23mapIN4core12basic_stringIcNS3_20StringStorageDefaultIcEEEES7_NS1_4lessIS7_EE13stl_allocatorINS1_4pairIKS7_S7_EEL18MemLabelIdentifier1ELi16EEEEEEvRT_17TransferMetaFlags
a1h:_Type_MakeByRefType_m1323101575
N5l:_Context_get_IsDefaultContext_m3300558634
gF:__ZN11UnityEngine15CloudWebService16SessionContainer21PrepareDataErrorEventERN4core12basic_stringIcNS2_20StringStorageDefaultIcEEEE
sOb:__ZN12TLSAllocatorI14StackAllocatorEC2EPKc
afn:__ZNSt3__218uninitialized_copyIPNS_4pairIK10KeyWrapperIPK19Il2CppGenericMethodEP10MethodInfoEESB_EET0_T_SD_SC_
mMk:_Win32NetworkInterface2_GetIfEntry_m3799443605
iGl:_U3CU3Ec__DisplayClass35_1_U3CFromAsyncImplU3Eb__1_m3642165576_gshared
njb:__Z19TransferField_ArrayI19StreamedBinaryWriteILb0EE27Converter_SimpleNativeClassI8GUIStyleEEvRK23StaticTransferFieldInfoR31RuntimeSerializationCommandInfoRT0_
TAi:_Enumerator_get_Current_m937156828_AdjustorThunk
SKc:__ZN5physx14NpArticulationC2Ev
bIp:_emscripten_glCopyTexSubImage2D__wrapper
LNa:__ZNK13ScreenManager12GetIsFocusedEv
sye:_XmlSchemaComplexType_set_AnyAttribute_m1240558236
mMm:_il2cpp_field_get_name
V7m:__ZN15dense_hashtableINSt3__24pairIK10KeyWrapperIP12Il2CppObjectEN6il2cpp2gc9CachedCCWEEES5_NS7_5utils11PointerHashIS3_EEN14dense_hash_mapIS5_S9_SD_NS5_14EqualsComparerINS0_8equal_toIS4_EEEENS0_9allocatorISA_EEE9SelectKeyESI_SK_E11set_deletedER30dense_hashtable_const_iteratorISA_S5_SD_SM_SI_SK_E
MIg:_DecoderReplacementFallbackBuffer_InternalFallback_m3574261033
Rjj:_RemotingServices_RegisterInternalChannels_m1827304423
f4o:__ZL113SocketAsyncEventArgs_t2815111766_CustomAttributesCacheGenerator_SocketAsyncEventArgs_get_AcceptSocket_m2555767076P21CustomAttributesCache
c5b:__Z35Transfer_Blittable_FixedBufferFieldI8JSONReadiEvRK29SerializationCommandArgumentsR31RuntimeSerializationCommandInfo
sgh:_WebRequest_Create_m274268363
VKh:_XsdBuilder_BuildAttribute_Type_m1031980508
leg:_ASN1_get_Length_m3359111015
Sxg:_CodeGroup_get_MembershipCondition_m381298989
_kp:_Map_Uncover_m2947067628
Dmn:__ZN6il2cpp2vm6Random19TryGetUnsignedInt32EPPvPjjj
gUn:__Z77RuntimeInvoker_RuntimeObject_Int32_t2071877448_RuntimeObject_SByte_t454417549PFvvEPK10MethodInfoPvPS4_
qUh:_ThreadPool_UnsafeQueueCustomWorkItem_m806194118
pc:invoke_viiffi
f1l:_TypeDependencyAttribute__ctor_m427336407
XRi:_Utils_DWORDToBigEndian_m2058289376
RLb:__ZN13sorted_vectorINSt3__24pairIN4core12basic_stringIcNS2_20StringStorageDefaultIcEEEEPK17MessageIdentifierEEN10vector_mapIS6_S9_NS0_4lessIS6_EENS0_9allocatorISA_EEE13value_compareESF_E10insert_oneERKSA_
LAo:__ZL98BinaryFormatter_t1866979105_CustomAttributesCacheGenerator_BinaryFormatter_Deserialize_m3905644998P21CustomAttributesCache
TE:__ZNSt3__26__treeINS_12__value_typeIN4core12basic_stringIcNS2_20StringStorageDefaultIcEEEEjEENS_19__map_value_compareIS6_S7_NS_4lessIS6_EELb1EEE13stl_allocatorIS7_L18MemLabelIdentifier88ELi16EEE4findIS6_EENS_15__tree_iteratorIS7_PNS_11__tree_nodeIS7_PvEEiEERKT_
r6f:_FacetsChecker_CheckValueFacets_m3715225741
dPn:__Z119RuntimeInvoker_Void_t1841601450_RuntimeObject_RuntimeObject_RuntimeObject_RuntimeObject_RuntimeObject_Int32_t2071877448PFvvEPK10MethodInfoPvPS4_
dBk:_RuntimeConstructorInfo_GetObjectData_m2960303470
e_m:__ZTv0_n12_NSt3__218basic_stringstreamIcNS_11char_traitsIcEENS_9allocatorIcEEED1Ev
MHa:__ZNK12CubemapArray20GetRuntimeMemorySizeEv
oFj:_RecommendedAsConfigurableAttribute_GetHashCode_m4005322302
DLe:_RegexNode__ctor_m3450637480
ZWj:_CFNetwork_CFNetworkCopySystemProxySettings_m1446309482
$ga:__ZN9GfxDevice5FlushEv
z2a:__Z14resize_trimmedINSt3__26vectorIN9ShaderLab18SerializedPropertyENS0_9allocatorIS3_EEEEEvRT_j
LGo:__ZL67UnsafeValueTypeAttribute_t1767622487_CustomAttributesCacheGeneratorP21CustomAttributesCache
feb:__Z18Transfer_BlittableI17RemapPPtrTransferLb0EN4math12int3_storageEEvRK29SerializationCommandArgumentsR31RuntimeSerializationCommandInfo
e0c:__ZN5physx6shdfnd8PoolBaseINS_2Sc9ActorPairENS0_19ReflectionAllocatorIS3_EEE12allocateSlabEv
UYl:_ConfigurationSection_get_ConfigContext_m4131621597
eTe:_Byte_System_IConvertible_ToDateTime_m1583041031
YUl:_DefaultSection__ctor_m1597606775
tLi:_Dictionary_2_System_Collections_Generic_ICollectionU3CSystem_Collections_Generic_KeyValuePairU3CTKeyU2CTValueU3EU3E_get_IsReadOnly_m1018053687_gshared
FRj:_WebRequestModuleElement_get_Properties_m808512222
oUk:_ObjectEqualityComparer_1__ctor_m1327964896_gshared
KOa:__ZN10VertexData8TransferI24GenerateTypeTreeTransferEEvRT_
ybg:_SchemaCollectionCompiler_CompileBaseMemberTypes_m2130492194
Hen:__ZN13Il2CppHashMapIPK19Il2CppGenericMethodP10MethodInfoN6il2cpp8metadata23Il2CppGenericMethodHashENS6_26Il2CppGenericMethodCompareENSt3__29allocatorINS9_4pairIK10KeyWrapperIS2_ES4_EEEEEC2EjRKS7_RKS8_
Xjg:_EncryptedData_get_EncryptionAlgorithm_m1301274243
nZj:__ZN21InterfaceFuncInvoker0IP23DnsQuestion_t3090842959E6InvokeEjP11Il2CppClassP12Il2CppObject
NGb:__ZL10CullLightsRK22SceneCullingParametersR11CullResults
Arg:_Array_IndexOf_m2819632474
Pom:__ZL24UnresolvedVirtualCall_15P12Il2CppObjectiPK10MethodInfo
_zg:_StrongNameMembershipCondition__ctor_m1991913659
F0o:__ZL83CFObject_t3730145744_CustomAttributesCacheGenerator_CFObject_set_Handle_m4152919519P21CustomAttributesCache
$pn:__ZN6il2cpp2os9FastMutex7GetImplEv
sxi:_Enumerator_MoveNext_m2770956757_gshared
F7h:_VersionResult_t785420859_marshal_pinvoke_cleanup
h1c:__ZN5physx7NpScene21setDominanceGroupPairEhhRKNS_20PxDominanceGroupPairE
FOb:__Z40GetTemporaryCachePathApplicationSpecificv
E_:__ZN9GfxDevice16EndAsyncJobFrameEv
G4d:_XmlParserContext_get_XmlSpace_m3665735814
DSm:__ZNK15dense_hashtableINSt3__24pairIK10KeyWrapperINS1_IPK12PropertyInfoP11Il2CppClassEEEjEES9_17ReflectionMapHashIS8_EN14dense_hash_mapIS9_jSD_NS9_14EqualsComparerINS0_8equal_toIS8_EEEENS0_9allocatorISB_EEE9SelectKeyESI_SK_E10test_emptyERK30dense_hashtable_const_iteratorISB_S9_SD_SM_SI_SK_E
zen:__Z15poll_event_waitPFviiPvES_
A6l:_ContextAttribute_IsNewContextOK_m2186905629
xlo:__ZL94NumberBuffer_t3547128574_CustomAttributesCacheGenerator_NumberBuffer_PackForNative_m2631630871P21CustomAttributesCache
D6e:_Convert_ToBase64String_m1936815455
Ppf:_RuntimeType_GetFields_native_m3301143729
jl:___syscall3
ZUc:__ZNK5physx15NpActorTemplateINS_16PxParticleSystemEE7getNameEv
ml:___syscall6
_$:__ZN9GfxDevice15GetNextCPUFenceEv
ol:___syscall4
Hlo:__ZL49Random_t1044426839_CustomAttributesCacheGeneratorP21CustomAttributesCache
fG:__ZN11UnityEngine15CloudWebService20WebRequestRestClient17GetResponseStatusEv
jYj:_DnsHeader_get_RCode_m3627868907
$Pe:_BadImageFormatException__ctor_m3033778262
YLg:_EncodingCharBuffer_get_BytesUsed_m1961903496
fBf:_Array_SortImpl_TisUInt64_t2909196914_m3279331031_gshared
t9a:__ZNSt3__26__treeINS_12__value_typeIN4core12basic_stringIcNS2_20StringStorageDefaultIcEEEEPN16MemoryFileSystem4NodeEEENS_19__map_value_compareIS6_SA_NS_4lessIS6_EELb1EEE13stl_allocatorISA_L18MemLabelIdentifier55ELi16EEE7destroyEPNS_11__tree_nodeISA_PvEE
F0f:_Datatype_hexBinary_get_ListValueType_m1489953231
O7m:__ZN6il2cpp2vm3RCW14QueryInterfaceILb1EEEP14Il2CppIUnknownP15Il2CppComObjectRK10Il2CppGuid
z3o:__ZL92HttpWebResponse_t2828383075_CustomAttributesCacheGenerator_HttpWebResponse__ctor_m3455005236P21CustomAttributesCache
v8b:__ZN27PerformanceReportingManager23VirtualRedirectTransferER14SafeBinaryRead
bDj:_EventDescriptorCollection_System_Collections_IList_Add_m3160558838
UNj:_GZipStream_BeginWrite_m2614829976
R_:__ZN9GfxDevice27UpdateComputeSkinPoseBufferE15ComputeBufferIDP12SkinMeshInfo
sCi:_KeyCollection_GetEnumerator_m2354136082_gshared
Ocg:_RuntimeGenericParamInfoHandle_t580017048_marshal_pinvoke
Dl:_emscripten_glShaderBinary
pWh:_DelegatePInvokeWrapper_ThreadStart_t3437517264
ebj:_OpCode_Equals_m3738130494
tG:__ZN15DownloadHandler19OnFinishReceiveDataEv
q8a:__ZNK20LocalFileSystemPosix6ExistsERK13FileEntryData
irl:_InternalEnumerator_1_Dispose_m4038440306_AdjustorThunk
jlo:__ZL79Number_t2840369917_CustomAttributesCacheGenerator_Number_ParseUInt64_m354836256P21CustomAttributesCache
bun:__Z21RuntimeInvoker_Guid_tPFvvEPK10MethodInfoPvPS4_
sWo:__ZL130XmlSchemaAttributeGroup_t491156493_CustomAttributesCacheGenerator_XmlSchemaAttributeGroup_t491156493____QualifiedName_PropertyInfoP21CustomAttributesCache
Luc:__ZN5physx35NpArticulationJointGetBodiesFromScbERNS_3Scb17ArticulationJointERPNS0_4BodyES5_
AJf:_DivideByZeroException__ctor_m280382972
pud:__ZNK5physx2Sc15ClothFabricCore16getTetherLengthsEPfj
pup:__ZNKSt3__210__time_put8__do_putEPcRS1_PK2tmcc
pBg:_SecureString_GetBuffer_m3412662779
xUo:__ZL53Win32Native_t932910218_CustomAttributesCacheGeneratorP21CustomAttributesCache
Mlb:__ZN17AnimationCurveTplIfE8TransferI18StreamedBinaryReadILb1EEEEvRT_
$ml:_InternalEnumerator_1_System_Collections_IEnumerator_Reset_m654074019_AdjustorThunk
yWn:__Z59RuntimeInvoker_Void_t1841601450_Win32_MIB_IFROW_t4215928996PFvvEPK10MethodInfoPvPS4_
Gbf:_DateTimeOffset_GetHashCode_m3312197462_AdjustorThunk
zPd:__ZN18UnityConnectClientD2Ev
R9g:_ServicePoint_set_UseNagleAlgorithm_m2618011464
Q8i:_ILGenerator_Emit_m2714420963
uLm:_il2cpp_set_data_dir
CNn:__Z151RuntimeInvoker_Boolean_t3825574718_Int32_t2071877448_RuntimeObject_Int32_t2071877448_Int32_t2071877448_RuntimeObject_Int32_t2071877448_SByte_t454417549PFvvEPK10MethodInfoPvPS4_
Y5c:__ZN5physx2Sc13ConstraintSim8getForceERNS_6PxVec3ES3_
x4h:_UInt32_GetHashCode_m2903162199
_Pk:_List_1_System_Collections_ICollection_CopyTo_m1781999869_gshared
QNe:_Uri_get_IsUnc_m2111738174
Hqa:__ZN16LevelGameManager23VirtualRedirectTransferER19StreamedBinaryWriteILb0EE
FOa:__Z32TransferEnumWithNameForceIntSizeI14SafeBinaryRead16GfxPrimitiveTypeEvRT_RT0_PKc17TransferMetaFlags
ulp:_MouseOverMaterialSwap_OnPointerExit_m221798950
rbj:_ParameterBuilder_get_Attributes_m2421099277
png:___DTString_MatchSpecifiedWords_m3633051038
nOh:_XsdDuration_TryToTimeSpan_m508266601
$qj:_KeyPairPersistence_Load_m1225975073
QGo:__ZL110FastResourceComparer_t3927788191_CustomAttributesCacheGenerator_FastResourceComparer_CompareOrdinal_m905107033P21CustomAttributesCache
Qac:__ZN5physx15PxGeometryQuery18computePenetrationERNS_6PxVec3ERfRKNS_10PxGeometryERKNS_11PxTransformES6_S9_
tcj:_Lease_get_CurrentState_m2904545479
yBi:_KeyCollection_System_Collections_Generic_ICollectionU3CTKeyU3E_Add_m2610038036_gshared
rtl:_InternalEnumerator_1_System_Collections_IEnumerator_get_Current_m1877866433_AdjustorThunk
Ksk:_TypeBuilder_IsValueTypeImpl_m1499671481
DOd:__ZN11UnityEngine15PlatformWrapper30GetGraphicsDriverLibraryStringEv
hbo:__ZL66Guid_t_CustomAttributesCacheGenerator_Guid_StringToInt_m3099398043P21CustomAttributesCache
S$k:_ReadOnlyCollection_1_System_Collections_IList_Contains_m933086541_gshared
CJd:__ZN5Unity12PhysicsQueryC2Ev
rxo:__ZL62MaskGenerationMethod_t649190171_CustomAttributesCacheGeneratorP21CustomAttributesCache
Arj:_EncryptedPrivateKeyInfo_Decode_m1706190306
U$f:_Datatype_duration_get_FacetsChecker_m3841308654
hnb:__Z18Transfer_BlittableI18StreamedBinaryReadILb0EELb0E4AABBEvRK29SerializationCommandArgumentsR31RuntimeSerializationCommandInfo
bom:_AudioListener_ClearExtensionProperties_m2267088681
kpk:_List_1_Sort_m634725844_gshared
tod:__ZN5physx10PxsContext13updateIslandsEfPNS_10PxBaseTaskE
Bhf:_ObjectReader_SetMethodCall_m2993974829
L3d:_XmlNodeReaderNavigator_CheckIndexCondition_m2322819888
r3e:_Convert_ToUInt16_m1665900934
Ajm:_Converter_2_BeginInvoke_m898151494_gshared
ETe:_Char_ToString_m2259128647
Jwl:_InternalEnumerator_1_System_Collections_IEnumerator_get_Current_m2417091700_AdjustorThunk
Wwb:__Z14DrawGUITextureRK5RectTIfEP7Texture11ColorRGBA32P8Materiali
kqj:_ASN1Convert_ToInt32_m2482104422
hii:_FileStream__cctor_m972346232
wOj:_IPv4AddressHelper_Parse_m1848032016
kjf:_ReadObjectInfo_ObjectEnd_m2377771896
qEa:__ZN15TextureSettings8TransferI24GenerateTypeTreeTransferEEvRT_
aFe:_MatchCollection_GetEnumerator_m3516985966
Hqm:__ZL25UnresolvedVirtualCall_115P12Il2CppObjectS0_S0_28StreamingContext_t1417235061PK10MethodInfo
N4b:__ZN9JSONWrite8TransferI4AABBEEvRT_PKc17TransferMetaFlags
tKg:_UTF7Encoding__ctor_m2365939916
gyo:__ZL89SHA384Managed_t741627254_CustomAttributesCacheGenerator_SHA384Managed__EndHash_m442660137P21CustomAttributesCache
Hoa:__ZN25MultiBlocksMemoryFileData9SetLengthEy
qxf:_Array_InternalArray__set_Item_TisState_t563545493_m3049205978_gshared
Kdg:_SafeGPtrArrayHandle_t547714345_marshal_pinvoke
cge:_XmlValidatingReaderImpl_ParseDtdFromParserContext_m1901598209
l7n:__Z37RuntimeInvoker_Enumerator_t3434983776PFvvEPK10MethodInfoPvPS4_
wrd:__ZNK18ScBeforeSolverTask7getNameEv
xzg:_MembershipConditionHelper__cctor_m2929159173
w_o:__ZL92Context_t4285182719_CustomAttributesCacheGenerator_U3CChangeCipherSpecDoneU3Ek__BackingFieldP21CustomAttributesCache
isd:__ZN5physx2Cm12DelegateTaskINS_2Sc5SceneEXadL_ZNS3_13ccdBroadPhaseEPNS_10PxBaseTaskEEEED0Ev
c3h:_TypeInitializationException__ctor_m2993591639
Ged:__ZN5physx14solve1D4_BlockEPKNS_23PxcSolverConstraintDescEjRNS_16PxcSolverContextE
Quh:_Array_InternalArray__IEnumerable_GetEnumerator_TisRefEmitPermissionSet_t2708608433_m3450905212_gshared
X0b:__ZN5Unity9rapidjson13GenericReaderINS0_4UTF8IcEES3_13JSONAllocatorE9ParseTrueILj0ENS0_19GenericStringStreamIS3_EENS0_15GenericDocumentIS3_S4_S4_EEEEvRT0_RT1_
sTn:__Z103RuntimeInvoker_Check_t363272550_RuntimeObject_UInt16U26_t3314555461_Int16_t4041245914_Int16_t4041245914PFvvEPK10MethodInfoPvPS4_
Lm:_emscripten_glUniform2iv
Uwo:__ZL46DES_t1353513560_CustomAttributesCacheGeneratorP21CustomAttributesCache
cEc:__ZN5physx2Sc8ShapeSim17onTransformChangeEv
nbc:__ZL33GeomMTDCallback_ConvexHeightFieldRN5physx6PxVec3ERfRKNS_10PxGeometryERKNS_11PxTransformES5_S8_
m9l:_PKCS12_Finalize_m3579787021
zvi:_Comparer_1_CreateComparer_m964710621_gshared
tJn:__Z85RuntimeInvoker_RuntimeObject_RuntimeObject_RuntimeObject_StackCrawlMarkU26_t725225610PFvvEPK10MethodInfoPvPS4_
KQj:_DefaultProxySectionInternal_GetDefaultProxy_UsingOldMonoCode_m2076098506
otg:_String_nativeCompareOrdinalEx_m2017317785
_ff:_MemberPrimitiveUnTyped_Set_m1757663005
spm:__ZL24UnresolvedVirtualCall_46P12Il2CppObjectS0_PK10MethodInfo
Rrm:__ZL25UnresolvedVirtualCall_179P12Il2CppObject26DateTimeOffset_t1362988906PK10MethodInfo
FSd:__ZNK25UnityWebRequestJavaScript17GetUploadProgressEv
CCb:__Z30AddDefaultStreamsToMeshBuffersR9GfxDeviceR11MeshBuffersRK16DrawBuffersRange17ShaderChannelMaskS6_
lOg:_StringBuilder_AppendFormat_m1684825084
tzg:_Hash_GetObjectData_m315532943
Cba:__ZN7ApiGLES17DeleteFramebufferERN2gl6HandleILNS0_10ObjectTypeE9EEES3_
xea:__ZN15UniformTFMethod13MapBoneBufferEj
Kuj:_RecordProtocol_SendAlert_m2816808523
ijp:_WaitForSeconds_t3839502067_marshal_pinvoke_back
dbh:_SimpleAsyncCallback_Invoke_m3187743692
b4g:_LineInfo_Set_m3462729943_AdjustorThunk
Nbp:__ZL113PlayerConnection_t3517219175_CustomAttributesCacheGenerator_PlayerConnection_ConnectedCallbackInternal_m286884446P21CustomAttributesCache
Njd:__ZN5physx26PxcPCMContactCapsuleConvexERKNS_2Gu13GeometryUnionES3_RKNS_11PxTransformES6_RKfRNS_10PxcNpCacheERNS0_13ContactBufferE
E2l:_Marshal_copy_from_unmanaged_m98320635
dQg:_Decoder_get_HasState_m2042115426
ZVj:__Z30il2cpp_codegen_resolve_pinvokeIPFviELj25ELj8EET_RAT0__KcRAT1__S3_20Il2CppCallConvention13Il2CppCharSetib
gsb:__Z9SetupArgviPPKc
e2n:__Z53RuntimeInvoker_Void_t1841601450_LabelData_t3712112744PFvvEPK10MethodInfoPvPS4_
zvh:_Array_InternalArray__IEnumerable_GetEnumerator_TisHitInfo_t1761367055_m2486283755_gshared
wSe:_Convert_ToBoolean_m2032547942
Mlp:_PlayerControl_OnDisable_m17019492
ATm:__ZN6il2cpp2vm10Reflection7IsFieldEP12Il2CppObject
$Vj:__Z30il2cpp_codegen_resolve_pinvokeIPFiPciELj25ELj7EET_RAT0__KcRAT1__S4_20Il2CppCallConvention13Il2CppCharSetib
y9i:_MethodBuilder_GetModule_m3795962320
lzk:_MonoParameterInfo__ctor_m1712424775
Dxh:_Array_InternalArray__IndexOf_TisGCHandle_t3409268066_m2265684215_gshared
Jxc:__ZN5physx10PxsContext17addParticleSystemEPNS_15PxsParticleDataERKNS_26PxvParticleSystemParameterEb
Fvc:__ZN5physx3Scb5Scene13addRigidNoSimINS0_4BodyELb1ELb1EEEvRT_RNS0_13ObjectTrackerE
ija:__ZN12ImmediatePtrI10GameObjectE8TransferI19StreamedBinaryWriteILb0EEEEvRT_
idp:__ZL93Physics_t634932869_CustomAttributesCacheGenerator_Physics_Raycast_m3956786387____maxDistance2P21CustomAttributesCache
QHa:__ZN12CubemapArray23VirtualRedirectTransferER24GenerateTypeTreeTransfer
iS:__ZN12FileAccessor4OpenER15FileSystemEntry14FilePermission16FileAutoBehavior
Pya:__ZNSt3__26vectorI4PPtrI6ShaderE13stl_allocatorIS3_L18MemLabelIdentifier53ELi16EEE8__appendEj
Fpe:_XdrBuilder_ParseMaxOccurs_m831291688
Z7k:_ReadOnlyCollection_1_System_Collections_IList_get_Item_m272552265_gshared
ynm:_AudioSource_get_spatializeInternal_m4243931620
M7l:_TlsStream_get_Length_m1562309511
_ya:__ZN4PPtrI6ShaderE8TransferI18StreamedBinaryReadILb0EEEEvRT_
zgc:__ZL19sweepBoxVsTrianglesjPKN5physx10PxTriangleERKNS_2Gu3BoxERKNS_6PxVec3EfRNS_10PxSweepHitENS_7PxFlagsINS_9PxHitFlag4EnumEtEEbPKj
zde:_NodeData_get_ValueBuffered_m96029250
i5o:__ZL108SourceElement_t2880823865_CustomAttributesCacheGenerator_SourceElement_t2880823865____Listeners_PropertyInfoP21CustomAttributesCache
nR:__ZN15dense_hashtableINSt3__24pairIKiP4RTTIEEiN11TypeManager27HashFunctorPersistentTypeIDEN14dense_hash_mapIiS4_S7_NS0_8equal_toIiEE13stl_allocatorIS5_L18MemLabelIdentifier7ELi16EEE9SelectKeyESA_SD_E12maybe_shrinkEv
ZYi:_NumberFormatter_AppendNonNegativeNumber_m629862866
HEd:__ZN9Rigidbody18AddForceAtPositionERK8Vector3fS2_i
yah:_WebConnectionGroup_FindIdleConnection_m3371117434
Yck:_List_1_System_Collections_Generic_IEnumerableU3CTU3E_GetEnumerator_m533999703_gshared
qoa:__ZN15ArchiveReadFile5WriteEyPKvPy
T1k:_ReadOnlyCollection_1_System_Collections_Generic_IListU3CTU3E_get_Item_m2958005159_gshared
Mwf:_Array_InternalArray__set_Item_TisMonoResource_t3127387157_m732733855_gshared
jvm:_UnityEvent_1_Invoke_m1599856953_gshared
FZk:_ReadOnlyCollection_1_get_Item_m1219915259_gshared
qNd:__ZN22BaseUnityConnectClientD0Ev
LIk:_HttpWebRequest_CheckFinalStatus_m3438683118
M$h:_U3CU3Ec__ctor_m2635780980
fCg:_SecurityManager_get_CheckExecutionRights_m3149836832
CZj:_SimpleResolverEventArgs_get_HostName_m1037816209
uge:_XmlValidatingReaderImpl_set_SchemaTypeObject_m55140609
C:tempValue
Glj:___BinaryParser_ReadObjectWithMap_m1355507397
j_o:__ZL101MonoTlsSettings_t302829305_CustomAttributesCacheGenerator_MonoTlsSettings_get_TrustAnchors_m131805047P21CustomAttributesCache
pNb:__Z29StdTemplateConversionFunctionIaiEbPvR14SafeBinaryRead
o4g:_ReaderPositionInfo__ctor_m2988644991
Adl:_MSCompatUnicodeTable_ToKanaTypeInsensitive_m908833112
e6n:__Z40RuntimeInvoker_AttributeEntry_t168441916PFvvEPK10MethodInfoPvPS4_
rno:__ZL88IListWrapper_t2368627560_CustomAttributesCacheGenerator_IListWrapper_ToArray_m4063565160P21CustomAttributesCache
H9h:_Int16_System_IConvertible_ToSingle_m3277935657
$N:__Z29scripting_class_from_fullnamePKcS0_S0_
FBl:_AsyncTaskMethodBuilder_1_SetStateMachine_m2163218690_AdjustorThunk
$Yg:_Task_Dispose_m1598097392
wbc:__ZN5physx2Gu29ConvexVsMeshContactGeneration20generateLastContactsEv
C8d:_XmlTextReaderImpl_get_Name_m3464630043
IQl:_GenericComparer_1_Compare_m2317189868_gshared
rsc:__ZNK5physx2Gu22SupportMapRelativeImplINS0_4BoxVEE14doSupportSweepERKNS_6shdfnd3aos5Vec3VE
Gtp:__ZNSt3__220__get_up_to_n_digitsIcNS_19istreambuf_iteratorIcNS_11char_traitsIcEEEEEEiRT0_S5_RjRKNS_5ctypeIT_EEi
z4f:_DurationFacetsChecker__ctor_m798218835
jcl:_UnixRegistryApi_GetValueKind_m70884842
tA:__ZN11AudioSource19CreateOpenALRolloffEfff
wSi:_SHA384Managed_SHA384Expand_m1910126009
C4f:_SchemaDatatypeMap__ctor_m1305580321
odk:_List_1_TrimExcess_m1592490984_gshared
bpm:__ZL24UnresolvedVirtualCall_29P12Il2CppObjectaPK10MethodInfo
TSc:__ZN5physx2Sc17ParticleSystemSim16getParticleStateEv
Cqd:__ZN5physx6shdfnd5ArrayINS_25PxsCompoundContactManagerENS0_19ReflectionAllocatorIS2_EEE8recreateEj
qfl:_BigInteger_op_Equality_m3606819076
n3n:__Z87RuntimeInvoker_Void_t1841601450_Int32_t2071877448_Win32_IP_ADAPTER_ADDRESSES_t680756680PFvvEPK10MethodInfoPvPS4_
RDm:__ZN15dense_hashtableINSt3__24pairIK10KeyWrapperIN6il2cpp5utils13dynamic_arrayIPK10Il2CppTypeLj4EEEEPFvvEEESA_NS3_8metadata19Il2CppSignatureHashEN14dense_hash_mapISA_SD_SG_NSA_14EqualsComparerINSF_22Il2CppSignatureCompareEEENS0_9allocatorISE_EEE9SelectKeyESK_SM_E9set_valueEPSE_RKSE_
Xyk:_MonoModule_get_Assembly_m3457211519
EHe:_RegexParser_EmptyOptionsStack_m176956034
nfm:_UnityEventBase_FindMethod_m2780816114
h_g:_XPathDocumentNavigator_Clone_m2090512569
kKk:_LazyAsyncResult_LazilyCreateEvent_m4124832180
Cd:_glReadBuffer
TRi:_Utils_DWORDFromBigEndian_m4062209169
wIh:_XmlSchemaType_set_NameAttribute_m2213325472
$1k:_ReadOnlyCollection_1_System_Collections_ICollection_get_SyncRoot_m1676628761_gshared
yhd:__ZN5physx14PxsAABBManagerC2ERNS_2Cm13EventProfilerERNS_19PxcScratchAllocatorE
dB:__ZN11AudioModule22CreateAudioClipFromWWWEP10IWWWStreamPKcbbi
hNg:_StringBuilder_set_Length_m3039225444
yHh:_XmlSchemaSimpleTypeList_set_BaseItemType_m2579273844
jQh:_Ucs4Encoding1234_get_EncodingName_m3736087407
AXg:_AwaitTaskContinuation_UnsafeScheduleAction_m1435247783
ixh:_Array_InternalArray__IndexOf_TisRecognizedAttribute_t3930529114_m3772605877_gshared
PZi:_Number_FormatInt32_m3900982637
vXd:_XmlDocument_get_ParentNode_m702500856
wVg:_QueueUserWorkItemCallback__ctor_m213775691
R6e:_CultureAwareComparer_GetHashCode_m3681260951
$Im:__ZN15dense_hashtableINSt3__24pairIK10KeyWrapperIPK9EventInfoEP11Il2CppClassEES6_N6il2cpp6icalls8mscorlib6System19Il2CppEventInfoHashEN14dense_hash_mapIS6_S9_SF_NS6_14EqualsComparerINSE_22Il2CppEventInfoCompareEEENS0_9allocatorISA_EEE9SelectKeyESJ_SL_E3endEv
NOb:__ZN6prcoreL11inner_clearILj4EEEvPhjjj
kGb:__ZNK26RenderDeferredObjectSorterclERK16RenderObjectDataS2_
IOf:_CultureData_GetNFIValues_m3514126741
WDb:__ZN15SHConstantCacheC2ER13BatchRendererR15RenderLoopStats
wAl:_Predicate_1_Invoke_m1858076446_gshared
oJj:_DiagnosticsConfigurationHandler_ValidateAttribute_m267344658
Jln:_GC_initialize_offsets
wV:__ZNK8Playable6HandleEv
fyg:_DefaultPolicies_BuildFullTrust_m1392093839
zAp:___cxa_guard_abort
IDb:__Z30SetupBakedOcclusionForGeometrybRK26SharedLightmapSettingsDataRK15LightmapIndicesR17ShaderPassContext
l$g:_XPathNodeRef__ctor_m3079452463_AdjustorThunk
mhh:_WebConnection_BeginWrite_m1695738720
u_l:_InternalConfigurationHost_IsDefinitionAllowed_m2472316359
kQ:__ZN14MessageHandler28MessageIDToMessageIdentifierEi
xHk:_HttpRequestCreator_Create_m3607509610
ePa:__ZNK11SpriteAtlas20GetRuntimeRenderDataEPK6Sprite
oTk:_ObjectEqualityComparer_1__ctor_m3004631261_gshared
LTc:__ZNK5physx2Sc18ParticleSystemCore23getSimulationFilterDataEv
Zvj:_Context_get_RandomCS_m3946020109
AJi:_Dictionary_2_Insert_m3259631702_gshared
ybo:__ZL72IntPtr_t_CustomAttributesCacheGenerator_IntPtr_op_Inequality_m3044532593P21CustomAttributesCache
Jnn:__ZN6il2cpp2vm10WaitHandle19NewManualResetEventEb
$Bn:__Z73RuntimeInvoker_RuntimeObject_Int64_t909078037_RuntimeObject_RuntimeObjectPFvvEPK10MethodInfoPvPS4_
fgo:__ZL78Convert_t2607082565_CustomAttributesCacheGenerator_Convert_ToSByte_m1880147062P21CustomAttributesCache
Vmo:__ZL117UnitySerializationHolder_t2045574117_CustomAttributesCacheGenerator_UnitySerializationHolder_GetRealObject_m286267090P21CustomAttributesCache
eCg:_SecurityManager__cctor_m3929275401
fIk:_HttpWebRequest_get_UnsafeAuthenticatedConnectionSharing_m2150911897
u7h:_Version_GetHashCode_m880841176
jom:_AudioExtensionManager_GetReadyToPlay_m3272224102
avg:_StrongNameIdentityPermission_IsUnrestricted_m938502364
lDl:_TaskAwaiter_1_UnsafeOnCompleted_m3372870064_AdjustorThunk
Wd:emscriptenWebGLGetUniform
Vo:FUNCTION_TABLE_iiiiiiiiiii
DXh:_WaitOrTimerCallback_BeginInvoke_m1090956637
nSj:_Cookie_get_Value_m2421772599
Dic:__ZN5physx2Gu19sweepCapsuleCapsuleERKNS0_7CapsuleES3_RKNS_6PxVec3EfRfRS4_S8_jRt
_cd:__ZN5physx2Gu29EPASupportMapPairRelativeImplINS0_9TriangleVENS0_11ConvexHullVEED0Ev
gIa:__Z32TransferEnumWithNameForceIntSizeI14SafeBinaryRead13TextureFormatEvRT_RT0_PKc17TransferMetaFlags
b6j:_Enumerator__ctor_m1586864815_AdjustorThunk
sIb:__ZL10CleanUpJobP20CullingGroupsJobData
ace:_XmlTextReaderImpl_set_DtdParserProxy_CurrentPosition_m724348814
qGl:_FromAsyncTrimPromise_1__cctor_m3521850378_gshared
ATe:_Char_CompareTo_m3044885427_AdjustorThunk
vmm:_AesCryptoServiceProvider_set_Key_m1857031513
GEg:_String_Join_m1966872927
BCb:__Z20IsRunningNativeTestsv
P3j:_BrowsableAttribute__ctor_m1194948749
kVa:__ZN11TimeManager23VirtualRedirectTransferER17RemapPPtrTransfer
Pud:__ZN5physx13BigConvexData4LoadERNS_13PxInputStreamE
Nwb:__ZN13RenderManager15BatchModeUpdateEv
uRg:_CancellationCallbackCoreWorkArguments__ctor_m1874808677_AdjustorThunk
cVl:_SectionInformation_get_ConfigSource_m1613439595
G8o:__ZL52LayerMask_t3188175821_CustomAttributesCacheGeneratorP21CustomAttributesCache
mOa:__ZN14SafeBinaryRead21TransferSTLStyleArrayI13dynamic_arrayI8Vector2fLj4EEEEvRT_17TransferMetaFlags
X_h:_TimeZoneInfo_IsDaylightSavingTime_m85822748
kja:__ZN17PersistentManager51InstanceIDToLocalSerializedObjectIdentifierInternalEiR31LocalSerializedObjectIdentifier
acl:_UnixRegistryApi_CreateSubKey_m1581476804
aCl:_ConfiguredTaskAwaiter_OnCompleted_m3754851881_gshared
Iw:__ZL16FMOD_ErrorString11FMOD_RESULT_658
IBk:_StrongNameKeyPair_System_Runtime_Serialization_IDeserializationCallback_OnDeserialization_m2330221363
HNj:_GZipStream_get_CanSeek_m153606340
OEc:__ZN5physx2Sc8ActorSim24postDominanceGroupChangeEv
D5l:_Context_t502196753_marshal_pinvoke
Cnf:_SerializationEntry__ctor_m1945920964_AdjustorThunk
me:_glVertexAttribIPointer
O1d:_XmlNamespaceManager_PopScope_m2180989617
A6h:_UnhandledExceptionEventHandler_EndInvoke_m2207457167
AZh:_AdjustmentRule_IsEndDateMarkerForEndOfYear_m3346121805
jap:__ZL114ManagedStreamHelpers_t1667331974_CustomAttributesCacheGenerator_ManagedStreamHelpers_ManagedStreamSeek_m4230262206P21CustomAttributesCache
LEh:_Array_InternalArray__Insert_TisVirtualAttribute_t2854289803_m4075404381_gshared
YKj:_SwitchLevelAttribute__ctor_m1438812652
GFc:__ZN5physx2Cm8PtrTable5clearERNS0_22PtrTableStorageManagerE
YZm:__ZNSt3__215basic_stringbufIcNS_11char_traitsIcEENS_9allocatorIcEEE7seekoffExNS_8ios_base7seekdirEj
uoh:_Array_InternalArray__ICollection_Contains_TisTableRange_t2011406615_m605506746_gshared
mJi:_Dictionary_2_Add_m1296007576_gshared
Clk:_List_1_Sort_m785723827_gshared
qYl:_ConfigurationPermission_FromXml_m1615470072
F4e:_Decimal_op_Explicit_m729046406
dWm:__ZN15dense_hashtableINSt3__24pairIK10KeyWrapperIPK22Il2CppGenericParameterEPK24MonoGenericParameterInfoEES6_N6il2cpp5utils11PointerHashIS4_EEN14dense_hash_mapIS6_SA_SF_NS6_14EqualsComparerINS0_8equal_toIS5_EEEENS0_9allocatorISB_EEE9SelectKeyESK_SM_E15insert_noresizeERKSB_
nmc:__ZN5physx3Cct15ObstacleContext7releaseEv
ked:__ZN5physx27solveFrictionBlockWriteBackEPKNS_23PxcSolverConstraintDescEjRNS_16PxcSolverContextEPNS_25PxcThresholdStreamElementEjPi
y$e:_KeyList_get_Count_m3444887015
Ztf:_CryptographicUnexpectedOperationException__ctor_m3552441227
xAb:__ZN14qsort_internal5QSortIP15RODataDepthPassi17ROSorterDepthPassEEvT_S4_T0_T1_
X6o:__ZL80Enumerable_t2148412300_CustomAttributesCacheGenerator_Enumerable_Any_m1395534165P21CustomAttributesCache
YOo:__ZL101EncodingCharBuffer_t1740573429_CustomAttributesCacheGenerator_EncodingCharBuffer_Fallback_m2489238782P21CustomAttributesCache
aem:_CullingGroup_SendEvents_m386073533
oEe:_GroupCollection_GetGroup_m1237801943
c7m:__ZN14dense_hash_mapI10KeyWrapperIP12Il2CppObjectEN6il2cpp2gc9CachedCCWENS4_5utils11PointerHashIS1_EENS3_14EqualsComparerINSt3__28equal_toIS2_EEEENSB_9allocatorINSB_4pairIKS3_S6_EEEEEC2EjRKS9_RKSE_
_5h:_UInt64_System_IConvertible_ToDouble_m2828923873
FCm:__ZN15dense_hashtableI10KeyWrapperIPK17Il2CppGenericInstES4_N6il2cpp8metadata21Il2CppGenericInstHashEN14dense_hash_setIS4_S7_NS4_14EqualsComparerINS6_24Il2CppGenericInstCompareEEENSt3__29allocatorIS4_EEE8IdentityESB_SE_E16reset_thresholdsEv
sNo:__ZL83Decoder_t3792697818_CustomAttributesCacheGenerator_Decoder_GetCharCount_m1977791941P21CustomAttributesCache
Kch:_Socket_BeginSend_m2442178957
gTg:_SendOrPostCallback__ctor_m107067079
pAd:__ZN5physx6shdfnd10Foundation19AlignCheckAllocator8allocateEjPKcS4_i
I6d:_XmlRegisteredNonCachedStream_Write_m1092076737
jhm:_NativeClassAttribute__ctor_m3728148471
Q$g:_Group_get_Type_m1846546023
yYh:_TimeSpan_CompareTo_m4183101766_AdjustorThunk
Jyp:__ZNKSt3__221__basic_string_commonILb1EE20__throw_length_errorEv
HXm:__ZNSt3__26vectorIP11Il2CppClassNS_9allocatorIS2_EEE21__push_back_slow_pathIS2_EEvOT_
TNg:_StringBuilder_Insert_m1733097906
yak:_Enumerator_MoveNext_m2019024253_AdjustorThunk
Bj:_JS_SystemInfo_GetMemory
eRk:_List_1_System_Collections_IList_Insert_m2503532433_gshared
gAj:_SslStreamBase_get_HashStrength_m480059173
pca:__ZN18GfxFramebufferGLES13ReadbackImageER14ImageReferenceiiiiii
$Cl:_TaskAwaiter_1_GetResult_m2570428347_AdjustorThunk
Rwo:__ZL127U3CReadAsyncInternalU3Ed__34_t965435883_CustomAttributesCacheGenerator_U3CReadAsyncInternalU3Ed__34_SetStateMachine_m3474270530P21CustomAttributesCache
z1b:__ZN5Unity9rapidjson6WriterI16TempBufferWriterNS0_4UTF8IcEES4_13JSONAllocatorE11WriteStringEPKcj
GFi:_ValueCollection_System_Collections_Generic_ICollectionU3CTValueU3E_Clear_m3271993638_gshared
k7j:_Enumerator__ctor_m3029487006_AdjustorThunk
kyp:__ZNSt3__26locale5__imp7installINS_8messagesIwEEEEvPT_
R7:__ZN6prcoreL12RemapGenericI17TexFormatARGB888815TexFormatRGB565EEvPKNS_9InnerInfoE
iw:__ZN4FMOD7Channel19setReverbPropertiesEPK29FMOD_REVERB_CHANNELPROPERTIES
N1o:__ZL55DnsType_t1822475631_CustomAttributesCacheGenerator_ATMAP21CustomAttributesCache
KP:__ZN13MonoBehaviour22GetScriptFullClassNameEv
OMm:_il2cpp_object_get_class
Jqd:__ZN5physx6shdfnd4sortIPNS_15PxsContactPatchENS_27SortBoundsPredicateManifoldENS0_19ReflectionAllocatorIS3_EEEEvPT_jRKT0_RKT1_j
k2l:_GuidAttribute__ctor_m1099153635
ari:_InternalEnumerator_1_get_Current_m2910701268_gshared
Yah:_ServicePointManager_FindServicePoint_m3137356168
f_f:_TimeSpanResult_t782244817_marshal_pinvoke_back
dqb:__ZN13MonoBehaviour9CallAwakeEv
$Ng:_StringBuilder_Append_m3541816491
kZk:_ReadOnlyCollection_1_System_Collections_Generic_ICollectionU3CTU3E_Clear_m656870291_gshared
cDa:__ZN20SphericalHarmonicsL211AddWeightedERKS_f
j0c:__ZN5physx2Sc24ElementInteractionMarker12onDeactivateEj
WEn:__Z90RuntimeInvoker_Void_t1841601450_RuntimeObject_RuntimeObject_RuntimeObject_SByte_t454417549PFvvEPK10MethodInfoPvPS4_
sfb:__Z19TransferField_ArrayI17RemapPPtrTransfer27Converter_SimpleNativeClassI8GUIStyleEEvRK23StaticTransferFieldInfoR31RuntimeSerializationCommandInfoRT0_
fN:__ZL22StaticInitializeShaderPv
j4e:_Convert_ToUInt64_m345450801
Lzl:_Predicate_1_BeginInvoke_m2559992383_gshared
f2b:__ZN9JSONWrite8TransferI10ColorRGBAfEEvRT_PKc17TransferMetaFlags
Ilc:__ZN5physx3Cct26CharacterControllerManager16createControllerERKNS_16PxControllerDescE
Jbm:_AttrListImpl__ctor_m2493267160
eQ:__Z25scripting_method_get_name18ScriptingMethodPtr
kRh:_XmlAttribute_get_BaseURI_m916085959
Ldb:__Z19TransferField_ArrayI14SafeBinaryRead16Converter_StringEvRK23StaticTransferFieldInfoR31RuntimeSerializationCommandInfoRT0_
r7f:_FacetsCompiler__cctor_m3660070498
ybk:_Enumerator_System_Collections_IEnumerator_Reset_m334979145_AdjustorThunk
lth:_Array_QSortArrange_TisUInt16_t986882611_m2974174467_gshared
Dsj:_MonoTlsSettings_set_EnabledProtocols_m2873413583
aGo:__ZL87MoveNextRunner_t781250562_CustomAttributesCacheGenerator_MoveNextRunner_Run_m4047137913P21CustomAttributesCache
spp:_rename
X4j:_KeyValuePair_2_get_Value_m2664822910_AdjustorThunk
Lln:_GC_exit_check
g3n:__Z86RuntimeInvoker_Void_t1841601450_Int32_t2071877448_InternalCodePageDataItem_t1742109366PFvvEPK10MethodInfoPvPS4_
yXi:_IsolatedStoragePermission__ctor_m491345231
sYi:_NotSupportedException__ctor_m3232764727
VGj:_TypeConverterAttribute_Equals_m2330345916
PEl:_Task_1__ctor_m1030422093_gshared
v_d:_U3CU3Ec__DisplayClass0_0__ctor_m1740297376
Qtp:__ZNKSt3__220__time_get_c_storageIwE7__weeksEv
FO:__Z20UnlockObjectCreationv
eTk:_ObjectEqualityComparer_1_GetHashCode_m2256411726_gshared
Nok:_List_1_AsReadOnly_m1170707344_gshared
Ysl:_InternalEnumerator_1_System_Collections_IEnumerator_get_Current_m1038263751_gshared
fXn:__Z54RuntimeInvoker_Int32_t2071877448_LayerMask_t3188175821PFvvEPK10MethodInfoPvPS4_
E9e:_DateTime_ToString_m1117481977
Bii:_MemoryStream__ctor_m153052217
cHj:_TypeDescriptionProvider_GetTypeDescriptor_m4015807399
ncb:__ZN15SerializeTraitsI13dynamic_arrayIyLj8EEE19ResizeSTLStyleArrayERS1_i
eMb:__ZNSt3__26vectorINS_4pairIN4core12basic_stringIcNS2_20StringStorageDefaultIcEEEES6_EE13stl_allocatorIS7_L18MemLabelIdentifier38ELi16EEE6insertENS_11__wrap_iterIPKS7_EERSD_
Noh:_Array_InternalArray__ICollection_Contains_TisEntry_t3655379380_m2690852224_gshared
qnk:_List_1_Reverse_m704388499_gshared
V2d:_XmlNodeReader_get_NodeType_m1582573794
iWd:_XmlLinkedNode__ctor_m1176905295
CTd:__ZNK14TransportProtoI12HeaderHelper15DownloadHandler13UploadHandler14ResponseHelperE13IsSynchronousEv
c8i:_GenericTypeParameterBuilder_GetGenericArguments_m277381309
sbh:_SimpleAsyncResult_DoCallback_internal_m87373959
xf:_emscripten_glStencilOpSeparate
z$l:_MonoTODOAttribute__ctor_m1940477654
PFg:_String_Concat_m2000667605
Nhi:_Stream_BlockingBeginWrite_m2913653423
dCf:_AsyncTaskMethodBuilder_AwaitUnsafeOnCompleted_TisConfiguredTaskAwaiter_t4260217988_TisU3CWriteAsyncInternalU3Ed__37_t1508048495_m3887933255_gshared
g0e:_SyncSortedList_GetKeyList_m4130086287
egn:__ZN6il2cpp2vm6String8NewUtf16EPKDsi
_dp:__ZL61Tile_t429716126_CustomAttributesCacheGenerator_m_ColliderTypeP21CustomAttributesCache
Tbn:__ZN6il2cpp2os10ThreadImpl12QueueUserAPCEPFvPvES2_
Dyp:__ZNSt3__211__call_onceERVmPvPFvS2_E
bt:__Z32TransferEnumWithNameForceIntSizeI14SafeBinaryReadN10SampleClip17CompressionFormatEEvRT_RT0_PKc17TransferMetaFlags
pPd:__ZN22BaseUnityConnectClient10QueueEventERN11UnityEngine15CloudWebService17CloudServiceEventEPKcjb
onc:__ZN5physx12PxControllerD2Ev
r_i:_Number_MatchChars_m3816506012
WHk:_HttpWebRequest_set_Method_m1117396597
LNo:__ZL114DecoderFallbackBuffer_t4206371382_CustomAttributesCacheGenerator_DecoderFallbackBuffer_InternalFallback_m453290819P21CustomAttributesCache
iic:__ZNK5physx2Gu15HeightFieldUtil12traceSegmentI25CapsuleTraceSegmentReportLb0ELb0ELb1EEEvRKNS_6PxVec3ES6_PT_PS5_
iyn:__Z50RuntimeInvoker_Int32_t2071877448_Int16_t4041245914PFvvEPK10MethodInfoPvPS4_
Yuk:_ManifestResourceInfo_get_FileName_m1172180328
PKm:__Z17worker_try_unparkv
i7k:_ReadOnlyCollection_1_System_Collections_Generic_IListU3CTU3E_set_Item_m607502826_gshared
Eze:_XmlSchemaException__ctor_m714289565
Mid:__ZN5physx10PxsContext23prepareCMDiscreteUpdateEPNS_10PxBaseTaskE
gQe:_BitConverter_ToInt64_m1329623425
BRb:__ZN8RendererC2E12RendererType18MemLabelIdentifier18ObjectCreationMode
zcg:_RuntimeClassHandle_get_Value_m855606433_AdjustorThunk
$Mo:__ZL95ASCIIEncoding_t3022927988_CustomAttributesCacheGenerator_ASCIIEncoding_GetByteCount_m1396020051P21CustomAttributesCache
V1o:__ZL56DnsType_t1822475631_CustomAttributesCacheGenerator_MAILBP21CustomAttributesCache
tao:__ZL72RuntimeArray_CustomAttributesCacheGenerator_Array_LastIndexOf_m229510321P21CustomAttributesCache
hFc:__ZN5physx6shdfnd5ArrayIPvNS0_19ReflectionAllocatorINS_2Cm5BlockIhLj256EEEEEE4copyINS0_15InlineAllocatorILj256ES7_EEEEvRKNS1_IS2_T_EE
atp:__ZNSt3__28time_getIcNS_19istreambuf_iteratorIcNS_11char_traitsIcEEEEED2Ev
l6m:__ZN14dense_hash_setI10KeyWrapperIP18Il2CppGenericClassEN6il2cpp8metadata22Il2CppGenericClassHashENS3_14EqualsComparerINS5_25Il2CppGenericClassCompareEEENSt3__29allocatorIS3_EEE6insertERKS3_
Qf:_emscripten_glGetError
YTm:__ZN15dense_hashtableINSt3__24pairIK10KeyWrapperIPK14Il2CppAssemblyEPK22Il2CppMonoAssemblyNameEES6_N6il2cpp5utils11PointerHashIS4_EEN14dense_hash_mapIS6_SA_SF_NS6_14EqualsComparerINS0_8equal_toIS5_EEEENS0_9allocatorISB_EEE9SelectKeyESK_SM_E14squash_deletedEv
Rsl:_InternalEnumerator_1__ctor_m3726334735_AdjustorThunk
Vw:__Z14FMOD_FILE_SeekPvjS_
I9n:__ZL56AppDomainSetup_t611332832_CustomAttributesCacheGeneratorP21CustomAttributesCache
_dj:_MethodCall_get_Properties_m1893707917
tjo:__ZL72Enum_t2459695545_CustomAttributesCacheGenerator_Enum_ToObject_m604645223P21CustomAttributesCache
NIc:__ZN5physx6shdfnd8PoolBaseINS_11NpAggregateENS0_19ReflectionAllocatorIS2_EEE15disposeElementsEv
t2f:_Datatype_positiveInteger__cctor_m241105531
U9n:__ZL82RuntimeArray_CustomAttributesCacheGenerator_Array_SetValue_m2421438042____indices1P21CustomAttributesCache
_Vl:_ElementMap__ctor_m2348370310
VMd:__Z56Register_UnityEngine_Analytics_CustomEventData_AddStringv
FEk:_Win32Resource_get_ResourceType_m958784328
vJb:__ZNK13RenderTexture32CalculateNeedsInvertedProjectionEv
bmc:__ZN5physx2Gu17RadixSortBuffered4SortEPKfj
Yf:emscriptenWebGLGet
xS:__Z19CanReplaceComponentRN5Unity9ComponentEPKNS_4TypeEPN4core12basic_stringIcNS5_20StringStorageDefaultIcEEEE
qPk:_List_1_RemoveAll_m1684413949_gshared
_Rg:_CancellationTokenSource_InternalRegister_m1927496147
Vao:__ZL77RuntimeArray_CustomAttributesCacheGenerator_Array_ConstrainedCopy_m1922927602P21CustomAttributesCache
KSb:__ZN12CubemapArray11InitTextureEiii13TextureFormatb
h8:__ZN6prcoreL18BlitIntegerToFloatERK14ImageReferenceRS0_
Y6d:_XmlSignificantWhitespace_CloneNode_m3066899678
yYb:__Z17GetSceneBuildInfoRKN4core12basic_stringIcNS_20StringStorageDefaultIcEEEEiR14SceneBuildInfo
qAi:_Enumerator_System_Collections_IEnumerator_Reset_m174516854_gshared
Faf:_DateTimeFormat_InvalidFormatForUtc_m1590184550
Wnp:_exp2f
Lpa:__ZNK15Lz4Decompressor20DecompressStreamInitEPPv
PQm:__ZN24dense_hashtable_iteratorINSt3__24pairIK10KeyWrapperIPK10Il2CppTypeEjEES6_N6il2cpp8metadata14Il2CppTypeHashEN14dense_hash_mapIS6_jSB_NS6_14EqualsComparerINSA_26Il2CppTypeEqualityComparerEEENS0_9allocatorIS8_EEE9SelectKeyESF_SH_E30advance_past_empty_and_deletedEv
g6k:_ReadOnlyCollection_1_System_Collections_ICollection_CopyTo_m3636505861_gshared
uYl:_ConfigurationPermission_IsSubsetOf_m1751013986
Ezk:_MonoProperty_GetConstantValue_m2432344360
Tyk:_MonoMethodInfo_t3646562144_marshal_pinvoke_cleanup
Cmh:_X509Certificate2_get_SignatureAlgorithm_m3069898012
O8m:__ZN6il2cpp2os6Socket15SetSocketOptionENS0_17SocketOptionLevelENS0_16SocketOptionNameEi
wHk:_HttpRequestCreator__ctor_m2513916021
DKl:_Dictionary_2_System_Collections_IDictionary_Remove_m189853969_gshared
Cee:_XmlTextWriter_AutoCompleteAll_m1448738509
Taj:_ModuleBuilderTokenGenerator_GetToken_m1429572107
yOo:__ZL90Encoding_t663144255_CustomAttributesCacheGenerator_Encoding_ThrowCharsOverflow_m3832405584P21CustomAttributesCache
b8h:_CFHelpers_CFRetain_m4015979986
mDb:__ZL24AssignProjectorQueuesJobP30AssignProjectorQueuesJobHeader
b8g:_Compiler_CompileComplexContentExtension_m714190922
Xul:_InternalEnumerator_1_get_Current_m466738280_gshared
fYh:_TimeSpan_get_Hours_m3804628138
N_k:_ReadOnlyCollection_1__ctor_m772567624_gshared
Iyk:_MonoMethod_GetGenericArguments_m1043327523
Z4o:__ZL121ConfigurationException_t3814184945_CustomAttributesCacheGenerator_ConfigurationException_GetXmlNodeLineNumber_m3219878065P21CustomAttributesCache
Ywk:_MonoCMethod_InternalInvoke_m1592653849
n0l:_ConfiguredTaskAwaiter_UnsafeOnCompleted_m952575603
kFe:_Regex__ctor_m3250610064
XDm:__ZN15dense_hashtableINSt3__24pairIK10KeyWrapperIN6il2cpp5utils13dynamic_arrayIPK10Il2CppTypeLj4EEEEPFvvEEESA_NS3_8metadata19Il2CppSignatureHashEN14dense_hash_mapISA_SD_SG_NSA_14EqualsComparerINSF_22Il2CppSignatureCompareEEENS0_9allocatorISE_EEE9SelectKeyESK_SM_E4swapERSP_
QVh:_ThreadPool_RegisterWaitForSingleObject_m3133782998
BLj:_TraceUtils_VerifyAttributes_m3781000068
L4a:__ZN9ShaderLab20SerializedSubProgram14SetConstBufferEPKci
Zpg:_ArgumentNullException__ctor_m911049464
pQi:_RSA_DerivedClassMustOverride_m3289290978
LJd:__ZN13PhysicsModule17SetRigidBodyStateER9RigidbodyRKN8IPhysics14RigidBodyStateE
eln:_GC_printf
K_g:_XPathNode_get_Document_m309570694_AdjustorThunk
YFe:_RegexCharClass_ParseRecursive_m2451478917
cNf:_EventHandler_BeginInvoke_m3027583606
eio:__ZL81Decimal_t724701077_CustomAttributesCacheGenerator_Decimal_FCallCompare_m784007269P21CustomAttributesCache
OJ:__Z40DebugStringToFilePostprocessedStacktraceRK21DebugStringToFileData
O9c:__ZN5physx2Sq12BucketPruner11shiftOriginERKNS_6PxVec3E
T6b:__Z29Transfer_Blittable_ArrayFieldI8JSONReadjEvRT_R9ArrayInfoRK23StaticTransferFieldInfo
csi:_InternalEnumerator_1__ctor_m3220229132_AdjustorThunk
LGi:_ValueCollection_GetEnumerator_m379930731_gshared
gvc:__ZN5physx6shdfnd5ArrayIPNS_2Sc16ArticulationCoreENS0_19ReflectionAllocatorIS4_EEE15growAndPushBackERKS4_
t6l:_ContextAttribute__ctor_m4006843177
kul:_InternalEnumerator_1_get_Current_m314017974_AdjustorThunk
kOo:__ZL85Encoding_t663144255_CustomAttributesCacheGenerator_Encoding_OnSerializing_m2189775467P21CustomAttributesCache
Hg:__setLetterbox
rwe:_XmlSchemaAny_get_NamespaceList_m3358113161
fHa:__ZNSt3__26__treeINS_12__value_typeIN9ShaderLab16FastPropertyNameEfEENS_19__map_value_compareIS3_S4_NS_4lessIS3_EELb1EEENS_9allocatorIS4_EEE12__find_equalIS3_EERPNS_16__tree_node_baseIPvEENS_21__tree_const_iteratorIS4_PNS_11__tree_nodeIS4_SE_EEiEESH_RKT_
bLn:__Z94RuntimeInvoker_Void_t1841601450_RuntimeObject_SByte_t454417549_RuntimeObject_Int32_t2071877448PFvvEPK10MethodInfoPvPS4_
ipd:__ZN5physx19normalizePartitionsERNS_6shdfnd5ArrayIjNS0_19ReflectionAllocatorIjEEEEPNS_23PxcSolverConstraintDescEPKNS_13PxcSolverBodyEjjS5_
Dcg:_RuntimeClassHandle_GetHashCode_m505384228_AdjustorThunk
S8e:_DateTimeParse_TryParseQuoteString_m4067948436
GRf:_CultureInfo_get_EnglishName_m1797390079
U5d:_XmlReader_get_NamespaceManager_m3261501322
TVi:_PermissionBuilder__cctor_m4211719202
Fgf:__ZN21InterfaceFuncInvoker3IP12Il2CppObjectP6Type_t28StreamingContext_t1417235061PS1_E6InvokeEjP11Il2CppClassS1_S3_S4_S5_
alp:_Map_IsFlagged_m4091685121
e3g:__ZN21InterfaceFuncInvoker2IbPP12Il2CppObjectPiE6InvokeEjP11Il2CppClassS1_S2_S3_
qRa:__ZNSt3__26vectorI17BlendShapeChannelNS_9allocatorIS1_EEE6assignINS_11__wrap_iterIPS1_EEEENS_9enable_ifIXaasr21__is_forward_iteratorIT_EE5valuesr16is_constructibleIS1_NS_15iterator_traitsISA_E9referenceEEE5valueEvE4typeESA_SA_
Dub:__Z12SetGfxDeviceP9GfxDevice
TAk:_RtFieldInfo_CheckConsistency_m1685123040
Hwe:_XmlSchemaAppInfo_set_Source_m2291840139
Qkh:_AsnEncodedData_ToString_m724151831
N_j:__ZN21InterfaceFuncInvoker0IP31AuthenticatedStream_t1183414097E6InvokeEjP11Il2CppClassP12Il2CppObject
gOb:__ZN11TimeManager11GetRealtimeEv
Nco:__ZL94RuntimeType_t2836228502_CustomAttributesCacheGenerator_RuntimeType_IsInstanceOfType_m259441519P21CustomAttributesCache
ggg:_KeyPairPersistence_get_Filename_m152060602
hJh:_XmlUntypedConverter_ToDateTimeOffset_m2360957157
Pqc:__ZN5physx2Sc16InteractionScene25removeFromActiveActorListERNS0_5ActorE
NGm:__ZN6il2cpp6icalls6System6System3Net7Sockets6Socket4BindEiP19Il2CppSocketAddressPi
nx:__ZN29AudioEffectInternalDefinitionC2EP26UnityAudioEffectDefinitionb
ixk:_MonoMethodInfo_GetDeclaringType_m4186531677
mxi:_Enumerator_System_Collections_IDictionaryEnumerator_get_Key_m4126695840_gshared
knc:__ZN5physx3Ext21InertiaTensorComputer6rotateERKNS_7PxMat33E
vdp:__ZL80Physics_t634932869_CustomAttributesCacheGenerator_Physics_RaycastAll_m2162315544P21CustomAttributesCache
xye:_XmlSchemaComplexType_get_LocalElements_m3406378866
x5h:_UInt64_ToString_m2892887310
ZOm:__ZNSt3__2plIcNS_11char_traitsIcEENS_9allocatorIcEEEENS_12basic_stringIT_T0_T1_EERKS9_PKS6_
xkl:_InternalEnumerator_1_System_Collections_IEnumerator_get_Current_m1022229408_AdjustorThunk
ntl:_InternalEnumerator_1_get_Current_m1643772188_gshared
W1e:_ConsoleKeyInfo_Equals_m462812356_AdjustorThunk
nod:__ZN5physx22PxcDiscreteNarrowPhaseERNS_18PxcNpThreadContextERNS_13PxcNpWorkUnitE
TMl:_Dictionary_2_Resize_m3691588283_gshared
Q6:_stbir_resize
$rh:_Array_InternalArray__ICollection_Remove_TisVirtualAttribute_t2854289803_m3738473553_gshared
Oen:__ZN15dense_hashtableINSt3__24pairIK10KeyWrapperIPK19Il2CppGenericMethodEP10MethodInfoEES6_N6il2cpp8metadata23Il2CppGenericMethodHashEN14dense_hash_mapIS6_S9_SD_NS6_14EqualsComparerINSC_26Il2CppGenericMethodCompareEEENS0_9allocatorISA_EEE9SelectKeyESH_SJ_EC2ERKSM_j
nyg:_DefaultPolicies_get_Execution_m3690761490
ese:_XmlBaseConverter_ToBoolean_m2757976660
gPe:_UriBuilder_get_Uri_m1365242951
zSa:__ZN4PPtrI4MeshE8TransferI14SafeBinaryReadEEvRT_
Mjd:__ZN5physx23PxcPCMContactCapsuleBoxERKNS_2Gu13GeometryUnionES3_RKNS_11PxTransformES6_RKfRNS_10PxcNpCacheERNS0_13ContactBufferE
wXd:_XmlDocument_get_DocumentType_m3596136406
Noa:__Z37ReadDirectoryInfo_UnityWebAndUnityRawR12FileAccessorRKN20ArchiveStorageHeader6HeaderERNS1_13DirectoryInfoE
xuh:_Array_InternalArray__IEnumerable_GetEnumerator_TisInt64_t909078037_m1219751804_gshared
QM:__ZNSt3__26__treeINS_12__value_typeIPKciEENS_19__map_value_compareIS3_S4_15compare_tstringIS3_ELb1EEENS_9allocatorIS4_EEE7destroyEPNS_11__tree_nodeIS4_PvEE
_bo:__ZL96RuntimeTypeHandle_t2330101084_CustomAttributesCacheGenerator_RuntimeTypeHandle_Equals_m452760426P21CustomAttributesCache
cXg:_AwaitTaskContinuation__ctor_m2283942602
Naj:_ModuleBuilder_ResolveMethod_m1549523811
VQj:_HttpWebRequestElement_get_Properties_m1620527254
Kxp:__ZNSt3__26locale5__imp7installINS_5ctypeIcEEEEvPT_
TWk:_Queue_1_Clear_m3279588542_gshared
IMj:_DeflateStreamNative_ReadZStream_m4174527818
VPd:__ZN13dynamic_arrayIN4core12basic_stringIcNS0_20StringStorageDefaultIcEEEELj4EE6assignEPKS4_S7_
gna:__ZN15dense_hashtableINSt3__24pairIKN4core12basic_stringIcNS2_20StringStorageDefaultIcEEEEP20ArchiveStorageReaderEES6_20StringHash32FunctionIS6_EN14dense_hash_mapIS6_S9_SC_NS0_8equal_toIS6_EE13stl_allocatorISA_L18MemLabelIdentifier55ELi16EEE9SelectKeyESF_SI_E5clearEv
X$n:__Z109RuntimeInvoker_Int32_t2071877448_RuntimeObject_DateTimeOffset_t1362988906_Int32_t2071877448_Int32_t2071877448PFvvEPK10MethodInfoPvPS4_
S3m:__ZN6il2cpp2vm12ReboxIfBoxedEP14Il2CppIUnknownP11Il2CppClass
Grb:__ZN25PathNamePersistentManagerD2Ev
yO:__ZN17PersistentManager48IntegrateObjectAndUnlockIntegrationMutexInternalEi
vrj:_PKCS1_CreateFromOid_m2086388228
Hak:_Enumerator_Dispose_m3971230368_AdjustorThunk
rKo:__ZL112TypeBuilder_t3308873219_CustomAttributesCacheGenerator_TypeBuilder_MakeGenericType_m4282022646____typeArguments0P21CustomAttributesCache
RY:__ZZ29InitializeSortingGroupManagerPvEN44PostLateUpdateSortingGroupsUpdateRegistrator7ForwardEv
Hkl:_InternalEnumerator_1_System_Collections_IEnumerator_get_Current_m671356740_AdjustorThunk
$Hk:_HttpWebRequest_get_RequestUri_m458351293
Sp:__ZN6Object12SetHideFlagsENS_9HideFlagsE
Lbo:__ZL77NumberFormatter_t2933946347_CustomAttributesCacheGenerator_userFormatProviderP21CustomAttributesCache
cEd:__ZN9Rigidbody23VirtualRedirectTransferER14SafeBinaryRead
$Fp:_emscripten_glGetFramebufferAttachmentParameteriv__wrapper
lxb:__ZN13RendererScene15InitializeUmbraEv
pAf:_Array_Sort_TisUInt64_t2909196914_m3734038263_gshared
YAa:__Z28CalculateGlobalMatrixInverse23TransformAccessReadOnly
E$k:_ReadOnlyCollection_1_System_Collections_Generic_ICollectionU3CTU3E_Clear_m1093083956_gshared
$vo:__ZL60SecurityAttribute_t2016950496_CustomAttributesCacheGeneratorP21CustomAttributesCache
Lcf:_Decimal__ctor_m569480123
qnp:___ctype_toupper_loc
YTe:_Char_System_IConvertible_ToChar_m1489061093_AdjustorThunk
NPg:_UTF7Encoding_GetCharCount_m2589913583
NBk:_TargetInvocationException__ctor_m964131608
fTc:__ZNK5physx15PxsParticleData15getWorldBoundsVEv
mCd:__ZN15CapsuleCollider13AwakeFromLoadE17AwakeFromLoadMode
YKn:__Z69RuntimeInvoker_VoidTaskResult_t3325310798_RuntimeObject_RuntimeObjectPFvvEPK10MethodInfoPvPS4_
VJm:_AnalyticsSessionInfo_CallSessionStateChanged_m2293069762
z2g:_DtdParser_ScanNameExpected_m2764844612
Ivg:_UIPermission_IsUnrestricted_m3807039400
gjc:__ZN12_GLOBAL__N_124HfTrianglesEntityReport27onEventEjPj
WRl:_GenericEqualityComparer_1_GetHashCode_m2277727843_gshared
FVc:__ZN5physx22NpParticleBaseTemplateINS_16PxParticleSystemENS_16NpParticleSystemEE17setStaticFrictionEf
_ll:_InternalEnumerator_1_Dispose_m318835130_AdjustorThunk
Mqf:_RuntimeTypeHandle_GetAssembly_m2468124673
QEj:_PropertyDescriptorCollection_System_Collections_IList_Clear_m1762837225
EYh:_TimeSpan_Equals_m4102942751_AdjustorThunk
BIh:_XmlSchemaValidationException__ctor_m3535019702
aGi:_ValueCollection_get_Count_m2124606171_gshared
EFi:_ValueCollection_System_Collections_Generic_ICollectionU3CTValueU3E_Add_m1903672223_gshared
gEc:__ZN5physx17PxsContactManager16resetCachedStateEv
EYf:_FormatLiterals_get_MinuteSecondSep_m2293599088_AdjustorThunk
SSd:__ZN12HeaderHelper14SetUnvalidatedERKN4core12basic_stringIcNS0_20StringStorageDefaultIcEEEES6_b
ot:__ZN4FMOD6SoundI7releaseEv
oIk:_HttpWebRequest_EndGetResponse_m2310834408
cYc:__ZN5physx20NpRigidActorTemplateINS_14PxRigidDynamicEE15setActorSimFlagEb
Z9n:__ZL70RuntimeArray_CustomAttributesCacheGenerator_Array_SetValue_m1489959987P21CustomAttributesCache
MRk:_ObjectComparer_1__ctor_m3311207050_gshared
bwp:__ZNKSt3__27codecvtIDic11__mbstate_tE5do_inERS1_PKcS5_RS5_PDiS7_RS7_
yMj:_InvariantComparer_Compare_m2858797001
r4g:_ReadContentAsBinaryHelper_MoveToNextContentNode_m373347940
ppa:__ZN10MemoryFile9SetLengthEy
D3h:_UInt16_ToString_m2038947049_AdjustorThunk
xhb:__ZN5RectTIiE8TransferI24GenerateTypeTreeTransferEEvRT_
Glc:__ZNK5physx3Cct26CharacterControllerManager16getNbControllersEv
Fqb:__Z28scripting_class_is_interface17ScriptingClassPtr
_h:_glTexStorage2D
noi:_LocalDataStoreMgr_ValidateSlot_m1221361714
xYj:_DnsPacket_WriteUInt16_m147641688
Z0f:_Datatype_int__ctor_m1010091834
hOi:_U3CU3Ec_U3C_ctorU3Eb__2_3_m744006585
bFa:__ZNK9ShaderLab10SubProgram14EnsureCompiledEv
WJi:_Dictionary_2__ctor_m3517987906_gshared
Pmf:_ObjectManager_RecordFixup_m3572285566
Kke:_SchemaElementDecl_System_Xml_IDtdAttributeListInfo_LookupAttribute_m2211538490
FSo:__ZL55DaylightTime_t3800227331_CustomAttributesCacheGeneratorP21CustomAttributesCache
rGd:__ZN5physx7profile10DataBufferINS_6shdfnd6MutexTINS0_26WrapperReflectionAllocatorIhEEEENS0_14ScopedLockImplIS6_EEE17handleBufferFlushEPKhj
_mi:_U3CU3Ec__ctor_m3606582927
WP:__Z18BuildScriptClassId17ScriptingClassPtr
inl:_InternalEnumerator_1_get_Current_m4279678504_AdjustorThunk
Qnj:___BinaryWriter_WriteAssembly_m3791377533
Enp:_fmodl
Vq:__ZNK16LevelGameManager7GetNameEv
jWi:_EnvironmentPermissionAttribute_set_Read_m304808546
Lie:_XmlSchemaException_get_LineNumber_m1376100699
c9i:_ILTokenInfo_t149559338_marshal_pinvoke_cleanup
n1k:_ReadOnlyCollection_1_System_Collections_Generic_IListU3CTU3E_get_Item_m1664093447_gshared
bEe:_ExclusiveReference_Get_m3402132937
hoa:__ZL31DeleteLastPathNameComponentImplRKN4core12basic_stringIcNS_20StringStorageDefaultIcEEEEPKc
uPb:__Z13RegisterClassI18DelayedCallManagerEvv
DPd:__ZN18UnityConnectClient15GetCloudServiceEv
bdb:__Z29Transfer_Blittable_ArrayFieldI14SafeBinaryRead5RectTIiEEvRT_R9ArrayInfoRK23StaticTransferFieldInfo
Vrd:__ZN5physx20PxsConstraintProjectEPKNS_13PxsConstraintEbf
NLc:__ZN5physx7NpShape7setFlagENS_11PxShapeFlag4EnumEb
KGm:__ZN6il2cpp2os19SocketHandleWrapperD2Ev
lPk:_List_1_Insert_m1431397495_gshared
zqb:__ZL28SerializationCommandGroupForRK31TransferFunctionScriptingTraits17ScriptingClassPtr17ScriptingFieldPtrRK20CoreScriptingClasses
qsa:__ZN10TagManager32RegisterDefaultTagsAndLayerMasksEv
GRj:_WebRequestModuleElementCollection__ctor_m2554518849
MSf:_DateTimeFormatInfo_get_UnclonedShortTimePatterns_m2918634910
AGi:_ValueCollection_get_Count_m4142113966_gshared
Snd:__ZN5physx2Sc35ParticleElementRbElementInteraction12onDeactivateEj
fzm:__ZN6il2cpp2vm5Class20GetBoundedArrayClassEP11Il2CppClassjb
WWg:_SynchronizationLockException__ctor_m549086841
Gio:__ZL81Decimal_t724701077_CustomAttributesCacheGenerator_Decimal_op_Addition_m3630245203P21CustomAttributesCache
oRo:__ZL50SortKey_t1270563137_CustomAttributesCacheGeneratorP21CustomAttributesCache
bNd:__Z56Register_UnityEngine_Analytics_CustomEventData_AddUInt32v
BVe:_ArrayList_InsertRange_m1478230997
ahl:_InternalEnumerator_1_MoveNext_m1979432532_AdjustorThunk
MVi:_NamedPermissionSet_GetHashCode_m55865882
c3:__ZN4gles8InitCapsEP7ApiGLESP12GraphicsCapsR16GfxDeviceLevelGL
R8f:_Numeric10FacetsChecker_CheckValueFacets_m287844321
i7:__ZN6prcore14BlitImageFloatERK14ImageReferenceRS0_NS0_8BlitModeE
W3o:__ZL97Socket_t3821512045_CustomAttributesCacheGenerator_Socket_t3821512045____SupportsIPv4_PropertyInfoP21CustomAttributesCache
n6o:__ZL60ReadOnlyAttribute_t4102148880_CustomAttributesCacheGeneratorP21CustomAttributesCache
zya:__Z24CalculateVertexLightDataRK15SharedLightDataR14GfxVertexLight
fbk:_Enumerator_MoveNextRare_m627598676_gshared
Ii:_glEnable
b$a:__ZN15dense_hashtableINSt3__24pairIKiiEEi21InstanceIDHashFunctorN14dense_hash_mapIiiS4_NS0_8equal_toIiEE13stl_allocatorIS3_L18MemLabelIdentifier1ELi16EEE9SelectKeyES7_SA_E12maybe_shrinkEv
t1l:_ComCompatibleVersionAttribute__ctor_m406675643
ZEa:__ZNK9ShaderLab7Program28BeginReadUnsupportedVariantsEv
Wyb:__ZNK25CameraStackRenderingState21GetImageEffectTextureEb
fnp:___towrite
Uof:_RuntimeMethodHandle__ctor_m2437574937_AdjustorThunk
oYa:__ZNSt3__26vectorIN30RuntimeInitializeOnLoadManager9ClassInfoE13stl_allocatorIS2_L18MemLabelIdentifier13ELi16EEE7reserveEj
y5c:__ZN5physx2Sq8AABBTreeC2Ev
N9n:__ZL72RuntimeArray_CustomAttributesCacheGenerator_Array_get_Length_m1498215565P21CustomAttributesCache
s2b:__Z35Transfer_Blittable_FixedBufferFieldI9JSONWriteiEvRK29SerializationCommandArgumentsR31RuntimeSerializationCommandInfo
c4h:_UInt16_System_IConvertible_ToInt64_m2835280558_AdjustorThunk
sGn:__Z95RuntimeInvoker_Void_t1841601450_Int32_t2071877448_RuntimeObject_RuntimeObject_Int32_t2071877448PFvvEPK10MethodInfoPvPS4_
k9e:_DateTimeFormat_ParseRepeatPattern_m2709337529
tUj:_FileWebRequest_get_Credentials_m1452733518
WUm:__ZN14dense_hash_mapI10KeyWrapperINSt3__24pairIPK10MethodInfoP11Il2CppClassEEEj17ReflectionMapHashIS8_ENS9_14EqualsComparerINS1_8equal_toIS8_EEEENS1_9allocatorINS2_IKS9_jEEEEEC2EjRKSB_RKSF_
B5k:_ReadOnlyCollection_1_System_Collections_ICollection_get_SyncRoot_m3224010903_gshared
MBo:__ZL85ObjectWriter_t4293742132_CustomAttributesCacheGenerator_ObjectWriter_Write_m995676541P21CustomAttributesCache
L2i:_AssemblyName_get_Name_m1815759940
vBl:_AsyncTaskMethodBuilder_1_GetTaskForResult_m1442674425_gshared
vIh:_XmlSchemaType_get_NameAttribute_m377031217
uoo:__ZL63KeyNotFoundException_t1722175009_CustomAttributesCacheGeneratorP21CustomAttributesCache
i2e:_Convert_ToBoolean_m2188088811
dOd:__ZN11UnityEngine7Connect15DeviceInfoEvent16CollectExtraInfoEv
din:__ZN6il2cpp2os11Environment22SetEnvironmentVariableERKNSt3__212basic_stringIcNS2_11char_traitsIcEENS2_9allocatorIcEEEESA_
WZg:_Task__cctor_m838841393
Epk:_List_1_System_Collections_IList_get_Item_m3205596697_gshared
Xud:__ZN5physx2Gu10ConvexMeshD2Ev
FOg:_UnicodeEncoding_GetChars_m3765282346
Lwe:_XmlSchemaAttribute_set_FixedValue_m3983117760
kHl:_Tuple_2_Equals_m248290730_gshared
PTm:__ZN6il2cpp2gc19AppendOnlyGCHashMapIPK10Il2CppTypeP20Il2CppReflectionTypeNS_8metadata14Il2CppTypeHashENS7_26Il2CppTypeEqualityComparerEEC2Ev
zcj:_Lease_Unregister_m3231982373
zwl:_InternalEnumerator_1_System_Collections_IEnumerator_get_Current_m771161214_AdjustorThunk
upp:_atoi
kqa:__ZN20ArchiveStorageReader10InitializeER15FileSystemEntryyb
vpp:_atol
Xon:__ZN6il2cpp5utils7Runtime10SetDataDirEPKc
Btf:_Aes_Create_m3450546319
M4e:_Convert_ToDouble_m4236754739
Yyj:_SslClientStream_get_PrivateKeyCertSelectionDelegate_m3715949545
D6h:_UnitySerializationHolder_MakeElementTypes_m858790638
ZBm:__ZN15dense_hashtableINSt3__24pairIK10KeyWrapperIPKcEP11Il2CppClassEES5_N6il2cpp5utils11StringUtils12StringHasherIS4_EEN14dense_hash_mapIS5_S8_SE_NS5_14EqualsComparerINSB_13VmStringUtils21CaseSensitiveComparerEEENS0_9allocatorIS9_EEE9SelectKeyESJ_SL_EC2EjRKSE_RKSJ_RKSN_
qMf:_EnumResult_Init_m3428816480_AdjustorThunk
hGp:_emscripten_glScissor__wrapper
boo:__ZL48Stack_t1043988394_CustomAttributesCacheGeneratorP21CustomAttributesCache
sfk:_List_1_System_Collections_IList_get_IsReadOnly_m862893826_gshared
Zo:FUNCTION_TABLE_viifi
EBg:_StringMaker_CompareStringAndChars_m3848346844
s$h:_AdjustmentRule_get_DaylightTransitionEnd_m64205179
_oc:__ZNK5physx2Sc8ShapeSim10getBodySimEv
SIk:_HttpWebRequest_U3CSetWriteStreamU3Eb__261_0_m2105467703
IEl:_Task_1_TrySetCanceled_m1998444381_gshared
uxk:_MonoEvent_GetAddMethod_m4289563120
$rf:_RuntimeType_CreateInstanceDefaultCtor_m966155858
qHi:_Dictionary_2_get_Count_m4171333731_gshared
seo:__ZL37Type_t_CustomAttributesCacheGeneratorP21CustomAttributesCache
xrp:__ZNKSt3__26locale5__imp9use_facetEl
FLg:_DefaultEncoder_GetByteCount_m421523473
GWm:__ZN15dense_hashtableINSt3__24pairIK10KeyWrapperINS1_IP11Il2CppClassjEEES4_EES6_N6il2cpp8metadata14ArrayClassHashEN14dense_hash_mapIS6_S4_SB_NS6_14EqualsComparerINSA_17ArrayClassCompareEEENS0_9allocatorIS8_EEE9SelectKeyESF_SH_E5clearEv
wBm:__ZNSt3__218uninitialized_copyIPNS_4pairIK10KeyWrapperIPK11Il2CppClassEPKcEESB_EET0_T_SD_SC_
ENm:__ZN6il2cpp2vm14TypeNameParser5ParseEb
h0o:__ZL107ProviderSettings_t873049714_CustomAttributesCacheGenerator_ProviderSettings_t873049714____Type_PropertyInfoP21CustomAttributesCache
Rln:_GC_check_finalizer_nested
P8k:_ReadOnlyCollection_1_get_Item_m1150767467_gshared
LZm:__ZN6il2cpp6icalls8mscorlib6System7Runtime15InteropServices7Marshal61PtrToStringAnsi_mscorlib_System_String_mscorlib_System_IntPtrEi
zep:__ZL120AnalyticsSessionInfo_t3981085264_CustomAttributesCacheGenerator_AnalyticsSessionInfo_CallSessionStateChanged_m2293069762P21CustomAttributesCache
lFc:__ZN5physx6shdfnd5ArrayIPvNS0_19ReflectionAllocatorINS_2Cm5BlockIhLj128EEEEEE15growAndPushBackERKS2_
fSd:__ZN23UnityPurchasingSettingsC2Ev
UJf:_Double_ToString_m1864290157
XSa:__ZNK9Transform13GetWorldScaleEv
Ule:_SchemaEntity_set_Pos_m4233725616
LFk:_FtpWebRequest_set_State_m2980238653
x8k:_ReadOnlyCollection_1_System_Collections_Generic_IListU3CTU3E_RemoveAt_m891916732_gshared
s5o:__ZL126SystemDiagnosticsSection_t2222033606_CustomAttributesCacheGenerator_SystemDiagnosticsSection_t2222033606____Trace_PropertyInfoP21CustomAttributesCache
nuc:__ZN5physx2Sc11Interaction10onActivateEj
Rhc:__ZNK5physx2Gu29EPASupportMapPairRelativeImplINS0_4BoxVENS0_11ConvexHullVEE6getDirEv
tMc:__ZN5physx14NpShapeManager15setupSceneQueryERNS_2Sq17SceneQueryManagerERKNS_12PxRigidActorERKNS_7NpShapeE
wJb:__ZL10RenderFaceR9GfxDeviceR18MaterialStateCacheP13RenderTextureiif
dip:_SpriteAtlasManager__cctor_m453260161
cQg:_Decoder_Reset_m2950677675
Frf:_RuntimeType_get_IsGenericTypeDefinition_m2435077166
nGk:_ProtocolViolationException__ctor_m1819718492
FMk:_Win32_FIXED_INFO_t1371335919_marshal_pinvoke_cleanup
W6:__ZL37stbir__resample_horizontal_downsampleP11stbir__infoiPf
w$a:__ZNK5Unity9Component38MarkGameObjectAndComponentDependenciesER27GarbageCollectorThreadState
YK:__ZL16OutOfMemoryErrorjj18MemLabelIdentifieriPKc
fFg:_String__ctor_m757966614
Ywc:__ZNK5physx2Sc9ClothCore23getExternalAccelerationEv
Luj:_RecordProtocol_SendRecord_m132002114
HA:__ZNK7Texture21GetShadowSamplingModeEv
vQ:__ZNK11TypeManager15ClassNameToRTTIEPKcb
PJm:__ZN6il2cpp6icalls8mscorlib6SystemL18GetNestedTypesImplINS_5utils10functional10TrueFilterEEEP11Il2CppArrayP20Il2CppReflectionTypeiRKT_
Vgc:__ZN5physx2Gu13coarseCullingERKNS_6PxVec3ES3_ffRKNS_10PxTriangleE
QHi:_Dictionary_2_TryGetValue_m2200444535_gshared
YNa:__ZN13ScreenManager21OnWindowRegainedFocusEv
Ynb:__Z18Transfer_BlittableI18StreamedBinaryReadILb0EELb1EdEvRK29SerializationCommandArgumentsR31RuntimeSerializationCommandInfo
q3k:_ReadOnlyCollection_1_IsCompatibleObject_m357838305_gshared
AHp:_emscripten_glVertexAttrib2fv__wrapper
YWd:_XmlDocument_CheckName_m41187224
bJf:_Guid__ctor_m2599802704
_gi:_FileStream_get_CanRead_m4148920720
bUd:__ZN13RuntimeStaticINSt3__26vectorIPN5physx15PxVehicleWheelsENS0_9allocatorIS4_EEEELb0EE13StaticDestroyEPv
sod:__ZN5physx2Sc5Scene29processNarrowPhaseTouchEventsEv
a6:__ZN4crnd12symbol_codec32decode_receive_static_data_modelERNS_25static_huffman_data_modelE
EOb:__ZN18ScriptingArguments8AddFloatEf
tUl:_Configuration_FindLocationConfiguration_m4081437406
C5f:_DtdValidator_Push_m3200054408
Mxn:__Z44RuntimeInvoker_RuntimeTypeHandle_t2330101084PFvvEPK10MethodInfoPvPS4_
RPj:_ChunkStream_get_DataAvailable_m3336621215
myp:__ZNSt3__26vectorIPNS_6locale5facetENS_15__sso_allocatorIS3_Lj28EEEE6resizeEj
VNd:__ZN11UnityEngine15PlatformWrapper16GetVRRenderScaleEv
$yc:__ZN5physx6shdfnd5ArrayIPvNS0_15InlineAllocatorILj256ENS0_19ReflectionAllocatorINS_18NpArticulationLinkEEEEEE15growAndPushBackERKS2_
s3b:__Z18Transfer_BlittableI9JSONWriteLb0EaEvRK29SerializationCommandArgumentsR31RuntimeSerializationCommandInfo
QIh:_XmlSchemaXPath_set_XPath_m3888130585
oyn:__Z45RuntimeInvoker_SByte_t454417549_RuntimeObjectPFvvEPK10MethodInfoPvPS4_
CE:__ZN11UnityEngine15CloudWebService14DataDispatcher34OnSessionContainerArchivedAndReadyERNS0_16SessionContainerE
Yyn:__Z37RuntimeInvoker_ConsoleKey_t1768883954PFvvEPK10MethodInfoPvPS4_
ySk:_ObjectComparer_1__ctor_m1671757804_gshared
EWf:_NumberFormatInfo_GetFormat_m3247563525
hMn:__Z81RuntimeInvoker_RuntimeObject_Int32_t2071877448_Int32_t2071877448_SByte_t454417549PFvvEPK10MethodInfoPvPS4_
tmc:__ZNK5physx3Cct15ObstacleContext11getObstacleEj
UYg:_Task_get_AsyncState_m3848585043
nJl:_InvokableCall_3_Find_m1268604653_gshared
aib:__Z18Transfer_BlittableI19StreamedBinaryWriteILb0EELb0E8Vector3fEvRK29SerializationCommandArgumentsR31RuntimeSerializationCommandInfo
HVi:_NamedPermissionSet_get_Name_m638787712
cvn:__Z58RuntimeInvoker_Void_t1841601450_ConsoleKeyInfo_t3124575640PFvvEPK10MethodInfoPvPS4_
pQj:_ConnectionManagementData_Add_m4176616933
z0a:__ZN14SafeBinaryRead19TransferSTLStyleMapINSt3__23mapIN4core12basic_stringIcNS3_20StringStorageDefaultIcEEEEiNS1_4lessIS7_EENS1_9allocatorINS1_4pairIKS7_iEEEEEEEEvRT_17TransferMetaFlags
PRm:__ZN15dense_hashtableINSt3__24pairIK10KeyWrapperINS1_IPK11Il2CppImageP11Il2CppClassEEEjEES9_17ReflectionMapHashIS8_EN14dense_hash_mapIS9_jSD_NS9_14EqualsComparerINS0_8equal_toIS8_EEEENS0_9allocatorISB_EEE9SelectKeyESI_SK_ED2Ev
i2i:_Assembly_Resolve_m2614621802
dMi:_DSAParameters_t1872138834_marshal_pinvoke
Y2d:_XmlNodeReader_get_LocalName_m449703579
Vpk:_List_1_IndexOf_m1618036125_gshared
uUo:__ZL103SafeLibraryHandle_t116810554_CustomAttributesCacheGenerator_SafeLibraryHandle_ReleaseHandle_m3810068014P21CustomAttributesCache
Pji:_Stream_get_WriteTimeout_m2175815680
ncl:_UnsafeNativeMethods_GetFileMUIPath_m1744689881
JSm:__ZN6il2cpp2vm10Reflection14GetEventObjectEP11Il2CppClassPK9EventInfo
Qyg:_Publisher__ctor_m3549979789
S7l:_TlsStream_Write_m2271546135
Dam:_X509StoreManager_get_LocalMachine_m2451390246
N7a:__ZN20LocalFileSystemPosixD0Ev
Zrm:__ZL25UnresolvedVirtualCall_187P12Il2CppObjectS0_S0_S0_iPK10MethodInfo
nEk:_ResourceSet_GetObjectInternal_m2886697439
UMo:__ZL107UnmanagedMemoryStream_t822875729_CustomAttributesCacheGenerator_UnmanagedMemoryStream_WriteByte_m2348579954P21CustomAttributesCache
q0l:_TaskAwaiter_ValidateEnd_m4057275037
Aym:__ZN15dense_hashtableINSt3__24pairIK10KeyWrapperIPK22Il2CppGenericParameterEP11Il2CppClassEES6_N6il2cpp5utils11PointerHashIS4_EEN14dense_hash_mapIS6_S9_SE_NS6_14EqualsComparerINS0_8equal_toIS5_EEEENS0_9allocatorISA_EEE9SelectKeyESJ_SL_E4swapERSO_
PMg:_Latin1Encoding_GetString_m3553289597
cIh:_XmlSchemaType_get_DerivedBy_m948780707
Y8c:__ZN5physx13IslandManager6resizeEj
Fpm:__ZL24UnresolvedVirtualCall_59P12Il2CppObjectiiiiiiiiPK10MethodInfo
K7b:__ZN8JSONRead8TransferI9BoundsIntEEvRT_PKc17TransferMetaFlagsb
Pa:invoke_viidi
lro:__ZL82U3CWaitUntilCountOrTimeoutAsyncU3Ed__31_t2134975265_CustomAttributesCacheGeneratorP21CustomAttributesCache
lae:_XmlTextReaderImpl_OpenUrl_m4135983991
oyi:_Enumerator_get_Current_m1020413567_AdjustorThunk
r6m:__ZN15dense_hashtableI10KeyWrapperIP18Il2CppGenericClassES3_N6il2cpp8metadata22Il2CppGenericClassHashEN14dense_hash_setIS3_S6_NS3_14EqualsComparerINS5_25Il2CppGenericClassCompareEEENSt3__29allocatorIS3_EEE8IdentityESA_SD_E12maybe_shrinkEv
yQb:__ZN9TextAssetC2E18MemLabelIdentifier18ObjectCreationMode
O_g:_XPathNode_get_LinePosition_m4133633654_AdjustorThunk
Ttc:__ZN5physx6shdfnd8PoolBaseINS_2Cm5BlockIPvLj16EEENS0_19ReflectionAllocatorIS5_EEE17releaseEmptySlabsEv
hlk:_List_1_System_Collections_ICollection_CopyTo_m2020941110_gshared
s_k:_ReadOnlyCollection_1_System_Collections_Generic_IListU3CTU3E_set_Item_m1936436677_gshared
Ufe:_XmlValidatingReaderImpl_get_NameTable_m2722380285
Ov:__ZN9AudioClip7CleanupEv
cYj:_DnsHeader_set_IsQuery_m1962840289
kho:__ZL79Convert_t2607082565_CustomAttributesCacheGenerator_Convert_ToUInt64_m2215781574P21CustomAttributesCache
Blp:__ZN23InterfaceActionInvoker1IP20Movement_t3968309855E6InvokeEjP11Il2CppClassP12Il2CppObjectS1_
f6g:_BaseValidator_CompleteValidation_m47092799
U9g:_ServicePoint_KeepAliveSetup_m3738716897
PEg:_String_IsNullOrWhiteSpace_m1155663751
dnc:__ZL20updateMassAndInertiabRN5physx11PxRigidBodyEPKfjPKNS_6PxVec3Eb
l6b:__Z18Transfer_BlittableI8JSONReadLb0EdEvRK29SerializationCommandArgumentsR31RuntimeSerializationCommandInfo
BGd:__ZN5physx24NpPtrTableStorageManagerC2Ev
qXk:_Enumerator_get_Current_m922470910_gshared
Jtg:_RegistryPermission_KeyIsSubsetOf_m3631046285
one:_StringFacetsChecker_CheckValueFacets_m2241437937
jfm:_PersistentCall_get_mode_m4087575475
Dne:_SyntaxTreeNode_get_IsRangeNode_m1170588025
XZ:__ZNK9GfxDevice13GetViewMatrixEv
prk:_SymbolType_GetFields_m211599535
cbh:_SimpleAsyncCallback__ctor_m2175398029
P1c:__ZN5physx7NpScene15flushSimulationEb
HKc:__ZN5physx6shdfnd8PoolBaseINS_10NpMaterialENS0_19ReflectionAllocatorIS2_EEE12allocateSlabEv
xR:__ZN8TypeTree8BlobReadERPKhS1_ib
GWi:_FileIOPermission_get_AllLocalFiles_m202392739
qUg:_InternalThread_Thread_free_internal_m3059820987
Byd:__ZN5physx18ReducedVertexCloudC2EPKNS_6PxVec3Ej
Sso:__ZL113Task_t1843236107_CustomAttributesCacheGenerator_Task_System_Threading_IThreadPoolWorkItem_MarkAborted_m2373875340P21CustomAttributesCache
jKi:_Dictionary_2_System_Collections_Generic_ICollectionU3CSystem_Collections_Generic_KeyValuePairU3CTKeyU2CTValueU3EU3E_Remove_m3080541539_gshared
VYa:__ZN18LoadSceneOperation23GetAllowSceneActivationEv
yva:__ZN6CameraD0Ev
n1e:_ConsoleCancelEventArgs__ctor_m4153882707
lfj:_MethodCall__ctor_m1484980061
sgl:_ModulusRing_Multiply_m386339435
VW:__ZN31CanvasBatchIntermediateRenderer16StaticInitializeEPv
bHi:_ValueCollection_System_Collections_Generic_ICollectionU3CTValueU3E_Remove_m2326164563_gshared
kgf:_MessageEnd_Read_m1129716074
cYa:__ZN14SafeBinaryRead21TransferSTLStyleArrayINSt3__26vectorIi13stl_allocatorIiL18MemLabelIdentifier13ELi16EEEEEEvRT_17TransferMetaFlags
c5e:_Decimal_op_Implicit_m4246329390
$pg:_ArgumentNullException__ctor_m2252076819
X5g:_BaseValidator_get_PositionInfo_m255106619
wKb:__ZN10GameObjectC2E18MemLabelIdentifier18ObjectCreationMode
_Nk:_List_1_Add_m3442797503_gshared
a2n:__Z70RuntimeInvoker_Void_t1841601450_CustomAttributeNamedArgument_t94157543PFvvEPK10MethodInfoPvPS4_
j0j:_ListDictionary_GetEnumerator_m1511032609
Ork:_TypeBuilder_get_FullName_m1626507516
$ue:_XmlNumeric10Converter_ToDecimal_m1190993860
Pkf:_SerializationInfo__ctor_m4016423422
SKd:__Z48Rigidbody_CUSTOM_INTERNAL_CALL_AddExplosionForceP12Il2CppObjectfRK8Vector3fffi
jaa:__ZL18ProgramUniform1uivPK7ApiGLESjiihPKv
tik:_List_1_CopyTo_m190809511_gshared
evh:_Array_InternalArray__IEnumerable_GetEnumerator_TisTypeCode_t2536926201_m2026912238_gshared
USb:__ZN14Texture2DArray13RebuildMipMapEv
ZCg:_Tokenizer_GetStringToken_m2051129683
cbb:__Z18Transfer_BlittableI14SafeBinaryReadLb1EaEvRK29SerializationCommandArgumentsR31RuntimeSerializationCommandInfo
ZIk:_AuthorizationState_get_IsCompleted_m362634372_AdjustorThunk
M4a:__ZN9ShaderLab20SerializedSubProgram14AddVectorParamEPKcii15ShaderParamTypei
K9d:_XmlTextReaderImpl_get_Depth_m112606836
t$o:__ZL63ConfigurationLockType_t131834733_CustomAttributesCacheGeneratorP21CustomAttributesCache
jFk:_WriteDelegate_BeginInvoke_m1454071783
cmi:_StringWriter_Write_m2596694237
XCc:__ZNK5physx19NpRigidBodyTemplateINS_18PxArticulationLinkEE27getMinCCDAdvanceCoefficientEv
MDh:_Array_InternalArray__Insert_TisHS_t1739780518_m1668651438_gshared
t6i:_DynamicMethod_GetParameters_m3873709535
XBg:_SecurityException_get_PermissionState_m824616682
Mzg:_SystemException__ctor_m2688248668
Irf:_RuntimeType_get_GenericParameterPosition_m1342057697
Mlg:_PKCS12_RemoveCertificate_m1590055870
Nqn:__ZNSt3__214__split_bufferINS_12basic_stringIDsNS_11char_traitsIDsEENS_9allocatorIDsEEEERNS4_IS6_EEEC2EjjS8_
Vp:__ZN6Object23VirtualRedirectTransferER19StreamedBinaryWriteILb1EE
Osb:__ZN13ScreenManager18SetAllowCursorLockEb
WF:__ZN11UnityEngine15CloudWebService10RestClientINS0_23WebRequestRestHeaderMapEE16SetRequestHeaderERKN4core12basic_stringIcNS4_20StringStorageDefaultIcEEEESA_
hYa:__ZN30RuntimeInitializeOnLoadManager15ClassMethodInfo8TransferI14SafeBinaryReadEEvRT_
Bbe:_XmlTextReaderImpl_ReadAttributeValue_m2185273005
qOo:__ZL80Encoding_t663144255_CustomAttributesCacheGenerator_Encoding_GetBytes_m3820493744P21CustomAttributesCache
qxc:__ZNK5physx2Sc10ClothShape8isActiveEv
MQg:_UTF8Encoding_GetChars_m520563998
uC:__ZL22InitializeModule_Audiov
B9c:__ZN5physx2Sq11PruningPoolD0Ev
W2f:_Datatype_string_get_TypeCode_m1533368970
Z8a:__ZN16MemoryFileSystem8IsLockedERK13FileEntryData
thd:__ZN3MBP15removeBoxPrunerEj
U$m:__ZN6il2cpp6icalls8mscorlib6System2IO6MonoIO5WriteEiP11Il2CppArrayiiPi
HWm:__ZN15dense_hashtableINSt3__24pairIK10KeyWrapperINS1_IP11Il2CppClassjEEES4_EES6_N6il2cpp8metadata14ArrayClassHashEN14dense_hash_mapIS6_S4_SB_NS6_14EqualsComparerINSA_17ArrayClassCompareEEENS0_9allocatorIS8_EEE9SelectKeyESF_SH_E8min_sizeEjj
Vdi:_BinaryWriter_Write_m1040821954
dYj:_DnsHeader_get_OpCode_m625039971
pl:_emscripten_glBindRenderbuffer
eFi:_ValueCollection_System_Collections_Generic_ICollectionU3CTValueU3E_Add_m31805612_gshared
nkh:_DesignerWebRequestCreate_Create_m826084447
eIg:_DecoderExceptionFallbackBuffer_GetNextChar_m1727394816
F5e:_DateTimeParse_DateTimeOffsetTimeZonePostProcessing_m4232279387
qVk:_ObjectEqualityComparer_1_GetHashCode_m2925573736_gshared
Gln:_GC_dirty_init
wrg:_Array_Copy_m1969461849
kSg:_CancellationToken_Equals_m3900063290_AdjustorThunk
NZk:_ReadOnlyCollection_1_System_Collections_Generic_IListU3CTU3E_get_Item_m4278836279_gshared
z5m:__ZN6il2cpp2vm5Image33GetCachedMemoryMappedResourceFileEP24Il2CppReflectionAssembly
Z8m:__ZN6il2cpp2vm5Field14GetValueObjectEP9FieldInfoP12Il2CppObject
gJg:_EncoderExceptionFallback_GetHashCode_m2071009120
bwn:__Z115RuntimeInvoker_TimeSpan_t3430258949_DateTime_t693205669_RuntimeObject_BooleanU26_t3168250738_BooleanU26_t3168250738PFvvEPK10MethodInfoPvPS4_
dok:_List_1_Insert_m1201329962_gshared
FSf:_DateTimeFormatInfo_get_AllLongDatePatterns_m2865068184
YGe:_RegexNode_StripEnation_m1598326258
BFj:_ReferenceComparer_Compare_m1621937694
tec:__ZL15SweepBoxCapsulePKN5physx3Cct9SweepTestEPKNS0_11SweptVolumeEPKNS0_11TouchedGeomERKNS_14PxExtendedVec3ERKNS_6PxVec3ERNS0_12SweptContactE
MU:__ZN6Object17FindObjectsOfTypeEPKN5Unity4TypeER13dynamic_arrayIPS_Lj4EEb
MZg:_Task_LogFinishCompletionNotification_m3509207508
QSg:_CancellationTokenRegistration_GetHashCode_m927118037_AdjustorThunk
AWb:__ZNSt3__26vectorINS_4pairIiiEE13stl_allocatorIS2_L18MemLabelIdentifier1ELi16EEE21__push_back_slow_pathIKS2_EEvRT_
_3b:__ZN9JSONWrite8TransferI4PPtrI9Texture2DEEEvRT_PKc17TransferMetaFlags
JVi:_NamedPermissionSet_FromXml_m489048261
tth:_Array_QSortArrange_TisUInt64_t2909196914_TisRuntimeObject_m3114034519_gshared
Zpb:__ZN13MonoBehaviour17RemoveFromManagerEv
pIf:_XmlListConverter_ToArray_TisUInt32_t2149682021_m1831410587_gshared
Zsd:__ZN5physx2Sc19ParticlePacketShapeD2Ev
uNa:__ZL11DecodeValuePPKcS0_
Guk:_FieldInfo_SetValueDirect_m1857239302
Ovg:_UrlIdentityPermission_Copy_m2964323524
bJ:__ZN13MemoryManagerC2Ev
i9d:_XmlTextReaderImpl_PushInternalEntity_m3232801104
Gda:__ZN12SkinMeshInfo10DeallocateEPS_
rzg:_Hash__ctor_m534700559
qmk:_List_1_System_Collections_IList_Remove_m2025418957_gshared
gwo:__ZL79StrongNameIdentityPermissionAttribute_t317424587_CustomAttributesCacheGeneratorP21CustomAttributesCache
Epa:__ZN20ArchiveStorageReader28AcquireAndPrefillUnusedBlockEjPNS_11CacheResultE
OSb:__Z12NHxRoughnessIA4_tEvP9Texture2DPT_iiii
nxo:__ZL50U3CU3Ec_t2595272728_CustomAttributesCacheGeneratorP21CustomAttributesCache
gV:__ZN18AsyncUploadManagerD2Ev
rRo:__ZL112RegionInfo_t3784626978_CustomAttributesCacheGenerator_RegionInfo_t3784626978____CurrencyEnglishName_PropertyInfoP21CustomAttributesCache
B6a:__ZN9Transform5ResetEv
Jgf:_FormatterServices_GetSerializableMembers_m2557955275
xUn:__Z93RuntimeInvoker_Void_t1841601450_RuntimeObject_SByte_t454417549_SByte_t454417549_RuntimeObjectPFvvEPK10MethodInfoPvPS4_
Nhb:__Z22TransferField_NonArrayI24GenerateTypeTreeTransfer16Converter_StringEvRK23StaticTransferFieldInfoR31RuntimeSerializationCommandInfoRT0_
qDo:__ZL49ILease_t3205633421_CustomAttributesCacheGeneratorP21CustomAttributesCache
rAi:_Enumerator_System_Collections_IEnumerator_Reset_m174516854_AdjustorThunk
VEk:_AsyncMethodBuilderCore_PostBoxInitialization_m2714853869_AdjustorThunk
ack:_List_1_System_Collections_Generic_IEnumerableU3CTU3E_GetEnumerator_m67794145_gshared
N2o:__ZL60SslProtocols_t894678499_CustomAttributesCacheGenerator_Tls12P21CustomAttributesCache
Hsb:__Z17MainLoopKeepalivePv
Kwc:__ZN5physx7NpScene16addActorInternalERNS_7PxActorE
_Ni:_HMACSHA512__ctor_m1667460019
JCm:__ZN15dense_hashtableI10KeyWrapperIPK17Il2CppGenericInstES4_N6il2cpp8metadata21Il2CppGenericInstHashEN14dense_hash_setIS4_S7_NS4_14EqualsComparerINS6_24Il2CppGenericInstCompareEEENSt3__29allocatorIS4_EEE8IdentityESB_SE_E12expand_arrayEjN21dense_hash_map_traits17integral_constantIbLb0EEE
itk:_TypeBuilderInstantiation_InflateType_m799626073
Vmp:_printf_core
VCi:_KeyCollection_System_Collections_Generic_ICollectionU3CTKeyU3E_get_IsReadOnly_m701366755_gshared
IKn:__Z136RuntimeInvoker_IntPtr_t_RuntimeObject_Int32_t2071877448_Int32_t2071877448_Int32_t2071877448_Int32_t2071877448_MonoIOErrorU26_t1029615899PFvvEPK10MethodInfoPvPS4_
kDk:_ResourceLocator__ctor_m3264571725_AdjustorThunk
EHb:__Z14CalcHullBoundsPK8Vector3fPKhhRK5PlaneRK10Matrix4x4fR10MinMaxAABB
e0o:__ZL140ProtectedConfigurationSection_t3541826375_CustomAttributesCacheGenerator_ProtectedConfigurationSection_t3541826375____Providers_PropertyInfoP21CustomAttributesCache
Rbg:_SchemaCollectionCompiler_GetComplexType_m4165276588
qAb:__Z19SetupLODFadeKeywordR17ShaderPassContexti
Eio:__ZL81Decimal_t724701077_CustomAttributesCacheGenerator_Decimal_op_Implicit_m2135798419P21CustomAttributesCache
jda:__ZL25CheckCopyTextureArgumentsRK7ApiGLESP11GLESTextureS3_
uNj:_DeflateStreamNative_Finalize_m2579083797
G$h:_TimeZoneInfo_TryGetTimeZoneByRegistryKey_m2912315591
Hco:__ZL96DefaultBinder_t424142959_CustomAttributesCacheGenerator_DefaultBinder_SelectProperty_m3525757950P21CustomAttributesCache
yZa:__ZN13dynamic_arrayI26EnlightenSystemInformationLj8EE6insertEPS0_PKS0_S4_
fhb:__ZN8GUIStyle8TransferI24GenerateTypeTreeTransferEEvRT_
Rsh:_Array_QSortArrange_TisInt64_t909078037_m4026437715_gshared
lYi:_MulticastNotSupportedException__ctor_m2164514827
daf:_DateTime_System_IConvertible_ToChar_m2489529194_AdjustorThunk
VMl:_Dictionary_2_TryGetValue_m4275927083_gshared
khb:__Z29Transfer_Blittable_ArrayFieldI24GenerateTypeTreeTransferyEvRT_R9ArrayInfoRK23StaticTransferFieldInfo
y3j:_AttributeCollection__cctor_m2801958540
M2e:_Decimal_ToInt32_m2037874519
zw:__ZN4FMOD7SystemI9playSoundE17FMOD_CHANNELINDEXPNS_5SoundEbPPNS_7ChannelE
KJd:__ZN13PhysicsModule31GetColliderComponentsInChildrenERK10GameObjectbbR13dynamic_arrayIPN5Unity9ComponentELj4EE
iao:__ZL74RuntimeArray_CustomAttributesCacheGenerator_Array_BinarySearch_m1368352453P21CustomAttributesCache
vap:__ZL68PreferBinarySerialization_t2472773525_CustomAttributesCacheGeneratorP21CustomAttributesCache
Iji:_PinnedBufferMemoryStream_Finalize_m240651882
rUa:__ZN19StreamedBinaryWriteILb0EE21TransferSTLStyleArrayINSt3__26vectorI17SubstanceEnumItemNS2_9allocatorIS4_EEEEEEvRT_17TransferMetaFlags
kUg:_Interlocked_Decrement_m70525859
wTo:__ZL76GregorianCalendarHelper_t3151146692_CustomAttributesCacheGenerator_m_minDateP21CustomAttributesCache
ggo:__ZL78Convert_t2607082565_CustomAttributesCacheGenerator_Convert_ToSByte_m1183867428P21CustomAttributesCache
Y8d:_XmlTextReaderImpl_Throw_m395333686
BNm:__ZN6il2cpp2os4File4ReadEPNS0_10FileHandleEPciPi
_Vo:__ZL110XmlSchemaAny_t3277730824_CustomAttributesCacheGenerator_XmlSchemaAny_t3277730824____NamespaceList_PropertyInfoP21CustomAttributesCache
P_k:_ReadOnlyCollection_1_get_Item_m1087086645_gshared
$u:__ZN12AudioManager23VirtualRedirectTransferER18StreamedBinaryReadILb0EE
Gik:_List_1_Remove_m2616693989_gshared
eVl:_Configuration_GetSectionXml_m1792995434
Npp:_realloc
IRk:_ObjectComparer_1__ctor_m2653509139_gshared
ZCn:__Z65RuntimeInvoker_Void_t1841601450_RuntimeObject_DateTime_t693205669PFvvEPK10MethodInfoPvPS4_
RGl:_TaskFactory_1_FromAsync_m3609684705_gshared
PZd:_XmlDocument_get_Encoding_m3112642704
zdg:_RuntimeRemoteClassHandle_t2923639406_marshal_pinvoke_back
jGo:__ZL68DateTimeConstantAttribute_t4275890373_CustomAttributesCacheGeneratorP21CustomAttributesCache
WXa:__ZN30RuntimeInitializeOnLoadManager23VirtualRedirectTransferER17RemapPPtrTransfer
VCp:dynCall_viif
Sxk:_MonoField_get_DeclaringType_m1591666235
Umj:___BinaryWriter_WriteUInt32_m1252594391
e4n:__Z59RuntimeInvoker_ArraySegment_1_t2594217482_Int32_t2071877448PFvvEPK10MethodInfoPvPS4_
FXd:_XmlDocument_set_Schemas_m3767169861
Srd:__ZN5physx2Sc24ConstraintProjectionTree11projectPoseERNS0_19ConstraintGroupNodeE
Seb:__ZL26Transfer_SimpleNativeClassI17RemapPPtrTransfer8GradientLb0EEvRK29SerializationCommandArgumentsR31RuntimeSerializationCommandInfo
lcp:__ZL106AudioSettings_t3144015719_CustomAttributesCacheGenerator_AudioSettings_InvokeOnAudioSourcePlay_m2286026014P21CustomAttributesCache
X9n:__ZL69RuntimeArray_CustomAttributesCacheGenerator_Array_GetValue_m518505780P21CustomAttributesCache
cAn:__Z52RuntimeInvoker_UInt64_t2909196914_Single_t2076509932PFvvEPK10MethodInfoPvPS4_
YQl:_GenericComparer_1_Compare_m3799851379_gshared
R5i:_ConstructorOnTypeBuilderInst_GetMethodImplementationFlags_m1715243680
SJd:__ZN13PhysicsModule29GetColliderMaterialInstanceIDER8Collider
R1o:__ZL56DnsType_t1822475631_CustomAttributesCacheGenerator_UINFOP21CustomAttributesCache
zCc:__ZNK5physx20NpRigidActorTemplateINS_18PxArticulationLinkEE14getConstraintsEPPNS_12PxConstraintEjj
XXk:_Collection_1_Contains_m225961061_gshared
EG:__ZN13UploadHandlerD2Ev
sem:_DebugLogHandler__ctor_m786660247
MVo:__ZL102XmlSchemaAll_t1805755215_CustomAttributesCacheGenerator_XmlSchemaAll_t1805755215____Items_PropertyInfoP21CustomAttributesCache
zJg:_EncoderFallbackException__ctor_m771590790
Nc:_emscripten_glBlendFuncSeparate
Ade:_NodeData_System_IComparable_CompareTo_m2428226847
M7i:_GenericTypeParameterBuilder_IsPrimitiveImpl_m1198748291
HN:__Z20scripting_string_newPKc
ZGk:_FtpWebResponse_CheckDisposed_m1532914452
J_h:_TimeZoneInfo_CreateAdjustmentRulesFromTimeZoneInformation_m1075239538
Bto:__ZL147AwaitTaskContinuation_t2160930432_CustomAttributesCacheGenerator_AwaitTaskContinuation_System_Threading_IThreadPoolWorkItem_MarkAborted_m1702987881P21CustomAttributesCache
Xei:_Directory_GetCurrentDirectory_m44486537
K4m:__ZNK24NamespaceAndNamePairHashclERKNSt3__24pairIPKcS3_EE
y7j:_Enumerator_MoveNext_m4102275309_gshared
DJi:_Dictionary_2_Resize_m1092877474_gshared
Q1b:__ZN9JSONWrite12AppendToNodeEPN5Unity9rapidjson12GenericValueINS1_4UTF8IcEE13JSONAllocatorEEPKcRS6_
Rrp:__ZNSt3__227__num_get_unsigned_integralIjEET_PKcS3_Rji
cIk:_HttpWebRequest_get_ServicePointNoLock_m521439075
TMf:_Environment_get_Is64BitProcess_m298139871
$3e:_Convert_ToInt64_m4057339019
fNe:_Uri_CheckAuthorityHelperHandleDnsIri_m2515373427
Pkh:_AsnEncodedData_Default_m4197142414
Vto:__ZL61ISecurityEncodable_t2815109328_CustomAttributesCacheGeneratorP21CustomAttributesCache
fWi:_EnvironmentPermission_IsSubsetOf_m1252378883
Svm:__ZN6il2cpp6icalls8mscorlib6System7Decimal13FCallTruncateEP13Il2CppDecimal
Tvd:__ZThn8_N5physx2Gu11HeightFieldD1Ev
pXm:__ZNSt3__218uninitialized_copyIPNS_4pairIK10KeyWrapperIP11Il2CppClassES4_EES8_EET0_T_SA_S9_
qYc:__ZN5physx19NpRigidBodyTemplateINS_14PxRigidDynamicEED0Ev
PAc:__ZNK5physx19PxArticulationJoint19getConcreteTypeNameEv
gu:__ZN17AudioCustomFilterD2Ev
azg:_FileCodeGroup_Copy_m2713630122
I6a:__ZN9Transform16ResetReplacementEv
xwe:_XmlSchemaAny__ctor_m3272281344
Vba:__ZN18GfxFramebufferGLES18ReleaseFramebufferEP17RenderSurfaceBaseP14GfxContextGLES
Q5l:_Context_GetDynamicPropertyCollection_m1987747444
Fmh:_X509Certificate2_get_Version_m1927399907
CVb:__ZN13ProduceHelperI6CameraLb0EE7ProduceE18MemLabelIdentifier18ObjectCreationMode
aI:__ZN19CloudServiceHandler34HandleSaveFileWebRequestPlayerLoopEv
sTg:_ExecutionContext_set_isFlowSuppressed_m427007348
Qt:__Z31GetParentSampleClipFromInstancePN11SoundHandle8InstanceE
ZQb:__ZNK28RectTransformPropertyBinding13GetFloatValueERKN11UnityEngine9Animation10BoundCurveE
Ujc:__ZN5physx11PxHitBufferINS_12PxOverlapHitEE14processTouchesEPKS1_j
TJb:__ZN6Camera22StandaloneCustomRenderENS_10RenderFlagEP6ShaderRKN4core12basic_stringIcNS3_20StringStorageDefaultIcEEEEPNS_21PerformRenderFunctionE
zXa:__ZNSt3__26vectorI4PPtrI6ObjectE13stl_allocatorIS3_L18MemLabelIdentifier52ELi16EEE6assignINS_11__wrap_iterIPS3_EEEENS_9enable_ifIXaasr21__is_forward_iteratorIT_EE5valuesr16is_constructibleIS3_NS_15iterator_traitsISD_E9referenceEEE5valueEvE4typeESD_SD_
wZc:__ZL22addOrRemoveRigidObjectILb0ELb0ELb0ELb1EN5physx3Scb11RigidStaticEEvRNS0_2Sc5SceneERT3_b
Brn:__ZN6il2cpp2os16ThreadLocalValue8GetValueEPPv
jFm:__ZN6il2cpp2vm13MetadataCache14GetGenericInstEPKPK10Il2CppTypej
LRf:_TextInfo_SetReadOnlyState_m244424743
xC:__ZN13AudioListener17ReadExtensionNameEi
v4l:_ChannelInfo__ctor_m2502026239
od:_glUniform1uiv
poo:__ZL56IEnumerable_1_t4048664256_CustomAttributesCacheGeneratorP21CustomAttributesCache
Q_l:_ProviderCollection_get_Count_m1651598797
EFo:__ZL60CallingConvention_t3354538265_CustomAttributesCacheGeneratorP21CustomAttributesCache
dsc:__ZNK5physx2Gu19SupportMapLocalImplINS0_11ConvexHullVEE18doWarmStartSupportEiRNS_6shdfnd3aos5Vec3VE
vBg:_XmlSyntaxException__ctor_m495971868
duc:__ZN5physx6shdfnd4sortIPvNS0_4LessIS2_EENS0_19ReflectionAllocatorINS_2Cm5BlockIS2_Lj8EEEEEEEvPT_jRKT0_RKT1_j
aC:__ZN9AudioClip15InitializeClassEv
spo:__ZL73Thread_t241561612_CustomAttributesCacheGenerator_Thread_Start_m1813847092P21CustomAttributesCache
oKc:__ZNK5physx9NpPhysics11getNbShapesEv
Ip:setThrew
GSb:__ZL21BuildEmptyCubeTexturePKci11ColorRGBA3217TextureColorSpace
_5g:_BaseValidator_get_BaseUri_m198865001
C0a:__ZN14SafeBinaryRead21TransferSTLStyleArrayINSt3__26vectorIN9ShaderLab20SerializedSubProgramENS1_9allocatorIS4_EEEEEEvRT_17TransferMetaFlags
m7g:_Compiler_CompileIdentityConstraint_m379138531
k5b:__Z15Transfer_StringI8JSONReadLb1EEvRK29SerializationCommandArgumentsR31RuntimeSerializationCommandInfo
Fth:_Array_InternalArray__IEnumerable_GetEnumerator_TisCell_t1535374469_m984289873_gshared
pHh:_XmlSchemaSimpleType_get_Content_m2492568611
E8:__ZN6prcoreL17RemapGenericFloatI17TexFormatRGBFloat15TexFormatRGHalfEEvPKNS_9InnerInfoE
IBb:__Z25DoForwardShaderRenderLoopR17RenderLoopContextR13dynamic_arrayI16RenderObjectDataLj4EERK11CullResultsbbbN6Camera10RenderFlagE
HLe:_RegexNode_Type_m2572929450
hlg:_PKCS12_GetSymmetricAlgorithm_m1812022677
tQg:_UTF8Encoding_GetByteCount_m2372933408
oCf:_AsyncTaskMethodBuilder_1_Start_TisU3CWaitUntilCountOrTimeoutAsyncU3Ed__31_t2134975265_m1051177646_gshared
JHg:_ASCIIEncoding_GetDecoder_m3693600923
Bbl:__ZN21InterfaceFuncInvoker2IiP23RegistryKey_t2287932784P8String_tE6InvokeEjP11Il2CppClassP12Il2CppObjectS1_S3_
pJk:_HttpWebResponse_System_IDisposable_Dispose_m3100301154
xqj:_ARC4Managed_GenerateKey_m716135508
Leb:__Z18Transfer_BlittableI17RemapPPtrTransferLb1E11ColorRGBA32EvRK29SerializationCommandArgumentsR31RuntimeSerializationCommandInfo
g3g:_DtdParser_EatSystemKeyword_m2758396562
hie:_XmlSchemaAnyAttribute_BuildNamespaceListV1Compat_m3874896722
ldc:__ZN5physx2Gu20intersectTriangleBoxERKNS_6PxVec3ES3_S3_S3_S3_
lLm:__Z57ves_icall_System_Threading_ThreadPool_RequestWorkerThreadv
jJc:__ZN5physx10NpMaterial8setFlagsENS_7PxFlagsINS_14PxMaterialFlag4EnumEtEE
CI:__ZN13BaseAllocator13TryDeallocateEPv
Qjb:__Z29Transfer_Blittable_ArrayFieldI19StreamedBinaryWriteILb0EEfEvRT_R9ArrayInfoRK23StaticTransferFieldInfo
l_l:_IgnoreSection_SerializeSection_m1724288736
hrg:_Array_CreateInstance_m1054139389
QHn:__Z113RuntimeInvoker_Void_t1841601450_StringU5BU5DU26_t3730240492_TypeU5BU5DU26_t4175617625_ObjectU5BU5DU26_t3223402458PFvvEPK10MethodInfoPvPS4_
Zll:_InternalEnumerator_1__ctor_m967618647_AdjustorThunk
H8a:__ZN16MemoryFileSystem5WriteER13FileEntryDatayPvPy
Rdm:_CSSMeasureFunc_BeginInvoke_m4183811749
qxa:__ZNSt3__26vectorIN12FlareManager10FlareEntryENS_9allocatorIS2_EEE21__push_back_slow_pathIKS2_EEvRT_
ggf:_MemberReference_Read_m107841933
gRi:_SHA1_Create_m4086509717
Ofn:__ZN6il2cpp6icalls8mscorlib6System17RuntimeTypeHandle23type_is_assignable_fromEP20Il2CppReflectionTypeS5_
aUi:_X509Certificate_get_IsValid_m1241018479
Eyk:_MonoMethodInfo_GetMethodInfo_m3298558752
Iu:__ZN13AudioListener17RemoveFromManagerEv
Kd:_glAttachShader
l$d:_XmlElement_get_InnerText_m2647877625
R$h:_TransitionTime_op_Inequality_m2726312532
VEd:__ZN5physx6shdfnd8internal8HashBaseINS0_4PairIKtPKcEEtNS0_4HashItEENS1_11HashMapBaseItS6_S9_NS_7profile26WrapperReflectionAllocatorIS6_EEE6GetKeyESD_Lb1EE6createERS4_Rb
Pta:__ZNK6Camera19GetProjectionMatrixEv
otd:__ZNK5physx2Cm12DelegateTaskINS_2Sc5SceneEXadL_ZNS3_18clothPreprocessingEPNS_10PxBaseTaskEEEE7getNameEv
I2c:__ZNK5physx7NpScene24getWakeCounterResetValueEv
HXc:__ZN5physx20NpRigidActorTemplateINS_14PxRigidDynamicEE17resolveReferencesERNS_24PxDeserializationContextE
sFk:_FtpStatus_get_StatusDescription_m2014734788
mYj:_DnsHeader_get_QuestionCount_m4000178986
jke:_SchemaDeclBase_set_Prefix_m2313768471
X1e:_ConsoleKeyInfo_Equals_m167905607_AdjustorThunk
lqd:__ZNK5physx16PxsSolverEndTask7getNameEv
Bhk:_List_1_CopyTo_m1048822330_gshared
TIf:_StackTrace__ctor_m2404985356
MAl:_StaticGetter_1_Invoke_m1348877692_gshared
Ywh:_Array_InternalArray__IndexOf_TisDS_t769197341_m420538354_gshared
_jd:__ZN5physx2Gu32PCMConvexVsMeshContactGeneration20generateLastContactsEv
DP:__Z38PreallocateObjectFromPersistentManagerib
Dzg:_NetCodeGroup_Resolve_m71716657
uaf:_DateTime_System_IConvertible_ToSingle_m3927769066
Cvp:__ZNSt3__211__money_getIwE13__gather_infoEbRKNS_6localeERNS_10money_base7patternERwS8_RNS_12basic_stringIcNS_11char_traitsIcEENS_9allocatorIcEEEERNS9_IwNSA_IwEENSC_IwEEEESJ_SJ_Ri
tJc:__ZThn12_N5physx10NpMaterialD0Ev
XBn:__Z71RuntimeInvoker_Boolean_t3825574718_RuntimeObject_DecimalU26_t1613489971PFvvEPK10MethodInfoPvPS4_
uMg:_InternalEncoderBestFitFallback_GetHashCode_m264736995
Qkf:_SerializationHeaderRecord__ctor_m3833388025
XIa:__ZNK9Texture2D20GetUnscaledTextureIDEv
z6o:__ZL66TypeDescriptorComObject_t2250835238_CustomAttributesCacheGeneratorP21CustomAttributesCache
Sgf:_ObjectReader_GetType_m4192278259
A2e:_Convert_ToSByte_m883113940
Czd:__ZN5physx6shdfnd4sortIjNS_19SortBoundsPredicateENS0_19ReflectionAllocatorIjEEEEvPT_jRKT0_RKT1_j
GUg:_ManualResetEventSlim_get_WaitHandle_m2968083808
LZn:__Z40RuntimeInvoker_TaskAwaiter_1_t3440470108PFvvEPK10MethodInfoPvPS4_
TLc:__ZN5physx7NpShape14onRefCountZeroEv
zzf:_Array_Sort_TisBoolean_t3825574718_m2555015387_gshared
$qf:_RuntimeType_IsContextfulImpl_m774791549
wLn:__Z81RuntimeInvoker_Void_t1841601450_RuntimeObject_Int16_t4041245914_Int32_t2071877448PFvvEPK10MethodInfoPvPS4_
eyh:_Array_InternalArray__IndexOf_TisContactPoint_t1376425630_m3651364246_gshared
$ph:_Array_InternalArray__ICollection_Contains_TisXmlSchemaObjectEntry_t2510586510_m1644602695_gshared
jWn:__Z146RuntimeInvoker_Int32_t2071877448_IntPtr_t_RuntimeObject_Int32_t2071877448_Int32_t2071877448_Int32_t2071877448_Int32U26_t455636984_SByte_t454417549PFvvEPK10MethodInfoPvPS4_
$yd:__ZL15TestContainmentRKN5physx6PxVec3EPKfjPKNS_2Gu15HullPolygonDataE
v8h:_CFRange__ctor_m2744645256_AdjustorThunk
KEo:__ZL80Marshal_t785896760_CustomAttributesCacheGenerator_Marshal_ReadIntPtr_m3382552932P21CustomAttributesCache
ypf:_RuntimeType_GetMethodsByName_native_m297513071
PMn:__Z68RuntimeInvoker_Void_t1841601450_RuntimeGPtrArrayHandleU26_t514402296PFvvEPK10MethodInfoPvPS4_
sme:_XmlSchemaAnyAttribute_get_NamespaceList_m3748933905
kZf:_TimeSpanRawInfo_FullDMatch_m433011100
aJa:__ZNK9Texture2D26CanReuploadDataToGfxDeviceEv
Rob:__ZN18StreamedBinaryReadILb0EE21TransferSTLStyleArrayI13dynamic_arrayI4AABBLj4EEEEvRT_17TransferMetaFlags
OZg:_Task_ContinueWith_m1310667952
Lkg:_Uri_GetHashCode_m1909511864
LZa:__Z29ClearRepeatingLogMessageStatev
awd:__ZN5physx2Gu11HeightField12loadFromDescERKNS_17PxHeightFieldDescEb
kRb:__ZN15QualitySettings12CleanupClassEv
zU:__ZN21EnlightenSceneMappingaSERKS_
YTg:_Reader_IsDefaultFTContext_m1727359543_AdjustorThunk
Mli:_StreamWriter__cctor_m1332667003
w3l:_SafeHandle_DangerousReleaseInternal_m1708289644
WDg:_Single_System_IConvertible_ToUInt32_m2447833283
tPh:_XmlElementAttribute__ctor_m18315227
Pha:__ZN7ApiGLESD2Ev
o_j:_SystemCertificateValidator_CreateX509Chain_m1514637186
jep:__ZL95CustomEventData_t1269126727_CustomAttributesCacheGenerator_CustomEventData_AddUInt16_m579394295P21CustomAttributesCache
Kra:__ZN9Transform47ClearTransformHierarchyAndApplyToSerializedDataEv
etl:_InternalEnumerator_1_get_Current_m4083613828_AdjustorThunk
O$c:__ZN5physx6shdfnd8PoolBaseINS_2Gu30LargePersistentContactManifoldENS0_19ReflectionAllocatorIS3_EEE12allocateSlabEv
z6b:__ZN8JSONRead21TransferSTLStyleArrayINSt3__26vectorI8MonoPPtr13stl_allocatorIS3_L18MemLabelIdentifier1ELi16EEEEEEvRT_17TransferMetaFlags
y8m:__ZN6il2cpp2os6Socket8ShutdownEi
wPi:_RijndaelManaged_GenerateKey_m3366247933
sdi:_BinaryReader_ReadUInt64_m1893783375
X6d:_XmlSignificantWhitespace_get_ParentNode_m1336565041
Eva:__ZN6Camera23VirtualRedirectTransferER19StreamedBinaryWriteILb0EE
mDp:dynCall_fidi
OPm:__ZN15dense_hashtableINSt3__24pairIK10KeyWrapperINS1_IPK9FieldInfoP11Il2CppClassEEEjEES9_17ReflectionMapHashIS8_EN14dense_hash_mapIS9_jSD_NS9_14EqualsComparerINS0_8equal_toIS8_EEEENS0_9allocatorISB_EEE9SelectKeyESI_SK_E12resize_deltaEjj
cod:__ZN5physx20getVertexEdgeIndicesERKNS_2Gu11HeightFieldEjjjPNS_8EdgeDataE
Msi:_ArraySegment_1_get_Offset_m1799425659_AdjustorThunk
ofo:__ZL59AttributeTargets_t1984597432_CustomAttributesCacheGeneratorP21CustomAttributesCache
U4c:__ZN5physx6shdfnd5ArrayIPNS_2Sc8BodyCoreENS0_19ReflectionAllocatorIS4_EEE6resizeEjRKS4_
Kto:__ZL112ThreadPoolTaskScheduler_t943177722_CustomAttributesCacheGenerator_ThreadPoolTaskScheduler_TryDequeue_m2628067270P21CustomAttributesCache
Jlc:__ZN5physx3Cct26CharacterControllerManager16createControllerERNS_9PxPhysicsEPNS_7PxSceneERKNS_16PxControllerDescE
gH:__ZN11UnityEngine15CloudWebService14RestDownloaderD2Ev
AQi:_RSACryptoServiceProvider_Common_m3652682932
jhf:_ObjectMapInfo_isCompatible_m2599822686
eMp:b122
Gua:__ZN15dense_hashtableINSt3__24pairIKN9ShaderLab7Program23ShaderKeywordSetAndHashEPKNS2_10SubProgramEEES4_NS3_24ShaderKeywordHashFunctorEN14dense_hash_mapIS4_S8_SA_NS0_8equal_toIS4_EE13stl_allocatorIS9_L18MemLabelIdentifier67ELi16EEE9SelectKeyESD_SG_E15insert_noresizeERKS9_
bUa:__ZN14SubstanceInput8TransferI24GenerateTypeTreeTransferEEvRT_
xZe:_Hashtable_get_Count_m830088216
hwd:__ZN5physx6shdfnd8internal8HashBaseIPNS_2Gu12TriangleMeshES5_NS0_4HashIS5_EENS1_11HashSetBaseIS5_S7_NS0_9AllocatorELb1EE6GetKeyES9_Lb1EE15reserveInternalEj
xpm:__ZL24UnresolvedVirtualCall_51P12Il2CppObject19DateTime_t693205669PK10MethodInfo
z6d:_XmlRegisteredNonCachedStream_BeginRead_m1081636321
LHk:_HttpWebRequest_get_ClientCertificates_m211130650
Ae:_SDL_FreeRW
$7c:__ZN5physx6shdfnd8PoolBaseINS_2Cm5BlockIhLj128EEENS0_19ReflectionAllocatorIS4_EEE15disposeElementsEv
B4i:_ModuleBuilder_CreateGlobalType_m2419987093
HRi:_SHA1Internal_FillBuff_m891541953
Tbo:__ZL62ResolveEventHandler_t3842432458_CustomAttributesCacheGeneratorP21CustomAttributesCache
OYk:_ReadOnlyCollection_1_System_Collections_IList_get_IsReadOnly_m2976040454_gshared
fye:_XmlSchemaComplexType__ctor_m1080919982
yWj:_CFNetwork_GetProxiesForAutoConfigurationScript_m3182664809
dUc:__ZN5physx3Scb14ParticleSystem14setRestOffsetsEjRKNS_16PxStrideIteratorIKjEERKNS2_IKfEE
l6g:_BaseValidator_SendValidationEvent_m2460678999
m_e:_LowLevelComparer__cctor_m3634803186
iA:__ZN20SoundChannelInstance8getDelayE14FMOD_DELAYTYPEPjS1_
g0i:__Z30il2cpp_codegen_resolve_pinvokeIPFiPhiPciELj5ELj9EET_RAT0__KcRAT1__S5_20Il2CppCallConvention13Il2CppCharSetib
xal:_KeyHandler_get_MachineStore_m617211204
LWd:_XmlReaderSettings_ReadSettingsFromRegistry_m50321882
PQi:_RSACryptoServiceProvider_Encrypt_m1159692509
M4o:__ZL97SocketElement_t792962077_CustomAttributesCacheGenerator_SocketElement_PostDeserialize_m1370614508P21CustomAttributesCache
N3f:_Datatype_unsignedLong_Compare_m1753334391
Cxo:__ZL66RijndaelManagedTransform_t135163252_CustomAttributesCacheGeneratorP21CustomAttributesCache
fLe:_RegexInterpreter_Backwardnext_m40975642
w:tempBigInt
XCi:_KeyCollection_System_Collections_Generic_ICollectionU3CTKeyU3E_Clear_m3185000447_gshared
Ie:_emscripten_glVertexAttrib1fv
h1a:__ZNSt3__26vectorIN9ShaderLab20SerializedSubProgram12UAVParameterENS_9allocatorIS3_EEE7reserveEj
Zzp:__ZSt11__terminatePFvvE
I3c:__ZN5physx13NpVolumeCacheC2EPNS_2Sq17SceneQueryManagerEjj
FVk:_ObjectEqualityComparer_1_GetHashCode_m3831812193_gshared
$uc:__ZThn24_N5physx2Sc20ArticulationJointSimD1Ev
Nsh:_Array_QSortArrange_TisInt32_t2071877448_m2646575778_gshared
Zw:__ZN12AudioManager14systemCallbackEP11FMOD_SYSTEM24FMOD_SYSTEM_CALLBACKTYPEPvS3_
qYm:__ZN6il2cpp2vm6Thread10InitializeEP12Il2CppThreadP12Il2CppDomain
uRm:__ZN24dense_hashtable_iteratorINSt3__24pairIK10KeyWrapperINS1_IPK10MethodInfoP11Il2CppClassEEEjEES9_17ReflectionMapHashIS8_EN14dense_hash_mapIS9_jSD_NS9_14EqualsComparerINS0_8equal_toIS8_EEEENS0_9allocatorISB_EEE9SelectKeyESI_SK_E30advance_past_empty_and_deletedEv
oMh:_XsdBuilder_InitSelector_m3010522516
eUc:__ZN5physx2Sc18ParticleSystemCore14setRestOffsetsEjRKNS_16PxStrideIteratorIKjEERKNS2_IKfEE
sYo:__ZL118XmlSchemaGroup_t4189650927_CustomAttributesCacheGenerator_XmlSchemaGroup_t4189650927____CanonicalParticle_PropertyInfoP21CustomAttributesCache
Cdc:__ZN5physx2Gu16testPolyDataAxisERKNS0_8CapsuleVERKNS0_13PolygonalDataEPNS0_12SupportLocalERKNS_6shdfnd3aos6FloatVERSB_RNSA_5Vec3VE
WCa:__ZN16ReflectionProbes16UpdateSampleDataEv
MEh:_Array_InternalArray__Insert_TisParsingState_t1278724163_m2614239353_gshared
IYd:_XmlNamedNodeMap__ctor_m1439171130
Npo:__ZL86WaitHandle_t677569169_CustomAttributesCacheGenerator_WaitHandle_set_Handle_m2541455323P21CustomAttributesCache
Sxc:__ZN5physx2Sc17ParticleSystemSimD0Ev
rcp:__ZL107AudioClip_t1932558630_CustomAttributesCacheGenerator_AudioClip_InvokePCMReaderCallback_Internal_m4135619730P21CustomAttributesCache
scp:__ZL112AudioClip_t1932558630_CustomAttributesCacheGenerator_AudioClip_InvokePCMSetPositionCallback_Internal_m1220105088P21CustomAttributesCache
D7j:_Enumerator_System_Collections_IEnumerator_get_Current_m1859058605_gshared
tTa:__ZN18ProceduralMaterial23VirtualRedirectTransferER17RemapPPtrTransfer
C3l:_SafeHandle_Finalize_m1839546519
_0d:_XmlNamedNodeMap_FindNodeOffset_m2281491201
EPa:__ZN14Texture2DArray5ResetEv
Kfk:_List_1_EnsureCapacity_m2724033417_gshared
Jel:_SimpleCollator_IndexOfOrdinal_m2442853114
bsa:__ZN14BatchAllocator6CommitE18MemLabelIdentifier
PNi:_Utils__ProduceLegacyHmacValues_m1382935307
GCe:_X509EnhancedKeyUsageExtension_Decode_m3866320499
rZi:_NumberFormatter_AppendIntegerStringWithGroupSeparator_m1401773574
_Nm:__ZNK6il2cpp2vm14TypeNameParser10NextWillBeEcb
Atj:_CipherSuite_get_ServerHMAC_m3566778727
nCl:_ConfiguredTaskAwaiter_GetResult_m1667949563_gshared
ef:_JS_Sound_Play
aPd:__Z26GetUnityConnectSettingsPtrv
_bd:__ZN5physx6shdfnd5slerpEfRKNS_6PxQuatES3_
iqn:__ZN6il2cpp6icalls8mscorlib4Mono13Globalization7Unicode13Normalization27load_normalization_resourceEPiS6_S6_S6_S6_S6_
Lsp:__ZNSt3__219__libcpp_asprintf_lEPPcP15__locale_structPKcz
iNn:__Z181RuntimeInvoker_Void_t1841601450_RuntimeObject_Int32_t2071877448_Int32_t2071877448_RuntimeObject_Int32_t2071877448_Int32_t2071877448_RuntimeObject_Int32_t2071877448_Int32_t2071877448PFvvEPK10MethodInfoPvPS4_
d0a:__ZN9ShaderLab16SerializedShader8TransferI14SafeBinaryReadEEvRT_
Ila:__ZN5Mutex7TryLockEv
LIl:_InvokableCall_1_remove_Delegate_m3013073467_gshared
yTb:__ZN19ShaderPropertySheet16SetVectorIndexedEN9ShaderLab16FastPropertyNameEifRK8Vector4fNS_8SetFlagsE
Oq:__ZN14SafeBinaryRead21TransferSTLStyleArrayIN4core12basic_stringIcNS1_20StringStorageDefaultIcEEEEEEvRT_17TransferMetaFlags
Bjj:_RemotingConfiguration_RegisterWellKnownServiceType_m2491506630
eeh:_Socket_Disconnect_m1402453862
yEo:__ZL55_TypeBuilder_t2783404358_CustomAttributesCacheGeneratorP21CustomAttributesCache
zDn:__Z98RuntimeInvoker_Boolean_t3825574718___DTStringU26_t1923838913_Int32_t2071877448_Int32U26_t455636984PFvvEPK10MethodInfoPvPS4_
FWm:__ZN15dense_hashtableINSt3__24pairIK10KeyWrapperINS1_IP11Il2CppClassjEEES4_EES6_N6il2cpp8metadata14ArrayClassHashEN14dense_hash_mapIS6_S4_SB_NS6_14EqualsComparerINSA_17ArrayClassCompareEEENS0_9allocatorIS8_EEE9SelectKeyESF_SH_E9copy_fromERKSK_j
nNb:__Z29StdTemplateConversionFunctionIayEbPvR14SafeBinaryRead
bZc:__ZNK5physx20NpRigidActorTemplateINS_13PxRigidStaticEE14getConstraintsEPPNS_12PxConstraintEjj
_fc:__ZN25MeshMTDGenerationCallbackD0Ev
k5k:_ReadOnlyCollection_1_System_Collections_IList_RemoveAt_m1816394853_gshared
YIi:_Dictionary_2_System_Collections_IDictionary_GetEnumerator_m2259454738_gshared
JH:__ZN11UnityEngine15CloudWebService14DataDispatcher4StopEv
fEe:_FindFirstCharDelegate_BeginInvoke_m249093030
wyo:__ZL132TripleDESCryptoServiceProvider_t2380467305_CustomAttributesCacheGenerator_TripleDESCryptoServiceProvider_CreateEncryptor_m3664967596P21CustomAttributesCache
uOf:_JapaneseCalendar_EraNames_m2526014648
j1a:__ZNSt3__26vectorIN9ShaderLab20SerializedSubProgram12UAVParameterENS_9allocatorIS3_EEE8__appendEj
aWo:__ZL119XmlSchemaAny_t3277730824_CustomAttributesCacheGenerator_XmlSchemaAny_t3277730824____ProcessContentsCorrect_PropertyInfoP21CustomAttributesCache
mKj:_PerfCounterSection_get_Properties_m2899922994
NAj:_TypeConverter_ConvertFrom_m3174062747
Wxn:__Z74RuntimeInvoker_RuntimeObject_RuntimeObject_RuntimeObject_Int32_t2071877448PFvvEPK10MethodInfoPvPS4_
nTm:__ZNK15dense_hashtableINSt3__24pairIK10KeyWrapperINS1_IPK9EventInfoP11Il2CppClassEEEjEES9_17ReflectionMapHashIS8_EN14dense_hash_mapIS9_jSD_NS9_14EqualsComparerINS0_8equal_toIS8_EEEENS0_9allocatorISB_EEE9SelectKeyESI_SK_E12test_deletedERK24dense_hashtable_iteratorISB_S9_SD_SM_SI_SK_E
uhj:_TrackingServices_NotifyMarshaledObject_m3597547668
K4o:__ZL123ServicePointManagerElement_t1132364388_CustomAttributesCacheGenerator_ServicePointManagerElement_PostDeserialize_m609477801P21CustomAttributesCache
AMl:_Dictionary_2_System_Collections_Generic_IDictionaryU3CTKeyU2CTValueU3E_get_Values_m4232234235_gshared
uEe:_GroupEnumerator__ctor_m3178082424
SYf:_TimeSpanRawInfo_ProcessToken_m1592764576
_8g:_Datatype_base64Binary_CreateValueConverter_m2048811651
Uma:__ZN17ScriptingGCHandle7AcquireE18ScriptingObjectPtr25ScriptingGCHandleWeakness
kWd:_XmlDeclaration_get_Version_m1438414526
Caj:_ModuleBuilder_getToken_m111203084
o5i:_ConstructorBuilder_not_supported_m3687319507
RBl:_ConditionalWeakTable_2__ctor_m3945060102_gshared
JWl:_ConfigurationProperty_ConvertToString_m137757750
q$o:__ZL127ConfigurationElementCollection_t1911180302_CustomAttributesCacheGenerator_ConfigurationElementCollection_IsReadOnly_m2147280149P21CustomAttributesCache
c_h:_TimeZoneInfo_TZif_GetZoneAbbreviation_m3150850552
UPi:_RIPEMD160Managed_MDTransform_m2051237836
htk:_TypeBuilderInstantiation_InflateType_m3073955193
Rgk:_List_1_RemoveAll_m1131472556_gshared
ZDg:_Single_System_IConvertible_ToInt64_m3555853323_AdjustorThunk
jgo:__ZL78Convert_t2607082565_CustomAttributesCacheGenerator_Convert_ToSByte_m1570938941P21CustomAttributesCache
vDo:__ZL61Context_t502196753_CustomAttributesCacheGenerator_local_slotsP21CustomAttributesCache
tjm:_Comparison_1_EndInvoke_m3607184408_gshared
oSf:_DateTimeFormatInfo_internalGetAbbreviatedMonthNames_m1814647955
Kyh:_TaskFactory_1_FromAsyncTrim_TisRuntimeObject_TisRuntimeObject_m1205811994_gshared
cGl:_U3CU3Ec__DisplayClass35_0_U3CFromAsyncImplU3Eb__0_m3589401141_gshared
E6:__Z21HasAlphaTextureFormat13TextureFormat
MB:__ZN12AudioManager6UpdateEv
x6:__ZN14ImageReference9BlitImageERKS_NS_8BlitModeE
tyk:_MonoMethod_get_MethodHandle_m1882915015
lQk:_List_1_System_Collections_IList_Remove_m2807290816_gshared
HHo:__ZL93ConstructorInfo_t2851816542_CustomAttributesCacheGenerator_ConstructorInfo_Invoke_m2144827141P21CustomAttributesCache
ywg:_PermissionSet_CasOnlyDemand_m4066014621
jjf:_ObjectReader_RegisterObject_m4098046951
UQi:_RSAEncryptionPadding_Equals_m2718101767
Ccc:__ZNK5physx2Gu16SupportLocalImplINS0_11ConvexHullVEE9doSupportERKNS_6shdfnd3aos5Vec3VERNS5_6FloatVESA_
Sqb:__ZN23CachedSerializationDataD2Ev
TIb:__ZNK25CameraStackRenderingState31CalculateStereoCameraTargetTypeEv
x9b:__ZNK5physx3Cct13BoxController8getActorEv
xCa:__ZN14RenderSettings23VirtualRedirectTransferER14SafeBinaryRead
pJo:__ZL126Pointer_t937075087_CustomAttributesCacheGenerator_Pointer_System_Runtime_Serialization_ISerializable_GetObjectData_m4103721774P21CustomAttributesCache
kCg:_SecurityManager_ResolveIdentityPermissions_m1481575524
pVd:_XmlConvert_ToBoolean_m1218506242
$bn:__ZN6il2cpp2os10ThreadImpl15CurrentThreadIdEv
$Rn:__Z39RuntimeInvoker_NegotiateState_t62894417PFvvEPK10MethodInfoPvPS4_
bfo:__ZL62ApplicationException_t474868623_CustomAttributesCacheGeneratorP21CustomAttributesCache
ZTl:__ZN21InterfaceFuncInvoker2IP6Type_tP8String_tbE6InvokeEjP11Il2CppClassP12Il2CppObjectS3_b
Xya:__ZN17GlobalGameManager8TransferI17RemapPPtrTransferEEvRT_
qXi:_HostProtectionPermission_Intersect_m2022349535
Twd:__ZN5physx6shdfnd8internal8HashBaseIPNS_2Gu12TriangleMeshES5_NS0_4HashIS5_EENS1_11HashSetBaseIS5_S7_NS0_9AllocatorELb1EE6GetKeyES9_Lb1EE5eraseERKS5_
ypg:_AppDomainInitializer_EndInvoke_m4003801172
Mao:__ZL66RuntimeArray_CustomAttributesCacheGenerator_Array_Sort_m2544329074P21CustomAttributesCache
Cnm:_AudioExtensionManager_WriteExtensionProperties_m4015275001
dCa:__ZN16LevelGameManager8TransferI18StreamedBinaryReadILb0EEEEvRT_
Zlm:_Nullable_1_get_Value_m3600185652_gshared
zra:__Z17IsObjectAvailablei
AUa:__ZN12InputManagerD0Ev
Oki:_U3CU3Ec_U3Cget_AsyncWaitHandleU3Eb__12_0_m2422421757
Apn:__ZN6il2cpp6icalls8mscorlib6System11Diagnostics10StackTrace9get_traceEP15Il2CppExceptionib
UKp:_glDeleteSync__wrapper
BOg:_UnicodeEncoding_GetBytes_m1337660232
wEc:__ZN5physx2Sc9RigidCore20removeShapeFromSceneERNS0_9ShapeCoreEb
REd:__ZN5physx6shdfnd8internal8HashBaseINS0_4PairIKPKcjEES5_NS0_4HashIS5_EENS1_11HashMapBaseIS5_jS9_NS_7profile26WrapperReflectionAllocatorIjEEE6GetKeyESD_Lb1EE15reserveInternalEj
VWh:_Volatile_Read_m691241342
uie:_XmlSchemaException_CreateMessage_m974845933
QJe:_RegexCharClass_IsECMAWordChar_m3027135773
Spp:_posix_memalign
PTb:__ZN13ProduceHelperI12MeshRendererLb0EE7ProduceE18MemLabelIdentifier18ObjectCreationMode
xzd:__ZN5physx11RTreeCooker18buildFromTrianglesERNS_2Gu5RTreeEPKNS_6PxVec3EjPKtPKjjRNS_6shdfnd5ArrayIjNSB_19ReflectionAllocatorIjEEEEPNS0_13RemapCallbackEfNS_17PxMeshCookingHint4EnumE
oBe:_X509ChainImpl_Finalize_m1855493920
e3j:_StringDictionary_GetEnumerator_m2202077700
Q6f:_FacetsCompiler_ParseFacetValue_m1538097815
cao:__ZL87RuntimeArray_CustomAttributesCacheGenerator_Array_CreateInstance_m679102425____lengths1P21CustomAttributesCache
fqd:__ZN29PxsCreateFinalizeContactsTaskD0Ev
ncm:_LogCallback_Invoke_m115567905
JGn:__Z38RuntimeInvoker_PaddingMode_t3032142640PFvvEPK10MethodInfoPvPS4_
vtj:_CertificateValidationCallback2_BeginInvoke_m3996282202
Wyj:_SslClientStream_get_ClientCertSelectionDelegate_m2316959461
z9e:_DateTime_ToLongTimeString_m2023388196_AdjustorThunk
GP:__ZNK15MonoScriptCache7ReleaseEv
Azm:__ZN6il2cpp2vm5Class13HasReferencesEP11Il2CppClass
Eld:__ZN5physx9PxTaskMgrC2EPNS_15PxCpuDispatcherEPNS_15PxGpuDispatcherEPNS_15PxSpuDispatcherE
ug:_glBindTexture
eCj:_DesignerSerializationVisibilityAttribute_get_Visibility_m1322167120
Qnp:_snprintf
j3i:_Binder__ctor_m1361613966
w$i:_OperatingSystem_get_Version_m2896234424
zHp:_emscripten_glVertexAttrib1fv__wrapper
i$a:__Z36scripting_liveness_calculation_begin17ScriptingClassPtriPFvPP12Il2CppObjectiPvES3_PFvvES7_
SEk:_U3CU3Ec__DisplayClass4_0__ctor_m547129340
CYj:_DnsPacket_ReadName_m1993749079
vfa:__ZN16UniformCacheGLES6CreateERK20GpuProgramParameters
l5h:_UInt64_CompareTo_m3513742483
gyh:_Array_InternalArray__IndexOf_TisPlayableBinding_t2498078091_m398853908_gshared
_gp:_ScriptableObject_t1975622470_marshal_pinvoke_cleanup
fLg:_Encoding_GetString_m1894033578
_yl:_Nullable_1_Equals_m3860982732_gshared
ZFp:_emscripten_glGetProgramInfoLog__wrapper
RPn:__Z53RuntimeInvoker_Position_t1796812729_Int32_t2071877448PFvvEPK10MethodInfoPvPS4_
QQ:__ZN17PersistentManager23DestroyFromFileInternalEi
iZl:_ProviderSettings_get_Type_m525859805
IGg:_TermInfoDriver_AddToBuffer_m3582367680
Tdf:_Decimal_System_IConvertible_ToChar_m2425091200_AdjustorThunk
XBb:__Z19SetupMotionMatricesR6CameraR18RPDataMotionVector
RLf:_Enum_ToString_m2112979707
FCo:__ZL55SoapServices_t3397513225_CustomAttributesCacheGeneratorP21CustomAttributesCache
$8n:__Z92RuntimeInvoker_RuntimeObject_Scene_t1684909666_Scene_t1684909666_RuntimeObject_RuntimeObjectPFvvEPK10MethodInfoPvPS4_
ZNh:_XsdDuration__ctor_m3979164466_AdjustorThunk
Mgj:_MonoMethodMessage_get_MethodName_m3580519713
Tuj:_RecordProtocol_encryptRecordFragment_m1241873183
uke:_SchemaDeclBase_get_Datatype_m161239581
Mbd:__ZN5physx19PxsMaterialCombiner24combineIsotropicFrictionERKNS_15PxsMaterialDataES3_
d3j:_StringDictionary_Add_m4083181659
cLf:_Enum_t2459695545_marshal_pinvoke_cleanup
FMj:_DeflateStream__ctor_m450635905
LAi:_Enumerator_System_Collections_IEnumerator_get_Current_m610493107_AdjustorThunk
cte:_XmlBaseConverter_ChangeType_m3814664514
rhp:_HitInfo_t1761367055_marshal_pinvoke_cleanup
Fgh:_WebRequest_get_PrefixList_m1613234376
uNk:_AuthenticatedStream_get_InnerStream_m1596144922
_vk:_MethodInfo_CreateDelegate_m1666794722
xQg:_UTF8Encoding_GetBytes_m4170182058
NVi:_PermissionBuilder_Create_m2085370112
TSg:_CancellationTokenSource_NotifyCancellation_m3745403233
Pwo:__ZL99CryptoStream_t3531341937_CustomAttributesCacheGenerator_CryptoStream_WriteAsyncInternal_m3859937209P21CustomAttributesCache
kVc:__ZN5physx22NpParticleBaseTemplateINS_16PxParticleSystemENS_16NpParticleSystemEE20lockParticleReadDataEv
Sua:__ZN22CreateGpuProgramOutputC2Ev
Z3f:_Datatype_untypedAtomicType_CreateValueConverter_m50785369
tqe:_XdrValidator_ProcessInlineSchema_m3519483029
Hrf:_RuntimeType_get_IsGenericParameter_m2448599096
$1g:_DtdParser_ParseComment_m4127509714
Son:__ZN6il2cpp2os21ConditionVariableImpl9TimedWaitEPNS0_13FastMutexImplEj
b_o:__ZL91MonoTlsSettings_t302829305_CustomAttributesCacheGenerator_U3CTrustAnchorsU3Ek__BackingFieldP21CustomAttributesCache
b0f:_Datatype_ENTITY_get_TypeCode_m431887104
Hbf:_DateTimeOffset_Parse_m181945946
eGi:_ValueCollection_System_Collections_Generic_ICollectionU3CTValueU3E_Clear_m898633189_gshared
kCe:_X509ChainImplMono_get_CertificateAuthorities_m2681658125
MQf:_CultureData_MonthDay_m735790340
Cwi:_Comparer_1_System_Collections_IComparer_Compare_m2842668209_gshared
Xse:_XmlBaseConverter_ToString_m1610637154
Fxd:__ZN5physx7Cooking16cookTriangleMeshERKNS_18PxTriangleMeshDescERNS_14PxOutputStreamE
EId:__ZN14CompletionTask4InitEPN5physx7PxSceneE
Tvc:__ZN5physx2Sc7ElementD0Ev
cAd:__ZN5physx6shdfnd10Foundation7releaseEv
Wpo:__ZL66AbandonedMutexException_t2161467836_CustomAttributesCacheGeneratorP21CustomAttributesCache
TLj:_TraceSection__cctor_m2961939940
Hc:invoke_vidi
nlg:_DeriveBytes_Adjust_m105515328
O$g:_Function__cctor_m1895070917
onb:__Z18Transfer_BlittableI18StreamedBinaryReadILb0EELb0ExEvRK29SerializationCommandArgumentsR31RuntimeSerializationCommandInfo
Xqe:_XmlAnyConverter_ToBoolean_m4063143686
nck:_List_1_Reverse_m2360972097_gshared
Qgn:__ZN6il2cpp5utils11StringUtils15StringDuplicateEPKc
mKb:__Z15CanAddComponentR10GameObjectPKN5Unity4TypeE
aBo:__ZL101WriteObjectInfo_t2489189536_CustomAttributesCacheGenerator_WriteObjectInfo_InitMemberInfo_m2089046027P21CustomAttributesCache
hua:__ZNK9ShaderLab21ShaderRasterStateDesc16ToGfxRasterStateEPK19ShaderPropertySheetS3_R14GfxRasterState
avf:_CspParameters__ctor_m2480441577
Mrn:__ZN6il2cpp2os9EventImplC2Ebb
Gbj:_DynamicPropertyCollection_NotifyMessage_m840388347
blp:_Map_OnCoverRightClicked_m833144493
Y7n:__Z37RuntimeInvoker_Enumerator_t3879574782PFvvEPK10MethodInfoPvPS4_
ns:__ZN4PPtrI13MonoBehaviourE8TransferI19StreamedBinaryWriteILb0EEEEvRT_
YWn:__Z98RuntimeInvoker_RuntimeObject_RuntimeObject_RayU26_t3651946800_Single_t2076509932_Int32_t2071877448PFvvEPK10MethodInfoPvPS4_
fKh:_XsdBuilder_ProcessCData_m2887383632
$3j:_CharConverter_ConvertFrom_m3420092019
nM:__Z20IsMatrixBuiltinParamPKcPi
jCn:__Z122RuntimeInvoker_Void_t1841601450_RuntimeObject_Int32_t2071877448_NumberBufferU26_t1544552882_RuntimeObject_SByte_t454417549PFvvEPK10MethodInfoPvPS4_
C0h:_Type_GetType_m260400695
jRm:__ZN15dense_hashtableINSt3__24pairIK10KeyWrapperINS1_IPK10MethodInfoP11Il2CppClassEEEjEES9_17ReflectionMapHashIS8_EN14dense_hash_mapIS9_jSD_NS9_14EqualsComparerINS0_8equal_toIS8_EEEENS0_9allocatorISB_EEE9SelectKeyESI_SK_E16reset_thresholdsEv
fTb:__ZN8Renderer19PostInitializeClassEv
Yqk:_SymbolType_MakeByRefType_m544388395
m0m:__ZN6il2cpp2vm9Exception22RaiseOverflowExceptionEv
Pkl:_InternalEnumerator_1_System_Collections_IEnumerator_Reset_m1665876303_AdjustorThunk
iIl:_Tuple_4_System_Collections_IStructuralEquatable_Equals_m1873162208_gshared
Mil:_InternalEnumerator_1_get_Current_m1943362081_AdjustorThunk
qNe:_Uri_PrivateParseMinimal_m221624716
vsp:__ZNKSt3__27num_getIwNS_19istreambuf_iteratorIwNS_11char_traitsIwEEEEE15__do_get_signedIxEES4_S4_S4_RNS_8ios_baseERjRT_
Iom:__ZL23UnresolvedVirtualCall_8P12Il2CppObjectPK10MethodInfo
fnn:__ZN6il2cpp6icalls8mscorlib6System8Delegate23CreateDelegate_internalEP20Il2CppReflectionTypeP12Il2CppObjectP22Il2CppReflectionMethodb
Ycf:_Decimal_System_Runtime_Serialization_IDeserializationCallback_OnDeserialization_m1617409306
FDk:_ResourceReader_ReadUnalignedI4_m3457906474
umi:_U3CU3Ec_U3C_cctorU3Eb__22_1_m3390676264
ATi:_TailStream_Read_m2023538180
lqb:__ZN18DelayedCallManager18CancelCallDelayed2E4PPtrI6ObjectEPF15CallObjectStatePS1_PvES7_
hxk:_MonoCMethod_get_DeclaringType_m4147430117
zle:_SchemaEntity_get_BaseURI_m2970105815
I5k:_ReadOnlyCollection_1_System_Collections_IList_Clear_m3520193783_gshared
qco:__ZL92TimeZoneInfo_t436210607_CustomAttributesCacheGenerator_TimeZoneInfo_TZif_ToInt32_m2692280297P21CustomAttributesCache
WVh:_ThreadPool_NotifyWorkItemComplete_m3480628571
Oka:__ZN25ThreadsafeLinearAllocator10ReallocateEPvji
tab:__Z18Transfer_BlittableI14SafeBinaryReadLb1E11QuaternionfEvRK29SerializationCommandArgumentsR31RuntimeSerializationCommandInfo
bCc:__ZNK5physx18PxArticulationLink8isKindOfEPKc
a8f:_LeafRangeNode_get_Min_m564033315
OY:__ZN18SpriteAtlasManagerD0Ev
TBi:_KeyCollection__ctor_m40025794_gshared
Grl:_InternalEnumerator_1_get_Current_m4010463147_AdjustorThunk
q$f:_Datatype_dayTimeDuration_TryParseValue_m1692347671
P2c:__ZN5physx13NpVolumeCache13onOriginShiftERKNS_6PxVec3E
PId:__Z25CreatePxMeshFromUnityMeshP4MeshbbRK10Matrix4x4f13TransformTypef
rmn:_GC_disable
iRa:__ZN10Matrix4x4f8TransferI14SafeBinaryReadEEvRT_
Eo:FUNCTION_TABLE_vifiiiiiiiiiiiiiiiiii
aoi:_UnmanagedMemoryStream_ReadByte_m2501145010
HPi:_RijndaelManagedTransform_Dec_m3815383295
zLl:_Dictionary_2__ctor_m406310120_gshared
rUm:__ZN14dense_hash_mapI10KeyWrapperIPK22Il2CppGenericParameterEPK24MonoGenericParameterInfoN6il2cpp5utils11PointerHashIS2_EENS4_14EqualsComparerINSt3__28equal_toIS3_EEEENSD_9allocatorINSD_4pairIKS4_S7_EEEEE15set_deleted_keyERSJ_
Zge:_XPathException__ctor_m3230282264
Hbo:__ZL60MulticastDelegate_t3201952435_CustomAttributesCacheGeneratorP21CustomAttributesCache
fAl:_Predicate_1__ctor_m3590135001_gshared
ZXf:_TextInfo_GetHashCodeOrdinalIgnoreCase_m1952695184
izo:__ZL61ISurrogateSelector_t1912587528_CustomAttributesCacheGeneratorP21CustomAttributesCache
h$a:__ZL14OnWorldStoppedv
m1l:_ExceptionDispatchInfo__ctor_m187981287
ZPf:_CompareInfo_CreateSortKey_m526197471
ckb:__Z18Transfer_BlittableI18StreamedBinaryReadILb1EELb0E8Vector3fEvRK29SerializationCommandArgumentsR31RuntimeSerializationCommandInfo
oTl:_U3CPrivateImplementationDetailsU3E_ComputeStringHash_m1374938272
XWn:__Z81RuntimeInvoker_RuntimeObject_Ray_t2469606224_Single_t2076509932_Int32_t2071877448PFvvEPK10MethodInfoPvPS4_
udm:_Color_ToString_m55788918_AdjustorThunk
W3:__ZN7ApiGLES18ClearBufferSubDataEjN2gl12BufferTargetEll
_ee:_XmlValidatingReader_get_NodeType_m3339514925
t_b:__Z37Camera_Get_Custom_PropAllCamerasCountv
ZPa:__ZN14Texture2DArray8TransferI18StreamedBinaryReadILb0EEEEvRT_
Fbi:_Int64_System_IConvertible_ToSingle_m1678482180
xFc:__ZN5physx15NpActorTemplateINS_18PxArticulationLinkEED2Ev
cGb:__Z18ApplyOcclusionMaskR19ProbeOcclusionCacheRK17LightProbeContextRK10RenderNodeb
cVk:_ObjectEqualityComparer_1__ctor_m2919982004_gshared
jjm:_Comparison_1_Invoke_m3450372787_gshared
h7e:_DateTime_get_InternalTicks_m383583151_AdjustorThunk
Lhi:_FileStreamAsyncResult__ctor_m1096228032
__l:_ProviderSettingsCollection_GetElementKey_m2598146650
jb:invoke_fiiii
tcf:_DBNull_System_IConvertible_ToSByte_m1228193074
sZh:_TimeZoneInfo_ConvertTime_m2282214989
p5o:__ZL103SwitchElement_t4125397718_CustomAttributesCacheGenerator_SwitchElement_t4125397718____Name_PropertyInfoP21CustomAttributesCache
xKe:_RegexInterpreter_SetOperator_m2684422645
GId:__Z19ExtractDataFromMeshR4MeshR13dynamic_arrayI8Vector3fLj4EERS1_ItLj2EES6_
w9d:_XmlTextReaderImpl_Throw_m1967164990
Bum:_UnityAction_1_Invoke_m3979091955_gshared
fCl:_ConfiguredTaskAwaiter_GetResult_m2361999369_AdjustorThunk
B6m:__ZN6il2cpp6icalls8mscorlib6System11RuntimeType8get_NameEP27Il2CppReflectionRuntimeType
Cfo:__ZL98BitConverter_t3195628829_CustomAttributesCacheGenerator_BitConverter_Int64BitsToDouble_m3858788408P21CustomAttributesCache
Pdn:__ZN6il2cpp2vm12AssemblyName22FillNativeAssemblyNameERK18Il2CppAssemblyNameP22Il2CppMonoAssemblyName
Xwp:__ZNKSt3__25ctypeIcE9do_narrowEPKcS3_cPc
PGc:__ZN5physx2Sc16ArticulationCore26setMaxProjectionIterationsEj
jvg:_SecurityElement__ctor_m1988489885
GUe:_Char_CheckNumber_m3925890193
Ejc:__ZN26IntersectAnyVsMeshCallbackILi1ELb0EED2Ev
e_f:_TimeSpanResult_t782244817_marshal_pinvoke
BWi:_FileIOPermission_ThrowInvalidFlag_m3641784676
P2d:_XmlNodeList_PrivateDisposeNodeList_m185675068
Xhn:__ZN6il2cpp2vm8Profiler12GCHeapResizeEx
sDp:dynCall_viiifi
xba:__ZN18GfxFramebufferGLES20ActiveContextChangedEPP17RenderSurfaceBaseS2_
dBg:_ZoneMembershipCondition_ToString_m336783421
fmo:__ZL51TimeSpan_t3430258949_CustomAttributesCacheGeneratorP21CustomAttributesCache
fJo:__ZL93MethodInfo_t_CustomAttributesCacheGenerator_MethodInfo_GetGenericMethodDefinition_m2181741828P21CustomAttributesCache
rHh:_XmlSchemaSimpleType_Clone_m1118797942
bki:_U3CU3Ec_U3CBeginReadInternalU3Eb__39_0_m781288898
kba:__Z19PluginsRenderMarkeri
zMg:_InternalEncoderBestFitFallbackBuffer_MovePrevious_m3219890190
vbn:__ZN6il2cpp2os7Console20InternalKeyAvailableEi
Oze:_XmlSchemaExternal_set_Id_m3016482649
F_g:_XPathNodeInfoAtom_get_LocalName_m1797829463
DPa:__ZN14Texture2DArray21AwakeFromLoadThreadedEv
Egk:_List_1_CopyTo_m3472874869_gshared
oob:__Z29Transfer_Blittable_ArrayFieldI18StreamedBinaryReadILb0EEyEvRT_R9ArrayInfoRK23StaticTransferFieldInfo
e9l:_X509CertificateEnumerator_get_Current_m3129374511
qOl:_EqualityComparer_1_get_Default_m875724809_gshared
Iqm:__ZL25UnresolvedVirtualCall_116P12Il2CppObjectS0_S0_28StreamingContext_t1417235061S0_PK10MethodInfo
QOc:__ZNK5physx7NpCloth25getNbSelfCollisionIndicesEv
fFo:__ZL57DispIdAttribute_t607560947_CustomAttributesCacheGeneratorP21CustomAttributesCache
zso:__ZL122AsyncCausalityTracer_t4124660798_CustomAttributesCacheGenerator_AsyncCausalityTracer_t4124660798____LoggingOn_PropertyInfoP21CustomAttributesCache
ou:__ZN12AudioManager17RemoveAudioSourceEP11AudioSource
gRj:_ProxyElement__ctor_m3827693026
BTf:_DateTimeFormatInfo_GetCombinedPatterns_m3619584565
VCk:_FastResourceComparer__ctor_m665085899
BBh:_Array_InternalArray__ICollection_CopyTo_TisKeyValuePair_2_t4275477795_m133069946_gshared
vAi:_Enumerator_Dispose_m4156741384_AdjustorThunk
g$h:_TimeZoneInfo_System_Runtime_Serialization_ISerializable_GetObjectData_m3268765269
Wao:__ZL83RuntimeArray_CustomAttributesCacheGenerator_RuntimeArray____LongLength_PropertyInfoP21CustomAttributesCache
ybe:_XmlTextReaderImpl_Close_m646621480
IOk:__ZN23InterfaceActionInvoker2IP24UInt64U5BU5D_t1668688775iE6InvokeEjP11Il2CppClassP12Il2CppObjectS1_i
SUk:_ObjectEqualityComparer_1__ctor_m3140922189_gshared
YAj:_DecimalConverter_ConvertTo_m2911370646
dvd:__ZNK5physx2Gu10ConvexMesh17getReferenceCountEv
XEf:_Array_InternalArray__get_Item_TisUInt64_t2909196914_m2580870875_gshared
rRj:_SettingsSectionInternal_get_Ipv6Enabled_m1497204314
e3c:__ZN5physx2Sc5Scene22setNbContactDataBlocksEj
yOh:_XsdValidator_Push_m2287185269
mcm:_Application_CallLogCallback_m1825082967
yD:__ZN5physx14PxLightCpuTask12addReferenceEv
Rwk:_MonoCMethod_GetParametersInternal_m405992244
pHi:_Dictionary_2__ctor_m277168078_gshared
gLa:__ZN21EnlightenSceneMapping8TransferI19StreamedBinaryWriteILb0EEEEvRT_
A7m:__ZN6il2cpp2gc16GarbageCollector19InitializeFinalizerEv
DBo:__ZL105ObjectReader_t1476095226_CustomAttributesCacheGenerator_ObjectReader_ResolveSimpleAssemblyName_m998808872P21CustomAttributesCache
Cao:__ZL66RuntimeArray_CustomAttributesCacheGenerator_Array_Sort_m4096942812P21CustomAttributesCache
pwc:__ZN5physx2Sc5Scene10removeBodyERNS0_7BodySimE
auj:_Context_get_ClientWriteKey_m2235605337
Vwo:__ZL66DESCryptoServiceProvider_t933603253_CustomAttributesCacheGeneratorP21CustomAttributesCache
Kxl:_InternalEnumerator_1_MoveNext_m4231033518_AdjustorThunk
kgb:__Z35Transfer_Blittable_FixedBufferFieldI24GenerateTypeTreeTransferxEvRK29SerializationCommandArgumentsR31RuntimeSerializationCommandInfo
KGo:__ZL67TypeForwardedFromAttribute_t68050954_CustomAttributesCacheGeneratorP21CustomAttributesCache
WZm:__ZNSt3__212basic_stringIcNS_11char_traitsIcEENS_9allocatorIcEEE6__initIPcEENS_9enable_ifIXsr21__is_forward_iteratorIT_EE5valueEvE4typeES9_S9_
XAb:__Z20CalculateSqrDistanceRK8Vector3fRK4AABB
djo:__ZL80Enum_t2459695545_CustomAttributesCacheGenerator_Enum_InternalBoxEnum_m4168222049P21CustomAttributesCache
tJd:__ZN14PhysicsManager15ProcessContactsEv
f1n:__Z53RuntimeInvoker_Int32_t2071877448_TZifType_t1855764066PFvvEPK10MethodInfoPvPS4_
sog:_AggregateException__ctor_m2095680393
ghc:__ZN21BoxTraceSegmentReport7onEventEjPj
KBc:__ZN5physx2Sc21ArticulationJointCore13setSwingLimitEff
By:__Z32AudioMixerDuckingProcessCallbackP21UnityAudioEffectStatePfS1_jii
Upp:__ZNSt3__27__sort3IRNS_6__lessIiiEEPiEEjT0_S5_S5_T_
Tcc:__ZL20HullProjectionCB_BoxRKN5physx2Gu13PolygonalDataERKNS_6PxVec3ERKNS_2Cm8Matrix34ERKNS7_23FastVertex2ShapeScalingERfSE_
e4i:_CustomAttributeTypedArgument_GetHashCode_m999147081_AdjustorThunk
Xnn:__ZN6il2cpp5utils21CollapseAdjacentStarsERKNSt3__212basic_stringIcNS1_11char_traitsIcEENS1_9allocatorIcEEEE
b5c:__ZN5physx17PxcNpMemBlockPool19releaseUnusedBlocksEv
v$f:_Datatype_decimal_get_FacetsChecker_m1263736327
wAi:_Enumerator_MoveNext_m3293466169_gshared
nhi:_FileStream_Read_m3880951166
dfg:_AuthenticodeDeformatter_VerifySignature_m2341869550
Ehd:__ZN5physx14PxsAABBManager21selfCollideAggregatesEPKNS_19AggregateSortedDataE
eGe:_RegexWriter_StringCode_m727159485
hom:_AudioExtensionManager_Update_m3727859914
ev:__ZN12AudioManager8TransferI24GenerateTypeTreeTransferEEvRT_
G5:__Z25GetBytesFromTextureFormat13TextureFormat
tQa:__ZN9Texture3D19UnloadFromGfxDeviceEb
LQf:_CultureData_LeapYearMonthNames_m248517473
BTh:_TaskFactory_CheckMultiTaskContinuationOptions_m717392640
Mpd:__ZN5physx12_GLOBAL__N_112innerProductERKNS_14Px1DConstraintERS1_RKNS0_9MassPropsE
Svp:__ZNKSt3__28messagesIcE7do_openERKNS_12basic_stringIcNS_11char_traitsIcEENS_9allocatorIcEEEERKNS_6localeE
teb:__Z18Transfer_BlittableI17RemapPPtrTransferLb0EsEvRK29SerializationCommandArgumentsR31RuntimeSerializationCommandInfo
clj:___BinaryParser_ReadObjectString_m1431229953
fsh:_Array_InternalArray__ICollection_Remove_TisContactPoint_t1376425630_m2242111467_gshared
mno:__ZL96DateTimeRawInfo_t1887088787_CustomAttributesCacheGenerator_DateTimeRawInfo_GetNumber_m1288261758P21CustomAttributesCache
w6g:_BinaryFacetsChecker_MatchEnumeration_m221165766
FQ:__Z32scripting_class_get_assemblyname17ScriptingClassPtr
Yho:__ZL66Decimal_t724701077_CustomAttributesCacheGenerator_NearPositiveZeroP21CustomAttributesCache
XNd:__ZN11UnityEngine15PlatformWrapper15GetVRDeviceNameEv
SOl:_EqualityComparer_1_System_Collections_IEqualityComparer_Equals_m459863666_gshared
Sch:_SafeSocketHandle_ReleaseHandle_m3275412161
Sdd:__ZN5physx26PxcFrictionPatchStreamPairC2ERNS_17PxcNpMemBlockPoolE
INe:_Uri_ResolveHelper_m2343108069
JFm:__ZN6il2cpp2vm13MetadataCache23GetInvokerMethodPointerEPK10MethodInfoPK20Il2CppGenericContext
Qga:__ZN9GfxDevice21RegisterNativeTextureE9TextureIDi16TextureDimension
NRf:_CultureInfo__ctor_m456863818
deg:_ASN1__ctor_m3389976449
don:__ZN6il2cpp2vm6Atomic6Read64EPVx
zIm:__ZNSt3__26vectorIPK10MethodInfoNS_9allocatorIS3_EEE26__swap_out_circular_bufferERNS_14__split_bufferIS3_RS5_EE
Oan:__ZN6il2cpp2os10SocketImpl6CreateENS0_13AddressFamilyENS0_10SocketTypeENS0_12ProtocolTypeE
tVl:_PropertyInformation__ctor_m3964645511
dD:__Z60Register_UnityEngine_AudioListener_GetNumExtensionPropertiesv
qj:_emscripten_glUniformMatrix4fv
UWm:__ZN15dense_hashtableINSt3__24pairIK10KeyWrapperINS1_IP11Il2CppClassjEEES4_EES6_N6il2cpp8metadata14ArrayClassHashEN14dense_hash_mapIS6_S4_SB_NS6_14EqualsComparerINSA_17ArrayClassCompareEEENS0_9allocatorIS8_EEE9SelectKeyESF_SH_E13set_empty_keyERKS8_
v5a:__ZN12ScriptMapperD2Ev
j5k:_ReadOnlyCollection_1_System_Collections_IList_Remove_m1752507943_gshared
WDd:__ZN9Rigidbody13AwakeFromLoadE17AwakeFromLoadMode
wlj:_Converter_ToArrayType_m1741405473
nJm:__ZN15dense_hashtableINSt3__24pairIK10KeyWrapperIPK9EventInfoEP11Il2CppClassEES6_N6il2cpp6icalls8mscorlib6System19Il2CppEventInfoHashEN14dense_hash_mapIS6_S9_SF_NS6_14EqualsComparerINSE_22Il2CppEventInfoCompareEEENS0_9allocatorISA_EEE9SelectKeyESJ_SL_E12resize_deltaEjj
fQh:_Ucs4Encoding2143__ctor_m2068311979
Vjk:_List_1_set_Capacity_m3345328102_gshared
pHc:__ZNK5physx14NpSceneQueries10multiQueryINS_12PxOverlapHitEEEbRKNS_15MultiQueryInputERNS_13PxHitCallbackIT_EENS_7PxFlagsINS_9PxHitFlag4EnumEtEEPKNS_12PxQueryCacheERKNS_17PxQueryFilterDataEPNS_21PxQueryFilterCallbackEPNS_20BatchQueryFilterDataE
jNi:_KeyedHashAlgorithm_Dispose_m1864300576
h7l:_X509Certificate_PEM_m49854707
HId:__ZL21GetMeshLocationDetailR4Mesh
Xkh:_X509BasicConstraintsExtension__ctor_m3320418592
see:_XmlTextWriter_WriteCData_m3919162990
o8l:_ExtendedKeyUsageExtension_Decode_m901297139
g2a:__Z32TransferEnumWithNameForceIntSizeI14SafeBinaryRead7FogModeEvRT_RT0_PKc17TransferMetaFlags
KEj:_PropertyDescriptorCollection_System_Collections_IDictionary_get_Item_m3701519105
IUo:__ZL89SafeWaitHandle_t481461830_CustomAttributesCacheGenerator_SafeWaitHandle__ctor_m1710231470P21CustomAttributesCache
HPh:_Ucs4Decoder__ctor_m3560133110
N3a:__ZN9ShaderLab20SerializedSubProgram16TextureParameter8TransferI19StreamedBinaryWriteILb0EEEEvRT_
bYl:_ConfigurationLockCollection_GetEnumerator_m3742833280
yb:invoke_fiiiiiiiifiiiif
s8d:_XmlTextReaderImpl_InitTextReaderInput_m2955978425
Xja:__ZNK7Hash12812PackToUInt32Ev
B1j:_KeysCollection_System_Collections_ICollection_get_SyncRoot_m2289369147
FSm:__ZNSt3__218uninitialized_fillIPNS_4pairIK10KeyWrapperINS1_IPK12PropertyInfoP11Il2CppClassEEEjEESB_EEvT_SD_RKT0_
Pmj:___BinaryWriter_WriteInt64_m1312877999
$Ck:_NeutralResourcesLanguageAttribute_get_CultureName_m412552241
Vco:__ZL92RuntimeType_t2836228502_CustomAttributesCacheGenerator_RuntimeType_MakeGenericType_m60241861P21CustomAttributesCache
uS:__ZNSt3__227__insertion_sort_incompleteIRNS_6__lessI14ObjectLoadDataS2_EEPS2_EEbT0_S6_T_
RH:__ZN11UnityEngine15CloudWebService16SessionContainer8AddEventEPNS0_14CloudEventInfoE
xfa:__Z4TrimRKN4core12basic_stringIcNS_20StringStorageDefaultIcEEEES5_
sLm:_il2cpp_shutdown
V6g:_CompiledIdentityConstraint__cctor_m2555789179
thg:_SignerInfo_get_UnauthenticatedAttributes_m3089523236
N3i:_CustomAttributeNamedArgument_Equals_m2691468532
tLp:b106
Fxk:_MonoEvent_GetCustomAttributesData_m3071810182
Kne:_DecimalStruct_get_Dvalue_m447139339
HEf:_Array_InternalArray__get_Item_TisEphemeron_t1875076633_m3969769273_gshared
owo:__ZL103CryptoConfig_t896479599_CustomAttributesCacheGenerator_CryptoConfig_CreateFromName_m2169102076____args1P21CustomAttributesCache
wOa:__ZN10VertexData8TransferI14SafeBinaryReadEEvRT_
RAc:__ZN5physx19NpArticulationJointD0Ev
Rxl:_Nullable_1_get_HasValue_m2390520973_AdjustorThunk
q6:__ZN11TextureData17GetImageReferenceEii
K0l:_IteratorStateMachineAttribute__ctor_m2105120017
rHd:__ZN5physx9NpPhysics14createInstanceEjRNS_12PxFoundationERKNS_17PxTolerancesScaleEbPNS_20PxProfileZoneManagerE
WKd:__Z59Register_UnityEngine_Physics_INTERNAL_CALL_Internal_Raycastv
vpn:__ZN6il2cpp5utils6Memory13AlignedMallocEjj
z5i:_ConstructorBuilder_GetILGenerator_m1731893569
G1c:__ZNK5physx7NpScene17getFilterCallbackEv
cog:_Action_EndInvoke_m2530841739
ptl:_InternalEnumerator_1_System_Collections_IEnumerator_Reset_m2220673169_AdjustorThunk
$Un:__Z66RuntimeInvoker_Boolean_t3825574718_ManualResetEventU26_t3037302663PFvvEPK10MethodInfoPvPS4_
G5m:__ZNSt3__214__split_bufferIN6il2cpp2vm5Image20EmbeddedResourceDataERNS_9allocatorIS4_EEED2Ev
GO:__ZL20SortItemByInstanceIDRKN18AwakeFromLoadQueue4ItemES2_
ZGd:__ZN5physx6shdfnd5ArrayIPvNS0_15InlineAllocatorILj256ENS0_19ReflectionAllocatorINS_24NpPtrTableStorageManager8PtrBlockILi16EEEEEEEE15growAndPushBackERKS2_
ngh:_AbortHelper__ctor_m2380517857
gQi:_RNGCryptoServiceProvider_RngClose_m2921734810
E9f:_PlusNode__ctor_m1875475696
q6k:_ReadOnlyCollection_1_System_Collections_IList_Insert_m3858331600_gshared
TQd:__ZN20UnityConnectSettings8TransferI24GenerateTypeTreeTransferEEvRT_
tui:_ConcurrentDictionary_2__ctor_m2600786074_gshared
P4n:__Z60RuntimeInvoker_ILExceptionInfo_t1490154598_Int32_t2071877448PFvvEPK10MethodInfoPvPS4_
eoj:_BinaryFormatter_GetTypeInformation_m1027088553
_dl:_SimpleCollator_IsHalfKana_m4255579023
G6l:_InternalAsyncResult_get_Count_m1291942796
Rko:__ZL64NotSupportedException_t1793819818_CustomAttributesCacheGeneratorP21CustomAttributesCache
x$l:_SectionInfo_ResetModified_m3031322071
ojm:_Comparison_1_BeginInvoke_m3853204669_gshared
LLc:__ZN5physx7NpShape13setRestOffsetEf
g7e:_DateTime__ctor_m2878842909_AdjustorThunk
_en:__ZNK15dense_hashtableINSt3__24pairIK10KeyWrapperIPK19Il2CppGenericMethodEP10MethodInfoEES6_N6il2cpp8metadata23Il2CppGenericMethodHashEN14dense_hash_mapIS6_S9_SD_NS6_14EqualsComparerINSC_26Il2CppGenericMethodCompareEEENS0_9allocatorISA_EEE9SelectKeyESH_SJ_E10test_emptyERK30dense_hashtable_const_iteratorISA_S6_SD_SL_SH_SJ_E
coa:__Z16FlaggedAsSkippedIN4core12basic_stringIcNS0_20StringStorageDefaultIcEEEEEbRK13FileEntryInfoRKT_19FileEnumerationFlag
Wni:_UnmanagedMemoryStream_get_Length_m587008850
oU:__ZL31InitializeRendererUpdateManagerPv
axe:_XmlSchemaAttributeGroup_get_AttributeUses_m573848375
ESi:_SHA384Managed_Ch_m220483159
yyl:_Nullable_1_Equals_m1817623273_gshared
Q9d:_XmlTextReaderImpl_get_QuoteChar_m1059898783
lMc:__ZN5physxL11getTriangleERKNS_2Gu12TriangleMeshEjPNS_6PxVec3EPKS4_PKvRKNS_2Cm8Matrix34Eb
Hdn:__ZN6il2cpp2gc16GarbageCollector9StopWorldEv
kC:__ZN13AudioListener12CleanupClassEv
HDd:__ZN14SafeBinaryRead21TransferSTLStyleArrayINSt3__26vectorIjNS1_9allocatorIjEEEEEEvRT_17TransferMetaFlags
mvj:_ClientSessionInfo_Dispose_m2571428025
vHa:__ZNSt3__26__treeINS_12__value_typeIiNS_4pairIP4ListI8ListNodeI9BehaviourEES8_EEEENS_19__map_value_compareIiSA_NS_4lessIiEELb1EEENS_9allocatorISA_EEE7destroyEPNS_11__tree_nodeISA_PvEE
_xj:_RecordProtocol_decryptRecordFragment_m2510859489
WIl:_InvokableCall_1__ctor_m975753341_gshared
Ajp:_Bomb_remove_Exploded_m3171991135
h4i:_ArrayType__ctor_m2180920014
win:__ZN6il2cpp6icalls6System6System3Net3Dns15GetHostByName40EP12Il2CppStringPS6_PP11Il2CppArraySA_i
rNc:__ZNK5physx7NpCloth16lockParticleDataEv
VLh:_XsdBuilder_InitGroupRef_m2569332263
yto:__ZL102AwaitTaskContinuation_t2160930432_CustomAttributesCacheGenerator_AwaitTaskContinuation_Run_m1161992469P21CustomAttributesCache
BMo:__ZL53TextReader_t1561828458_CustomAttributesCacheGeneratorP21CustomAttributesCache
hEh:_Array_InternalArray__Insert_TisLabel_t4243202660_m4038784163_gshared
v8g:_ContentValidator_ExpectedElements_m1990545702
qVa:__ZN11TimeManager8TransferI19StreamedBinaryWriteILb0EEEEvRT_
iii:_DelegatePInvokeWrapper_ReadDelegate_t3184826381
Rvm:__ZN6il2cpp6icalls8mscorlib6System7Decimal10FCallRoundEP13Il2CppDecimali
HDk:_ResourceReader_GetNamePosition_m3036750610
DCe:_X509ChainStatus_set_Status_m4288653744_AdjustorThunk
IOd:__ZN11UnityEngine15PlatformWrapper27GetGraphicsCapsSupportFlagsEv
m$b:__Z32Renderer_Set_Custom_PropMaterialP12Il2CppObjectS0_
a5g:_AllElementsContentValidator_ValidateElement_m338933984
jdf:_Decimal_Equals_m1115043331
R6c:__ZN5physx13NpRigidStatic9visualizeERNS_2Cm12RenderOutputEPNS_7NpSceneE
Njb:__ZN12NativeBufferI16Converter_StringE15SetupForWritingER9ArrayInfo
$Gh:_XmlSchemaSimpleContentExtension_get_AnyAttribute_m3303977301
HCn:__Z72RuntimeInvoker_Void_t1841601450_TypedReference_t1025199857_RuntimeObjectPFvvEPK10MethodInfoPvPS4_
fKp:___cxa_end_catch__wrapper
s4f:_DatatypeImplementation_CreateBuiltinTypes_m4263539924
rqe:_XdrValidator__ctor_m375937105
OVc:__ZNK5physx22NpParticleBaseTemplateINS_16PxParticleSystemENS_16NpParticleSystemEE13getRestOffsetEv
l9c:__ZN5physx6shdfnd8PoolBaseINS_2Sc35ParticleElementRbElementInteractionENS0_19ReflectionAllocatorIS3_EEE15disposeElementsEv
GYe:_ObjectEqualityComparer__ctor_m3189150207
J3h:_UInt16_Parse_m706225113
OCf:_AsyncTaskMethodBuilder_1_AwaitUnsafeOnCompleted_TisRuntimeObject_TisRuntimeObject_m3874864138_AdjustorThunk
Z9i:_MethodOnTypeBuilderInst_GetCustomAttributes_m591102318
qdi:_BinaryReader_ReadUInt32_m1363572147
PLj:_TraceListenerCollection_System_Collections_IList_Insert_m2119006871
Qgo:__ZL79Convert_t2607082565_CustomAttributesCacheGenerator_Convert_ToUInt32_m3391339025P21CustomAttributesCache
Rfn:__ZN6il2cpp6icalls8mscorlib6System17RuntimeTypeHandle11GetAssemblyEP27Il2CppReflectionRuntimeType
nem:_Debug_LogWarning_m1382493163
Vqb:__ZN13MonoBehaviour22DoScriptRebuildWarningEv
v_b:__Z38Camera_CUSTOM_INTERNAL_CALL_RaycastTryP12Il2CppObjectRK3Rayfi
ltk:_TypeBuilderInstantiation_GetInterfaces_m358735393
fLf:_ValuesAndNames__ctor_m1652164405
j_m:__ZN6il2cpp6icalls8mscorlib6System5Array13ClearInternalEP11Il2CppArrayii
NUb:__ZZL23RegisterLightPropertiesR22GenericPropertyBindingEN22Wrapper_LightSpotAngle13GetFloatValueEPv
p$f:_Datatype_day__ctor_m884643093
Tlh:_PublicKey_get_EncodedKeyValue_m3051963850
aWh:_ThreadPoolWorkQueue_EnsureCurrentThreadHasQueue_m1596662517
Vag:_SchemaCollectionCompiler_Compile_m3226989111
bSm:__ZNK15dense_hashtableINSt3__24pairIK10KeyWrapperINS1_IPK11Il2CppImageP11Il2CppClassEEEjEES9_17ReflectionMapHashIS8_EN14dense_hash_mapIS9_jSD_NS9_14EqualsComparerINS0_8equal_toIS8_EEEENS0_9allocatorISB_EEE9SelectKeyESI_SK_E12test_deletedERK24dense_hashtable_iteratorISB_S9_SD_SM_SI_SK_E
qFi:_ValueCollection_System_Collections_Generic_ICollectionU3CTValueU3E_get_IsReadOnly_m215409497_gshared
lhc:__ZN5physx2Gu26EPASupportMapPairLocalImplINS0_9TriangleVENS0_4BoxVEED0Ev
NAp:_llvm_cttz_i32
Xlh:_PublicKey_DecodeDSA_m1169363495
Gxl:_InternalEnumerator_1__ctor_m2623875862_gshared
pZf:_TimeSpanParse_TryParseExact_m241326052
dqf:_RuntimeType_SanityCheckGenericArguments_m1522700336
Gtl:_InternalEnumerator_1_MoveNext_m4248732811_AdjustorThunk
Stf:_AsymmetricKeyExchangeFormatter__ctor_m3362140205
Z_m:__ZN6il2cpp5utils9PathUtils7CombineIcEENSt3__212basic_stringIT_NS3_11char_traitsIS5_EENS3_9allocatorIS5_EEEERKSA_SC_
Omj:___BinaryWriter_WriteInt32_m1729734363
Ohd:__ZN5physx14PxsAABBManager16processBPResultsERKNS_20PxsComputeAABBParamsE
qVn:__Z76RuntimeInvoker_Void_t1841601450_SByte_t454417549_RuntimeObject_RuntimeObjectPFvvEPK10MethodInfoPvPS4_
$4b:__ZN9JSONWrite8TransferI13dynamic_arrayIiLj4EEEEvRT_PKc17TransferMetaFlags
Vfd:__ZN5physx23PxsBroadPhaseContextSapD2Ev
qWl:_PropertyInformation_set_LineNumber_m4013880311
ku:__ZL16FMOD_ErrorString11FMOD_RESULT_361
Ezd:__ZN5physx12SubSortQuickC2EPjPKNS_10PxBounds3VEjf
XYm:__ZN6il2cpp2vm6Thread13YieldInternalEv
HEi:_Enumerator_Dispose_m4238653081_gshared
Jwp:__ZNSt3__2L13utf8_to_utf16EPKhS1_RS1_PtS3_RS3_mNS_12codecvt_modeE
KN:__Z18ConvertUTF16toUTF8PPKtS0_PPhS2_15ConversionFlags
Odn:__ZN6il2cpp2os20PathErrnoToErrorCodeERKNSt3__212basic_stringIcNS1_11char_traitsIcEENS1_9allocatorIcEEEEi
HMk:_Win32_IP_ADAPTER_ADDRESSES_t680756680_marshal_pinvoke
kYb:__Z24GetActualTargetFrameRatev
Dch:_NetworkStream_EndRead_m914762628
sqm:__ZL25UnresolvedVirtualCall_100P12Il2CppObjectS0_S0_S0_PK10MethodInfo
VLi:_KeySizes__ctor_m3526899007
Qfk:_List_1_Insert_m919723780_gshared
A9h:_Int16_System_IConvertible_ToInt32_m191782913_AdjustorThunk
Iap:__ZL69ArgumentCache_t4810721_CustomAttributesCacheGenerator_m_FloatArgumentP21CustomAttributesCache
dCl:_ConfiguredTaskAwaiter_UnsafeOnCompleted_m1131091015_AdjustorThunk
UIg:_EncoderReplacementFallback__ctor_m2208438262
gzb:__Z23SetupStereoFlareElementP11FlareVertexRK8Vector2fS3_S3_RK11ColorRGBA32RK10Matrix4x4fRK8Vector3fb
knn:__ZN6il2cpp6icalls8mscorlib6System6Buffer11_ByteLengthEP11Il2CppArray
_2g:_DtdParser_ScanCondSection1_m1292223111
lUn:__Z91RuntimeInvoker_X509ChainStatusFlags_t480677120_RuntimeObject_RuntimeObject_SByte_t454417549PFvvEPK10MethodInfoPvPS4_
Nfm:_RenderPipelineManager_get_currentPipeline_m1290055162
vQi:_RSACryptoServiceProvider__ctor_m2716420409
Nzm:__ZN6il2cpp2vm5Class15GetInstanceSizeEPK11Il2CppClass
W_h:_TimeZoneInfo_IsDaylightSavingTime_m2391906663
XVn:__Z79RuntimeInvoker_RuntimeObject_RuntimeObject_Int32U26_t455636984_SByte_t454417549PFvvEPK10MethodInfoPvPS4_
Vcm:_UnmarshalledAttribute__ctor_m2832569902
Xa:invoke_iiiifiiii
Y$m:__ZN6il2cpp6icalls8mscorlib6System2IOL15CloseFindHandleEPNS_2os9Directory10FindHandleE
Mpo:__ZL86WaitHandle_t677569169_CustomAttributesCacheGenerator_WaitHandle_get_Handle_m3264724944P21CustomAttributesCache
Nci:___Error_EndReadCalledTwice_m687834057
O_j:_U3CU3Ec__DisplayClass5_0__ctor_m1686914745
hko:__ZL67IndexOutOfRangeException_t3527622107_CustomAttributesCacheGeneratorP21CustomAttributesCache
RPc:__ZNK5physx2Sc9ClothCore16getRestPositionsEPNS_6PxVec4E
Ccd:__ZN5physx20PxcSweepConvexConvexERKNS_11PxsCCDShapeES2_PKNS_12PxsRigidBodyES5_RKNS_11PxTransformES8_S8_S8_fRNS_6PxVec3ESA_RNS_10PxcNpCacheERNS_18PxcNpThreadContextEf
Bfi:_Directory_GetFiles_m4036267478
kMf:_Enum_System_IConvertible_ToType_m2669300536
qWf:_NumberFormatInfo_get_CurrencyNegativePattern_m3972163809
YSc:__ZN5physx15PxsParticleDataD0Ev
$ba:__ZL19BlitFramebufferImplRN4gles23BlitFramebufferDrawQuadER9GfxDevice9TextureIDRK8Vector4f
Xdb:__Z18Transfer_BlittableI17RemapPPtrTransferLb0EhEvRK29SerializationCommandArgumentsR31RuntimeSerializationCommandInfo
vxd:__ZN5physx6shdfnd5ArrayIPvNS0_19ReflectionAllocatorIN17PxcPoolMallocData9PoolData8EEEE15growAndPushBackERKS2_
Bhp:_StackTraceUtility_ExtractStringFromExceptionInternal_m234524721
KGn:__Z102RuntimeInvoker_Boolean_t3825574718_RuntimeObject_Int32_t2071877448_Int32_t2071877448_Int32_t2071877448PFvvEPK10MethodInfoPvPS4_
o3k:_ReadOnlyCollection_1_System_Collections_IList_Add_m2333231354_gshared
$fo:__ZL78Convert_t2607082565_CustomAttributesCacheGenerator_Convert_ToSByte_m2470292806P21CustomAttributesCache
nbj:_OpCodes__cctor_m939885911
ISb:__ZN14Texture2DArray11InitTextureEiii13TextureFormatb
XNn:__Z154RuntimeInvoker_Boolean_t3825574718_Int32_t2071877448_RuntimeObject_RuntimeObject_Int32U26_t455636984_RuntimeObject_Int32U26_t455636984_Int64U26_t763825331PFvvEPK10MethodInfoPvPS4_
Txf:__ZN21InterfaceFuncInvoker2Ii26DateTimeOffset_t1362988906S0_E6InvokeEjP11Il2CppClassP12Il2CppObjectS0_S0_
rrj:_PKCS1_RSASP1_m1748738009
sok:_List_1__cctor_m3024180789_gshared
ABd:__ZN5physx15PxGeometryQuery14getWorldBoundsERKNS_10PxGeometryERKNS_11PxTransformEf
v_i:_Number_ParseNumber_m1785380145
JHa:__ZN12CubemapArray21AwakeFromLoadThreadedEv
vIk:_HttpWebRequest_DoContinueDelegate_m22231078
O8o:__ZL92AnimationCurve_t3306541151_CustomAttributesCacheGenerator_AnimationCurve_Cleanup_m3596170191P21CustomAttributesCache
eRc:__ZN5physx2Sc9ClothCore18setSolverFrequencyEf
qPe:_UriParser_InitializeAndValidate_m251943319
XEi:_Enumerator_System_Collections_IEnumerator_get_Current_m143486686_gshared
mTi:_SymmetricAlgorithm_set_Padding_m3081984460
j$l:_SectionGroupInfo_Merge_m1107900400
gVm:__ZN15dense_hashtableINSt3__24pairIK10KeyWrapperINS1_IPK11Il2CppImageP11Il2CppClassEEEjEES9_17ReflectionMapHashIS8_EN14dense_hash_mapIS9_jSD_NS9_14EqualsComparerINS0_8equal_toIS8_EEEENS0_9allocatorISB_EEE9SelectKeyESI_SK_E14squash_deletedEv
Uzj:_SslServerStream_OnLocalPrivateKeySelection_m1937205958
K8g:_Datatype_anySimpleType_get_BuiltInWhitespaceFacet_m2606756266
eUg:_ExecutionContextSwitcher_t3304742894_marshal_pinvoke_cleanup
$Ua:__ZN9InputAxis8TransferI18StreamedBinaryReadILb0EEEEvRT_
r_g:_XPathDocumentNavigator_MoveToNextNamespace_m3959130057
lDb:__ZNK6Camera26GetStereoSingleCullEnabledEv
nUo:__ZL101RegistryKey_t2287932784_CustomAttributesCacheGenerator_RegistryKey_t2287932784____Handle_PropertyInfoP21CustomAttributesCache
CTh:_TaskFactory_CheckCreationOptions_m1907973182
rof:_StreamingContext_t1417235061_marshal_pinvoke_back
Qwi:_Enumerator_get_Current_m3416754760_AdjustorThunk
Kki:_SynchronousAsyncResult_get_AsyncState_m732260747
ycc:__ZN5physx2Gu16buildPartialHullERKNS0_13PolygonalDataEPNS0_12SupportLocalERNS0_14SeparatingAxesERKNS_6shdfnd3aos5Vec3VESC_
sYa:__Z14resize_trimmedINSt3__26vectorIN4core12basic_stringIcNS2_20StringStorageDefaultIcEEEE13stl_allocatorIS6_L18MemLabelIdentifier13ELi16EEEEEvRT_j
GVe:_ArrayList_RemoveAt_m2578928333
bbb:__Z18Transfer_BlittableI14SafeBinaryReadLb0EaEvRK29SerializationCommandArgumentsR31RuntimeSerializationCommandInfo
d_k:_ReadOnlyCollection_1_System_Collections_IList_IndexOf_m1761220823_gshared
lJl:_InvokableCall_3__ctor_m4270240248_gshared
pre:_XmlAtomicValue__ctor_m2420210747
SSo:__ZL93DateTimeFormatInfo_t2187473504_CustomAttributesCacheGenerator_m_genitiveAbbreviatedMonthNamesP21CustomAttributesCache
W0k:_ReadOnlyCollection_1_System_Collections_IList_set_Item_m1233322304_gshared
t8l:_GeneralNames_get_DNSNames_m2721668874
ECn:__Z76RuntimeInvoker_Boolean_t3825574718_TimeSpan_t3430258949_TimeSpan_t3430258949PFvvEPK10MethodInfoPvPS4_
$Lf:_Enum_System_IConvertible_ToByte_m38374586
P0k:_ReadOnlyCollection_1_System_Collections_Generic_IListU3CTU3E_RemoveAt_m1592158292_gshared
hse:_XmlBaseConverter_ToBoolean_m3508180815
wEp:_emscripten_glFrustum__wrapper
N_e:_ReadOnlyCollectionBase__ctor_m3231390185
dAc:__ZNK5physx2Sc16ArticulationCore17releaseDriveCacheERNS_9PxcFsDataE
hee:_XmlTextWriter_WriteStartElement_m3953077403
kEe:_GroupCollection__ctor_m328972734
