Lc:_glClearStencil
Con:__ZN6il2cpp6icalls8mscorlib6System10Reflection10MemberInfo17get_MetadataTokenEP12Il2CppObject
rgc:__ZN5physx2Gu19gjkLocalPenetrationINS0_8CapsuleVENS0_17ShrunkConvexHullVEEEjRKT_RKT0_RKNS_6shdfnd3aos6FloatVERNSB_5Vec3VESG_SG_RSC_PhSI_Rhb
Rop:_mbrlen
hsf:_RuntimeTypeHandle_GetObjectData_m3567098501
rKh:_XsdBuilder_SendValidationEvent_m959461635
rtn:__Z79RuntimeInvoker_RuntimeObject_Int64_t909078037_Int64_t909078037_Int64_t909078037PFvvEPK10MethodInfoPvPS4_
JOf:_CultureData_get_IsInvariantCulture_m1142516247
jNf:_Exception__ctor_m3886110570
fKf:_NumberFormatInfo_ValidateParseStyleFloatingPoint_m2060805133
Lva:__Z30GetIntermediateRendererManagerv
Q1d:_XmlNamespaceManager_LookupNamespaceDecl_m1209156795
cXh:_WaitHandle_WaitAll_internal_m2381273899
tNn:__Z116RuntimeInvoker_Boolean_t3825574718_RuntimeObject_RuntimeObject_Int32_t2071877448_Int32_t2071877448_Int32_t2071877448PFvvEPK10MethodInfoPvPS4_
o6:__Z21SourceMipLevelForBlitiiii
tOa:__Z23SetSpriteMeshIndexCountP14SharedMeshDataj
p8f:_NamespaceList_get_Enumerate_m906321460
GUl:_ConfigurationLocation__ctor_m3125296074
pTf:_DateTimeFormatInfo_get_FormatFlags_m148174727
Fcn:__ZN6il2cpp2vm5Array13GetByteLengthEP11Il2CppArray
tvk:_RuntimeConstructorInfo_SerializationToString_m2841250229
d7c:__ZNK5physx2Sc5Scene24getContactModifyCallbackEv
y9f:_ParticleContentValidator_AddNamespaceList_m61246585
Yr:__ZN11UnityEngine9Animation28GenericAnimationBindingCacheD2Ev
jad:__ZN5physx2Sq10AABBPruner10addObjectsEPjPKNS_9PxBounds3EPKNS0_13PrunerPayloadEj
x0l:_DecimalConstantAttribute__ctor_m71487003
Sfn:__ZN6il2cpp6icalls8mscorlib6System17RuntimeTypeHandle9GetModuleEP27Il2CppReflectionRuntimeType
xKi:_Dictionary_2_Remove_m1849931834_gshared
W4e:_Decimal_op_Implicit_m2971610317
DUf:_GregorianCalendar_OnDeserialized_m1701616192
kj:_emscripten_glFramebufferRenderbuffer
Sb:invoke_viiiifiiiiif
YJb:__Z18RestoreRenderStateR20CameraRenderOldStateR17ShaderPassContext
Ekb:__Z18Transfer_BlittableI18StreamedBinaryReadILb1EELb1E5RectTIfEEvRK29SerializationCommandArgumentsR31RuntimeSerializationCommandInfo
Ifm:_UnityEventBase_RebuildPersistentCallsIfNeeded_m2776978024
Xwk:_MonoMethod_ConvertValues_m612939586
wgb:__Z18Transfer_BlittableI24GenerateTypeTreeTransferLb0E11ColorRGBA32EvRK29SerializationCommandArgumentsR31RuntimeSerializationCommandInfo
nQ:__Z25scripting_class_from_name17ScriptingImagePtrPKcS1_
uVm:__ZN14dense_hash_mapI10KeyWrapperINSt3__24pairIPK12PropertyInfoP11Il2CppClassEEEj17ReflectionMapHashIS8_ENS9_14EqualsComparerINS1_8equal_toIS8_EEEENS1_9allocatorINS2_IKS9_jEEEEE15set_deleted_keyERSH_
Iqb:__Z29scripting_class_enum_basetype17ScriptingClassPtr
ypc:__ZN5physx6shdfnd8PoolBaseINS_2Sc10NPhaseCore16ClothListElementENS0_19ReflectionAllocatorIS4_EEE17releaseEmptySlabsEv
ZIg:_Encoder_Reset_m1665107349
gtd:__ZN5physx2Sc14ConstraintCore10breakApartEv
o8i:_GenericTypeParameterBuilder_GetHashCode_m867619899
kIj:__Z30il2cpp_codegen_resolve_pinvokeIPFiiijiPDsiPiELj9ELj14EET_RAT0__KcRAT1__S5_20Il2CppCallConvention13Il2CppCharSetib
pnj:_Converter_IsPrimitiveArray_m2484185550
ptp:__ZNKSt3__220__time_get_c_storageIcE3__XEv
jHf:_Array_InternalArray__IReadOnlyList_get_Item_TisHitInfo_t1761367055_m3115054707_gshared
Z7a:__ZNK20LocalFileSystemPosix6ParentERK13FileEntryDataRN4core12basic_stringIcNS3_20StringStorageDefaultIcEEEE
Wzd:__ZN5physx7Cooking20loadTriangleMeshDescERKNS_18PxTriangleMeshDescERNS_19TriangleMeshBuilderE
nVm:__ZN15dense_hashtableINSt3__24pairIK10KeyWrapperINS1_IPK9EventInfoP11Il2CppClassEEEjEES9_17ReflectionMapHashIS8_EN14dense_hash_mapIS9_jSD_NS9_14EqualsComparerINS0_8equal_toIS8_EEEENS0_9allocatorISB_EEE9SelectKeyESI_SK_E15set_deleted_keyERKSB_
Bsc:__ZN5physx9NpFactory21releaseConnectorArrayEPNS_16NpConnectorArrayE
Ldh:_Socket_Accept_m678452185
Ttp:__ZNKSt3__220__time_get_c_storageIwE3__cEv
Iak:_Enumerator_MoveNext_m1386285227_gshared
f9j:_Enumerator_MoveNextRare_m3227566889_AdjustorThunk
DPb:__Z13RegisterClassI12InputManagerEvv
Ayg:_Evidence_AddHost_m366224665
Zwf:_Array_InternalArray__set_Item_TisLowerCaseMapping_t2153935826_m803830825_gshared
T3:__ZN7ApiGLES17CopyBufferSubDataEjjlll
a6h:_UInt64_System_IConvertible_ToDecimal_m4205696037
Pae:_XmlTextReaderImpl_AddDefaultAttributesAndNormalize_m1840426459
wZj:_SimpleResolver_System_IDisposable_Dispose_m690541372
T0b:__ZN5Unity9rapidjson15GenericDocumentINS0_4UTF8IcEE13JSONAllocatorS4_E11ParseStreamILj1ES3_NS0_25GenericInsituStringStreamIS3_EEEERS5_RT1_
YBb:__ZN25CameraStackRenderingState20GetOrCreateBuiltinRTE24BuiltinRenderTextureTypeii17DepthBufferFormat19RenderTextureFormatj22RenderTextureReadWrite14VRTextureUsagei
Bpp:_wmemmove
mB:__ZN11AudioModule26SetDefaultMicrophoneDriverEPv
Vmm:_AesManaged_CreateEncryptor_m1729287824
MPa:__ZNK14Texture2DArray26CanReuploadDataToGfxDeviceEv
rGb:__ZN17PrePassRenderLoop14RenderBasePassEP13RenderTextureRK14LightingLayersR13dynamic_arrayI16RenderObjectDataLj4EERbR10MinMaxAABB
pme:_SchemaInfo_Contains_m1238677288
Nqh:_Array_InternalArray__ICollection_Remove_TisKeyValuePair_2_t4275477795_m475342951_gshared
QLk:_NetworkInterface_GetIPProperties_m2611844833
qTd:__ZNK20UnityWebRequestProtoI24UnityWebRequestTransport16AtomicRefCounter14RedirectHelper14ResponseHelper15DownloadHandler13UploadHandler12HeaderHelper14AsyncOperationE14GetUploadBytesEv
fUe:_Char_System_IConvertible_ToInt16_m2741348777_AdjustorThunk
jsp:__ZNKSt3__27num_getIwNS_19istreambuf_iteratorIwNS_11char_traitsIwEEEEE6do_getES4_S4_RNS_8ios_baseERjRPv
mtp:__ZNKSt3__220__time_get_c_storageIcE3__cEv
FTn:__Z177RuntimeInvoker_Void_t1841601450_RuntimeObject_RuntimeObject_Int32U26_t455636984_RuntimeObject_Int32_t2071877448_RuntimeObject_Int32_t2071877448_SByte_t454417549_SByte_t454417549PFvvEPK10MethodInfoPvPS4_
Pel:_SimpleCollator_IndexOf_m2575613007
Bua:__ZNK15dense_hashtableINSt3__24pairIKN9ShaderLab7Program23ShaderKeywordSetAndHashEPKNS2_10SubProgramEEES4_NS3_24ShaderKeywordHashFunctorEN14dense_hash_mapIS4_S8_SA_NS0_8equal_toIS4_EE13stl_allocatorIS9_L18MemLabelIdentifier67ELi16EEE9SelectKeyESD_SG_E23find_position_with_hashERS5_j
NEo:__ZL61MarshalAsAttribute_t2900773360_CustomAttributesCacheGeneratorP21CustomAttributesCache
xDa:__ZN7Texture13SetFilterModeEi
trh:_Array_InternalArray__ICollection_Remove_TisILExceptionInfo_t1490154598_m3787603145_gshared
yhj:_TrackingServices_NotifyDisconnectedObject_m2594105274
tYj:_DnsPacket__ctor_m1180953626
Rq:__ZNSt3__26vectorIN4core12basic_stringIcNS1_20StringStorageDefaultIcEEEENS_9allocatorIS5_EEE7reserveEj
s3e:_Convert_ToUInt16_m2130758075
anf:_OptionalFieldAttribute_set_VersionAdded_m1447671603
vOk:_List_1_RemoveAt_m4232884678_gshared
imh:_X509BasicConstraintsExtension_Encode_m3505127076
xXl:_ConfigurationElementCollection_System_Collections_ICollection_CopyTo_m3947886345
bCk:_TypeDelegator_GetConstructors_m249912809
Z7m:__ZNSt3__26__treeINS_12__value_typeIjN6il2cpp2os17SocketHandleEntryEEENS_19__map_value_compareIjS5_NS_4lessIjEELb1EEENS_9allocatorIS5_EEE25__emplace_unique_key_argsIjJNS_4pairIKjS4_EEEEENSE_INS_15__tree_iteratorIS5_PNS_11__tree_nodeIS5_PvEEiEEbEERKT_DpOT0_
a_:__ZN13GfxDeviceGLES11SetViewportERK5RectTIiE
zmf:_ObjectIDGenerator_HasId_m3452805087
qin:__ZN6il2cpp6icalls8mscorlib6System10Reflection6Module15GetGuidInternalEP33mscorlib_System_Reflection_Module
eef:_Decimal_System_IConvertible_ToInt64_m2504363272
Emk:_List_1__ctor_m2300058426_gshared
Ib:invoke_vifiiii
Yqg:_Array_GetValue_m3182152438
ee:_emscripten_glDepthRange
wvf:_DESTransform_CipherFunct_m3559419566
wUl:_ConfigurationErrorsException__ctor_m3506512730
$Cp:dynCall_viiififii
pbc:__ZN5physx2Gu24contactConvexHeightfieldERKNS0_13GeometryUnionES3_RKNS_11PxTransformES6_RKfRNS0_5CacheERNS0_13ContactBufferE
cuc:__ZN5physx6shdfnd5ArrayIPvNS0_19ReflectionAllocatorINS_2Cm5BlockIS2_Lj8EEEEEE15growAndPushBackERKS2_
fMb:__ZNSt3__26vectorINS_4pairIN4core12basic_stringIcNS2_20StringStorageDefaultIcEEEES6_EE13stl_allocatorIS7_L18MemLabelIdentifier38ELi16EEE12__move_rangeEPS7_SC_SC_
f1a:__Z14resize_trimmedINSt3__26vectorIN9ShaderLab20SerializedSubProgram12UAVParameterENS0_9allocatorIS4_EEEEEvRT_j
l1b:__ZN5Unity9rapidjson13GenericReaderINS0_4UTF8IcEES3_13JSONAllocatorE11ParseObjectILj1ENS0_25GenericInsituStringStreamIS3_EENS0_15GenericDocumentIS3_S4_S4_EEEEvRT0_RT1_
Kif:_SerializationInfo_AddValue_m1781549036
qHe:_RegexCharClass_CharInCategory_m500839547
CLl:_Dictionary_2__ctor_m3143729840_gshared
Ezh:_Array_InternalArray__ICollection_Add_TisKeyValuePair_2_t1483742713_m3546344178_gshared
ZXb:__ZN13BuildSettings34ConvertScenePathToDisplayScenePathERKN4core12basic_stringIcNS0_20StringStorageDefaultIcEEEE
Dli:_StreamWriter__ctor_m2392877680
tS:__ZNSt3__218__insertion_sort_3IRNS_6__lessI14ObjectLoadDataS2_EEPS2_EEvT0_S6_T_
KYg:_Task_get_Exception_m1877859852
Gef:_DefaultBinder_SelectProperty_m3525757950
RBh:_Array_InternalArray__ICollection_CopyTo_TisInternalCodePageDataItem_t1742109366_m1498245339_gshared
flf:_WriteObjectInfo_PutObjectInfo_m643100650
O5:__ZN4crndL20crnd_default_reallocEPvjPjbS0_
eyp:__ZNSt3__26locale5__imp7installINS_9money_putIwNS_19ostreambuf_iteratorIwNS_11char_traitsIwEEEEEEEEvPT_
mid:__ZN5physx24PxsComputeAABBLocalSpaceERKNS_18PxcAABBDataDynamicERNS_9PxBounds3E
Fee:_Namespace_t1808381789_marshal_pinvoke_back
Yij:_ProviderData_CopyFrom_m431414335
jPa:__ZN18SpriteAtlasManager19AddRequestingSpriteE4PPtrI6SpriteE
wPg:_UTF32Encoding_GetPreamble_m767706727
YYg:_Task_get_CapturedContext_m4026823081
kMe:_ThrowHelper_ThrowArgumentOutOfRangeException_m232766338
MGm:__ZN6il2cpp6icalls6System6System3Net7Sockets27UnpackIPv6AddressFromBufferEPKhiPtPhPj
D6d:_XmlRegisteredNonCachedStream_Flush_m117675691
aJb:__ZN23ScriptableRenderContextC2Ev
Prh:_Array_InternalArray__ICollection_Remove_TisTZifType_t1855764066_m1081031376_gshared
mSi:_SHA256Managed_RotateRight_m3738840696
R_g:_XPathNode_get_PageInfo_m4024882799_AdjustorThunk
dzh:_Array_CheckComparerAvailable_TisUInt64_t2909196914_m2129264954_gshared
E_f:_Guid_FastNewGuidArray_m890293114
dlb:__Z18Transfer_BlittableI18StreamedBinaryReadILb1EELb1EdEvRK29SerializationCommandArgumentsR31RuntimeSerializationCommandInfo
Yyi:_Enumerator_System_Collections_IEnumerator_get_Current_m229223308_gshared
Nad:__ZN5physx6shdfnd8internal8HashBaseINS0_4PairIKNS_2Sq13PrunerPayloadEjEES5_NS0_4HashIS5_EENS1_11HashMapBaseIS5_jS9_NS0_9AllocatorEE6GetKeyESB_Lb1EE5eraseERS6_
Rqb:__Z26BuildSerializationCacheFor17ScriptingClassPtrRb
tGk:_FtpWebRequest_GetPortV4_m3293124448
Uba:__ZN7ApiGLES15BlitFramebufferEN2gl6HandleILNS0_10ObjectTypeE9EEENS0_15FramebufferReadES3_S3_iiiiiiiiNS0_15FramebufferTypeE
Fud:__ZN5physx13GuMeshFactory16createConvexMeshERNS_13PxInputStreamE
WEd:__ZN5physx6shdfnd8internal8HashBaseINS0_4PairIKPKcjEES5_NS0_4HashIS5_EENS1_11HashMapBaseIS5_jS9_NS_7profile26WrapperReflectionAllocatorIjEEE6GetKeyESD_Lb1EE6createERS6_Rb
ONf:_GC_get_ephemeron_tombstone_m228257728
Zin:__ZN6il2cpp6icalls8mscorlib6System7Runtime16CompilerServices14RuntimeHelpers15InitializeArrayEP11Il2CppArrayi
Jrf:_RuntimeType_GetGenericTypeDefinition_m3586635621
BZl:_U3CGetEnumeratorU3Ed__17_U3CU3Em__Finally1_m1690377974
jip:_UnitySynchronizationContext__ctor_m1804960286
pwi:_Comparer_1_CreateComparer_m2010657334_gshared
isb:__Z9InitInputv
CEn:__Z85RuntimeInvoker_Boolean_t3825574718_Int64_t909078037_Int64_t909078037_SByte_t454417549PFvvEPK10MethodInfoPvPS4_
W3l:_ActivatedClientTypeEntry_ToString_m1505819693
uhb:__Z29Transfer_Blittable_ArrayFieldI24GenerateTypeTreeTransfer11ColorRGBA32EvRT_R9ArrayInfoRK23StaticTransferFieldInfo
Dud:__ZNK5physx13GuMeshFactory15getConvexMeshesEPPNS_12PxConvexMeshEjj
Brf:_RuntimeType_GetEnumName_m1935239308
UQm:__ZN6il2cpp2gc19AppendOnlyGCHashMapINSt3__24pairIPK10MethodInfoP11Il2CppClassEEP22Il2CppReflectionMethod17ReflectionMapHashIS9_ENS2_8equal_toIS9_EEE3AddERKS9_SB_
c9a:__ZN16MemoryFileSystem6DeleteER13FileEntryDatab
pHm:__ZN6il2cpp6icalls6System6System3Net7Sockets6Socket23RemoteEndPoint_internalEiiPi
r3j:_AttributeCollection_get_Item_m3713562356
G6:__ZL21BlitScaleStbImageImplRK14ImageReferenceRS_NS_10ColorSpaceE
eJc:__ZN5physx10NpMaterial17setStaticFrictionEf
L7l:_TlsStream_set_Position_m378064217
u4o:__ZL66BypassElementCollection_t3411512674_CustomAttributesCacheGeneratorP21CustomAttributesCache
KVj:_FtpDataStream_BeginWrite_m3360549687
D1c:__ZNK5physx7NpScene19getFilterShaderDataEv
ocb:__Z29Transfer_Blittable_ArrayFieldI14SafeBinaryReadyEvRT_R9ArrayInfoRK23StaticTransferFieldInfo
iz:__ZN20SoundChannelInstance15setChannelGroupEPN4FMOD12ChannelGroupE
e1j:_NameObjectCollectionBase_BaseAdd_m2553984848
hEc:__ZN5physx2Sc19ShapeInstancePairLL26onPoseChangedWhileSleepingEv
H2f:_Datatype_QNameXdr_get_ValueType_m3646135839
ucd:__ZN5physx22PxcSweepCapsuleCapsuleERKNS_11PxsCCDShapeES2_PKNS_12PxsRigidBodyES5_RKNS_11PxTransformES8_S8_S8_fRNS_6PxVec3ESA_RNS_10PxcNpCacheERNS_18PxcNpThreadContextEf
h0m:__ZN6il2cpp2vm9Exception27RaiseNullReferenceExceptionEv
slc:__ZNK5physx3Cct17CapsuleController21getHalfHeightInternalEv
Joa:__ZNK25MultiBlocksMemoryFileData5CloneEv
s3k:_ReadOnlyCollection_1_System_Collections_IList_IndexOf_m3466286536_gshared
hmn:_GC_add_ext_descriptor
L2g:_DtdParser_ScanElement7_m4281294458
bih:_WebConnectionStream_EndWrite_m3252995173
qfj:_RemotingServices_GetMethodBaseFromName_m3271095947
tJp:_glInvalidateFramebuffer__wrapper
NZl:_ConfigurationXmlDocument_CreateElement_m403531351
Jrc:__ZL30GeomOverlapCallback_CapsuleBoxRKN5physx10PxGeometryERKNS_11PxTransformES2_S5_PNS_2Gu12TriggerCacheE
oBp:dynCall_iiiiiiiiiiii
jSk:_ObjectComparer_1_Compare_m2650065743_gshared
PKd:__Z38Rigidbody_CUSTOM_INTERNAL_get_velocityP12Il2CppObjectP8Vector3f
fVi:_X509CertificateImplApple_GetValidFrom_m2451066733
cKh:_XmlAttribute__ctor_m2157586764
XMd:__Z54Register_UnityEngine_Analytics_CustomEventData_AddCharv
y8:__ZN6prcoreL17RemapGenericFloatI16TexFormatRGFloat17TexFormatRGBAHalfEEvPKNS_9InnerInfoE
Ft:__ZN12AudioManager22CreateFMODSoundFromWWWEP10IWWWStream15FMOD_SOUND_TYPE17FMOD_SOUND_FORMATjjbbP10SampleClip
uTb:__ZNK32RendererMaterialAnimationBinding15GenerateBindingERKN4core12basic_stringIcNS0_20StringStorageDefaultIcEEEEbRN11UnityEngine9Animation14GenericBindingE
tyh:_AsyncTaskCache_CreateCacheableTask_TisBoolean_t3825574718_m2536151589_gshared
Usg:_ReflectionPermission_FromXml_m3665335477
CP:__ZN8Remapper23GetOrGenerateInstanceIDERK26SerializedObjectIdentifier
EJm:__ZN14dense_hash_mapI10KeyWrapperIPK9EventInfoEP11Il2CppClassN6il2cpp6icalls8mscorlib6System19Il2CppEventInfoHashENS4_14EqualsComparerINSA_22Il2CppEventInfoCompareEEENSt3__29allocatorINSF_4pairIKS4_S6_EEEEEC2EjRKSB_RKSE_
Ili:_StreamWriter_Flush_m3426120024
xii:_MemoryStream__ctor_m1489366847
gvg:_SecurityElement_IsValidTag_m64902195
Zyi:_Enumerator_System_Collections_IEnumerator_get_Current_m229223308_AdjustorThunk
FAk:_PropertyInfo_SetValue_m2961483868
X2l:_Marshal_PtrToStringAnsi_m2970070000
xPj:_CaseInsensitiveAscii_FastGetHashCode_m2558534179
mag:_SchemaAttDef__ctor_m3265559109
gwf:_Array_InternalArray__set_Item_TisKeyValuePair_2_t3800763530_m1672435878_gshared
Qpe:_XdrBuilder_XDR_InitGroup_m1475976871
xZn:__Z168RuntimeInvoker_Void_t1841601450_RuntimeObject_RuntimeObject_CancellationToken_t1851405782_Int32_t2071877448_Int32_t2071877448_RuntimeObject_StackCrawlMarkU26_t725225610PFvvEPK10MethodInfoPvPS4_
m3i:_ConstructorInfo_Invoke_m2144827141
GOa:__ZN6Sprite8TransferI24GenerateTypeTreeTransferEEvRT_
Lch:_Socket_BeginSend_m3334229134
JOa:__ZN7SubMesh8TransferI24GenerateTypeTreeTransferEEvRT_
zYl:_ConfigurationProperty__ctor_m1536343945
ONj:_GZipStream_Seek_m265045829
uzk:_MonoProperty_get_CanWrite_m2124922514
RGg:_TermInfoDriver_IsSpecialKey_m3036269876
pac:__ZN5physx3Cct10Controller6setPosERKNS_14PxExtendedVec3E
$Hm:__ZN6il2cpp6icalls8mscorlib6SystemL16CheckMemberMatchI9FieldInfoNS_5utils10functional6FilterINSt3__212basic_stringIcNS8_11char_traitsIcEENS8_9allocatorIcEEEENS5_13VmStringUtils23CaseInsensitiveComparerEEEEEbPKT_PK11Il2CppClassSN_iRKT0_
wcc:__ZN5physx2GuL14testFaceNormalERKNS0_13PolygonalDataES3_PNS0_12SupportLocalES5_RKNS_6shdfnd3aos15PsMatTransformVESA_RKNS7_6FloatVERSB_RjRNS7_5Vec3VENS0_13FeatureStatusERSI_
Qne:_DecimalStruct__ctor_m2271194909
Nzh:_Array_InternalArray__ICollection_Add_Tisbucket_t976591655_m3940110802_gshared
UCh:_Array_InternalArray__ICollection_CopyTo_TisXPathResultType_t1521569578_m408444316_gshared
wak:_Enumerator_MoveNext_m2019024253_gshared
ERb:__ZN13ProduceHelperI14Texture2DArrayLb0EE7ProduceE18MemLabelIdentifier18ObjectCreationMode
ukf:_SerializationInfoEnumerator_get_Value_m3437991400
Prc:__ZL32GeomOverlapCallback_ConvexConvexRKN5physx10PxGeometryERKNS_11PxTransformES2_S5_PNS_2Gu12TriggerCacheE
l$e:_SortedList_GetKeyList_m3012651170
WJh:_XsdBuilder_SendValidationEvent_m2171215572
j6m:__ZN6il2cpp8metadata15GenericMetadata15GetGenericClassEiPK17Il2CppGenericInst
MEn:__Z118RuntimeInvoker_CancellationTokenRegistration_t1708859357_RuntimeObject_RuntimeObject_SByte_t454417549_SByte_t454417549PFvvEPK10MethodInfoPvPS4_
SQe:_Boolean_System_IConvertible_ToInt16_m977801621
Pab:__Z18Transfer_BlittableI14SafeBinaryReadLb0E10Matrix4x4fEvRK29SerializationCommandArgumentsR31RuntimeSerializationCommandInfo
hqb:__Z24GetFixedBehaviourManagerv
jzb:__ZN12FlareManager9UpdateJobEP25FlareManagerUpdateJobData
Ump:_vfprintf
Off:_SerializationException__ctor_m1019897788
dkf:_WriteObjectInfo_CheckTypeForwardedFrom_m1613691574
Gza:__ZN19ShaderPropertySheet20ReservePropertyCountEj
h_m:__ZN6il2cpp6icalls8mscorlib6System7Runtime15InteropServices7Marshal12BufferToBSTREP11Il2CppArrayi
Tzb:__ZN20DynamicPropertySheetD0Ev
ugn:__ZN6il2cpp5utils11StringUtils6PrintfEPKcz
kMb:__ZN14SafeBinaryRead17RegisterConverterEPKcS1_PFbPvRS_E
iL:__ZN35RegisterRuntimeInitializeAndCleanup8RegisterEPFvPvES2_iS0_
cDd:__ZN14PhysicMaterial8TransferI18StreamedBinaryReadILb0EEEEvRT_
n4j:_CultureInfoConverter_ConvertFrom_m1481396941
D6m:__ZN6il2cpp6icalls8mscorlib6System11RuntimeType11getFullNameEP27Il2CppReflectionRuntimeTypebb
dDa:__ZN20SphericalHarmonicsL215AddAmbientLightERK10ColorRGBAf
ycd:__ZN5physx25PxcSweepConvexHeightfieldERKNS_11PxsCCDShapeES2_PKNS_12PxsRigidBodyES5_RKNS_11PxTransformES8_S8_S8_fRNS_6PxVec3ESA_RNS_10PxcNpCacheERNS_18PxcNpThreadContextEf
_hg:_DSAManaged_NormalizeArray_m2287089393
q0b:__Z21Object_CUSTOM_DestroyP12Il2CppObjectf
Gug:_StrongNameIdentityPermission__ctor_m2269785344
iQh:_Ucs4Encoding__ctor_m2464034903
t5a:__ZN8Material26ResetAllCachedMaterialDataEP6Shader
iQe:_BitConverter_ToUInt32_m4153360341
L$l:_AsyncTaskMethodBuilder_Create_m2365585067
ca:invoke_diddi
P7j:_Enumerator_System_Collections_IEnumerator_get_Current_m203376360_gshared
Nyg:_Hash__ctor_m3045600999
y$j:_MonoSslStreamImpl_AuthenticateAsClient_m2763496729
$9a:__Z18Transfer_BlittableI14SafeBinaryReadLb0EiEvRK29SerializationCommandArgumentsR31RuntimeSerializationCommandInfo
pGm:__ZN6il2cpp2vm13MetadataCache30GetPropertyDefinitionFromIndexEi
KDk:_ResourceEnumerator__ctor_m1679839941
kWc:__ZN5physx14NpRigidDynamic7releaseEv
Zei:_MonoIO_GetException_m2577367044
xQd:__ZN22BaseUnityConnectClient17InitializeSessionERKN4core12basic_stringIcNS0_20StringStorageDefaultIcEEEES6_N19CloudServiceHandler13InitModeFlagsE
WDi:_Enumerator_MoveNext_m1404007384_gshared
Z_i:_NumberFormatter_get_IsZero_m1325357749
O8c:__ZN5physx6shdfnd8PoolBaseINS_21PxsBodyTransformVault13PxsBody2WorldENS0_19ReflectionAllocatorIS3_EEE15disposeElementsEv
tHp:_emscripten_glDeleteBuffers__wrapper
yLf:_Enum_ToObject_m322320225
TTi:_X509Certificate__ctor_m3860837120
jtp:__ZNKSt3__220__time_get_c_storageIcE7__weeksEv
yic:__ZN5physx2Gu30computeCapsule_TriangleMeshMTDERKNS_22PxTriangleMeshGeometryERKNS_11PxTransformERNS0_8CapsuleVEffbRNS_10PxSweepHitE
_zf:_Array_Sort_TisRuntimeObject_m3674422195_gshared
DYa:__ZN30RuntimeInitializeOnLoadManager8TransferI18StreamedBinaryReadILb0EEEEvRT_
DLl:_Dictionary_2__ctor_m1206668798_gshared
Vrk:_TypeBuilder_not_supported_m3178173643
rZb:__ZL34GetComponentsImplementationRecurseILb1ELi0ELi2EEbR10GameObjectbRK17CompareParametersRK39GetComponentsImplementation_ReturnValue
cNj:_DeflateStream_get_CanWrite_m2090715306
Tfg:_X509Stores_get_TrustedRoot_m346131232
nzb:__ZNK6Camera18WorldToScreenPointERK8Vector3fPb
Eid:__ZN5physx2Cm12DelegateTaskINS_10PxsContextEXadL_ZNS2_28mergeCMDiscreteUpdateResultsEPNS_10PxBaseTaskEEEE11runInternalEv
yLd:__ZN14UnityAnalyticsD0Ev
rzd:__ZN5physx19TriangleMeshBuilder10importMeshERKNS_18PxTriangleMeshDescERKNS_15PxCookingParamsEb
VZm:__ZNSt3__215basic_stringbufIcNS_11char_traitsIcEENS_9allocatorIcEEED2Ev
AEf:_Array_InternalArray__get_Item_TisILTokenInfo_t149559338_m2004750537_gshared
oba:__Z18IsCompressedFormat14GraphicsFormat
_Te:_Convert_ToSByte_m2665932200
OO:__ZNSt3__227__insertion_sort_incompleteIRPFbRKN18AwakeFromLoadQueue4ItemES4_EPS2_EEbT0_S9_T_
Iop:_strrchr
rEm:__ZN14dense_hash_mapI10KeyWrapperIN6il2cpp5utils13dynamic_arrayIPK10Il2CppTypeLj4EEEEPFvvENS1_8metadata19Il2CppSignatureHashENS8_14EqualsComparerINSB_22Il2CppSignatureCompareEEENSt3__29allocatorINSG_4pairIKS8_SA_EEEEE15set_deleted_keyERSJ_
eZo:__ZL124XmlSchemaSimpleContent_t2303138587_CustomAttributesCacheGenerator_XmlSchemaSimpleContent_t2303138587____Content_PropertyInfoP21CustomAttributesCache
k7g:_Compiler_CompileElement_m1067365263
lPc:__ZN5physx6shdfnd5ArrayINS_18PxClothFabricPhaseENS0_19ReflectionAllocatorIS2_EEE8recreateEj
MKa:__ZN26EnlightenSystemInformation8TransferI14SafeBinaryReadEEvRT_
JAj:_TypeConverter_CanConvertFrom_m1277808141
rBh:_Array_InternalArray__ICollection_CopyTo_TisEntry_t1422871999_m646712475_gshared
bYf:_TextInfo_CompareOrdinalIgnoreCaseEx_m3031886726
RRd:__ZN11UnityEngine15PlatformWrapper20SetPlayerPrefsUInt64ERKN4core12basic_stringIcNS1_20StringStorageDefaultIcEEEEy
DSa:__ZN12MeshRendererD0Ev
BC:__ZN12AudioManager35GetCurrentSpatializerDefinitionNameEv
Cgc:__ZN5physx2Gu16sweepBoxTriangleERKNS_10PxTriangleERKNS_9PxBounds3ERKNS_6PxVec3ES9_RS7_SA_Rf
OYe:_Hashtable__ctor_m2702360557
Wh:_utime
bAd:__ZN5physx10writeChunkEaaaaRNS_14PxOutputStreamE
ERj:_WebRequestModuleElement_get_Type_m63808568
sOm:__ZNSt3__26vectorIN6il2cpp2vm17TypeNameParseInfoENS_9allocatorIS3_EEE8allocateEj
gpe:_XdrBuilder_ParseInteger_m2793348660
pUn:__Z91RuntimeInvoker_RuntimeObject_RuntimeObject_RuntimeObject_Int32_t2071877448_SByte_t454417549PFvvEPK10MethodInfoPvPS4_
mn:FUNCTION_TABLE_viiiiif
Ljj:_RemotingConfiguration_SetCustomErrorsMode_m1844153208
epf:_RuntimeType_CreateInstanceSlow_m3417127260
Tn:FUNCTION_TABLE_viiiiii
o4f:_Datatype_yearMonthDuration_get_TypeCode_m3216553330
RUg:_ManualResetEventSlim_set_Waiters_m400855668
Fwi:_Comparer_1_CreateComparer_m3888292209_gshared
gyg:_DefaultPolicies_get_LocalIntranet_m917665752
sIi:_Dictionary_2_System_Collections_Generic_ICollectionU3CSystem_Collections_Generic_KeyValuePairU3CTKeyU2CTValueU3EU3E_Add_m627006978_gshared
_Fc:__ZN5physx2Sc9RigidCore13onShapeChangeERNS0_9ShapeCoreENS_7PxFlagsINS0_21ShapeChangeNotifyFlag4EnumEjEENS4_INS_11PxShapeFlag4EnumEhEE
IRf:_CultureInfo_GetFormat_m3560116485
tGh:_XmlSchemaParticle_get_MaxOccursString_m365438406
MXf:_TextInfo_ToLowerInternal_m1927706523
KTc:__ZN5physx6shdfnd5ArrayIPvNS0_15InlineAllocatorILj256ENS0_19ReflectionAllocatorINS_2Sc19ParticlePacketShapeEEEEEE15growAndPushBackERKS2_
bfd:__ZN5physx17solveContactBlockEPKNS_23PxcSolverConstraintDescEjRNS_16PxcSolverContextE
kAd:__ZN5physx6shdfnd10FoundationD2Ev
xGb:__ZN15LightmapSTCacheC2ER13BatchRendererR15RenderLoopStats
vYa:__ZNSt3__26vectorIN4core12basic_stringIcNS1_20StringStorageDefaultIcEEEE13stl_allocatorIS5_L18MemLabelIdentifier13ELi16EEE8__appendEj
ekj:_TrackingServices__cctor_m3639412334
uIf:_GameObject_GetComponentsInChildren_TisRuntimeObject_m3906671769_gshared
EH:__ZN19CloudServiceHandler20StartEventDispatcherERKN11UnityEngine15CloudWebService18CloudServiceConfigERNS1_23WebRequestRestHeaderMapE
vvg:_StrongNamePublicKeyBlob_Equals_m2407250401
B8b:__ZN27PerformanceReportingManager21OnSceneTimingCallbackERK15SceneLoadTimingRKN4core12basic_stringIcNS3_20StringStorageDefaultIcEEEE
j9c:__ZN5physx2Sc10NPhaseCoreD2Ev
Mtc:__ZN5physx2Sc7BodySim18onConstraintDetachEv
zNm:__ZN6il2cpp2os4File9SetLengthEPNS0_10FileHandleExPi
qMk:_sockaddr_in6_t2899168071_marshal_pinvoke
KIk:_HttpWebResponse__ctor_m2248254905
qUb:__ZZL23RegisterLightPropertiesR22GenericPropertyBindingEN20Wrapper_LightColorr013SetFloatValueEPvf
zi:_emscripten_glGetTexParameteriv
J1c:__ZN5physx7NpScene8simulateEfPNS_10PxBaseTaskEPvjb
Cfm:_UnityEvent_RemoveListener_m3048567659
Jql:_InternalEnumerator_1_get_Current_m3206960238_gshared
rIi:_Dictionary_2_Add_m2429188034_gshared
$rj:_RSAManaged_ImportParameters_m3060955884
pdi:_MemoryStream_InternalReadInt32_m3765849075
Ezf:_Array_Sort_TisDateTime_t693205669_m1593980430_gshared
JPb:__Z13RegisterClassI4MeshEvv
odi:_BinaryReader_ReadInt32_m1811936587
gKf:_Double_TryParse_m815528105
Pbe:_XmlTextReaderImpl_get_IsResolverSet_m242420327
JBk:_StrongNameKeyPair_GetRSA_m2992233029
gv:__ZN12AudioManager8TransferI19StreamedBinaryWriteILb0EEEEvRT_
snf:_SafeSerializationManager_OnDeserialized_m1586876701
QVl:_ConfigurationProperty_get_IsElement_m12977767
nse:_XmlBaseConverter_ToDateTime_m914294991
OCc:__ZN5physx18NpArticulationLink10clearForceENS_11PxForceMode4EnumE
Ymg:___DTString__ctor_m981507327_AdjustorThunk
mdc:__ZN5physx2Gu30distanceSegmentTriangleSquaredERKNS_6PxVec3ES3_S3_S3_S3_PfS4_S4_
Vrf:_RuntimeType_FormatTypeName_m1823158961
xhf:_SerStack__ctor_m1632652053
H7a:__ZN22LocalFileSystemHandler9MakeLocalER13FileEntryDatab
Toe:_XdrValidator_CheckDefaultValue_m1908846847
Dwg:_String_op_Inequality_m304203149
Zef:_Delegate_arg_type_match_this_m906553673
yGk:_NetworkCredential_InternalGetPassword_m1924511716
ZWi:_FileIOPermissionAttribute_CreatePermission_m1105139803
aY:__Z13FormatOrderedPKcz
Sei:_Path_IsPathRooted_m1347207448
HHj:_DefaultExtendedTypeDescriptor_System_ComponentModel_ICustomTypeDescriptor_GetConverter_m1534642667_AdjustorThunk
dQb:__Z13RegisterClassI15QualitySettingsEvv
c5l:_ClientIdentity_set_ClientProxy_m3932647473
gGb:__ZN25DeferredRenderLoopScratchD0Ev
IV:__ZN14PlayableOutput26ClearInvalidSourcePlayableEv
eTg:_CancellationTokenSource_Dispose_m2531076100
wZm:__ZThn28_N46ManagedErrorInfo_t914761495_ComCallableWrapper37IErrorInfo_GetHelpContext_m3383284997EPjPi
P_:__ZN13GfxDeviceGLES9SkinOnGPUERK18VertexStreamSourceP9GfxBufferP17GPUSkinPoseBufferS4_ii17ShaderChannelMaskb
O0a:__ZN15dense_hashtableINSt3__24pairIKiN4core17string_with_labelILi1EEEEEi18SInt32HashFunctionN14dense_hash_mapIiS5_S7_NS0_8equal_toIiEE13stl_allocatorIS6_L18MemLabelIdentifier1ELi16EEE9SelectKeyESA_SD_E9copy_fromERKSG_j
Qva:__ZN6Camera11ResetAspectEv
dXa:__ZN15ResourceManagerD0Ev
kmh:_X509BasicConstraintsExtension_get_HasPathLengthConstraint_m3788532759
Fza:__ZNK17InstancedPropInfo22FillInstancePropertiesER19ShaderPropertySheetjPK17BatchInstanceDatajRK15RenderNodeQueue
Nua:__ZN22CreateGpuProgramOutputD2Ev
smc:__ZNK5physx3Cct15ObstacleContext14getNbObstaclesEv
Fpg:_AppDomainSetup_get_ApplicationBase_m1978500372
Kgf:_FormatterServices_get_formatterServicesSyncObject_m4136787239
IQi:_RSACryptoServiceProvider_EncryptValue_m802714447
H7h:_VersionResult_SetFailure_m3977921922_AdjustorThunk
bxd:__ZN5physx6shdfnd8PoolBaseINS_11NpAggregateENS0_19ReflectionAllocatorIS2_EEE12allocateSlabEv
QZh:_TimeZoneInfo__ctor_m2916511705
eMk:_UnixNetworkInterface_SetLinkLayerInfo_m963974689
Qye:_XmlSchemaDatatype_DeriveByUnion_m1031622243
EUc:__ZN5physx7NpScene26removeFromParticleBaseListERNS_14PxParticleBaseE
RSf:_DateTimeFormatInfo_GetInstance_m3133223810
rpj:_ModulusRing_BarrettReduction_m2802101099
sUc:__ZN5physx23NpParticleFluidReadData18getDataAccessFlagsEv
S6a:__ZN12HandlerChain4OpenER13FileEntryData14FilePermission16FileAutoBehavior
uWi:_FileDialogPermission_ToXml_m2633979114
u2j:_OrderedDictionary_System_Runtime_Serialization_IDeserializationCallback_OnDeserialization_m1457654302
YQm:__ZN15dense_hashtableINSt3__24pairIK10KeyWrapperINS1_IPK10MethodInfoP11Il2CppClassEEEjEES9_17ReflectionMapHashIS8_EN14dense_hash_mapIS9_jSD_NS9_14EqualsComparerINS0_8equal_toIS8_EEEENS0_9allocatorISB_EEE9SelectKeyESI_SK_E6insertERKSB_
N8b:__ZN27PerformanceReportingManager29OnSceneLoadedAfterAwakeStaticEPS_iR18AwakeFromLoadQueueN19RuntimeSceneManager11LoadingModeE
OR:__ZN14FileCacherReadD2Ev
n_a:__ZN13RendererScene23UpdatePreviousFrameDataEii
vRi:_RSAPKCS1SignatureDeformatter_VerifySignature_m1825067195
Q_b:__Z50Register_UnityEngine_CullingGroup_FinalizerFailurev
S5j:_KeyValuePair_2_ToString_m2613351884_gshared
X_a:__ZN27UnloadUnusedAssetsOperationD0Ev
HOf:_NumberFormatInfo_ReadOnly_m2289393823
WYj:_DnsResourceRecordAAAA__ctor_m1749576842
mKl:_Dictionary_2_Resize_m2807616086_gshared
bcd:__ZN5physx10PxsCCDPair12updateShapesEv
kQh:_Ucs4Encoding1234_GetPreamble_m2237950777
aSi:_SHA256Managed_HashCore_m4111458495
uRf:_CultureInfo_get_CompareInfo_m3085280862
sDh:_Array_InternalArray__Insert_TisEntry_t1114109354_m1716981637_gshared
Qmf:_ObjectManager_RecordDelayedFixup_m1895730844
MOf:_Calendar_IsValidYear_m1298443129
sGm:__ZN6il2cpp2vm13MetadataCache25GetIndexForTypeDefinitionEPK11Il2CppClass
Xs:__ZN9AudioClip23VirtualRedirectTransferER18StreamedBinaryReadILb0EE
nvj:_ClientSessionInfo_CheckDisposed_m1394638186
Jsf:_SByte_Parse_m2544167007
wMe:_UriParser_InFact_m1536069688
$Fj:_TypeDescriptor_get_ComObjectType_m2976006721
xve:_XmlNumeric2Converter_ToSingle_m1571723791
R6d:_XmlResolver_ResolveUri_m1553678733
mfl:_BigInteger__ctor_m2945783161
Pwj:_TlsClientHello_Update_m1723542631
M8h:_IndexOutOfRangeException__ctor_m3497760912
Uuc:__ZN5physx16PxsIslandManager25setArticulationLinkHandleEjPvRKNS_20PxsIslandManagerHookIjLj4294967295EEE
Yj:_glCopyTexSubImage2D
kjj:_RealProxy_InternalGetTransparentProxy_m3415358600
CTb:__ZNK24RendererAnimationBinding13GetFloatValueERKN11UnityEngine9Animation10BoundCurveE
lif:_ObjectManager_DoNewlyRegisteredObjectFixups_m3886515649
wKp:_glActiveTexture__wrapper
qzj:_SslClientStream_NegotiateAsyncWorker_m2862430224
CLb:__ZN18ScreenManagerWebGL13SetShowCursorEb
dnp:_frexp
JEc:__ZN5physx6shdfnd5ArrayIPNS_3Scb5ShapeENS0_15InlineAllocatorILj16ENS0_19ReflectionAllocatorIS4_EEEEE15growAndPushBackERKS4_
Lab:__Z18Transfer_BlittableI14SafeBinaryReadLb0E5RectTIfEEvRK29SerializationCommandArgumentsR31RuntimeSerializationCommandInfo
R0:__ZN9GfxDevice18InsertCustomMarkerEi
Zmp:_fmt_u
SSf:_DateTimeFormatInfo_GetFormat_m3676195179
w4:__ZN14GfxContextGLES14GetFramebufferEv
KHp:_emscripten_glGenVertexArrays__wrapper
j7:__ZN6prcoreL21CreateRemapAnyBlitterE13TextureFormatS0_
Hrn:__ZN6il2cpp2os5Event4WaitEjb
PXb:__ZN17AnimationCurveTplIfE16StripInvalidKeysEv
CQg:_UTF8Encoding_GetChars_m4254629357
Kzh:_Array_InternalArray__ICollection_Add_TisKeyValuePair_2_t3716250094_m2381539361_gshared
Wem:_InvokableCall_add_Delegate_m1994890856
vmg:_X509Extension_WriteLine_m2850991173
klj:_Converter_ToType_m1024860700
NMm:_il2cpp_method_has_attribute
zPb:__Z13RegisterClassI17GlobalGameManagerEvv
tMa:__ZN8Renderer24SetupNewRendererForSceneEv
A9j:_Enumerator__ctor_m1305469837_AdjustorThunk
Bih:_U3CU3Ec__DisplayClass80_0_U3CWriteRequestAsyncU3Eb__0_m2549911274
F_i:_Number_ParseUInt64_m354836256
hrh:_Array_InternalArray__ICollection_Remove_TisInt64_t909078037_m2653583130_gshared
Gcd:__ZN5physx8CCDSweepINS_2Gu8CapsuleVENS1_4BoxVEEEbRT_RT0_RKNS_6shdfnd3aos15PsMatTransformVERKNS9_12PsTransformVERKNS9_5Vec3VERKNS9_6FloatVESI_SI_RSJ_RSG_SN_f
nDf:_BaseInvokableCall_ThrowOnInvalidArg_TisInt32_t2071877448_m2823200566_gshared
J5b:__Z35Transfer_Blittable_FixedBufferFieldI8JSONReadtEvRK29SerializationCommandArgumentsR31RuntimeSerializationCommandInfo
ynd:__ZN5physx2Sc8ClothSim16addCollisionMeshEPKNS0_8ShapeSimE
bOa:__ZNK6Sprite22GetTypeVirtualInternalEv
I9d:_XmlTextReaderImpl_ParseNamedCharRefInline_m1975988262
hEl:_U3CU3Ec_U3C_cctorU3Eb__64_0_m2836396924_gshared
Nn:FUNCTION_TABLE_iiiiiiiiiiiiii
eUn:__Z100RuntimeInvoker_Void_t1841601450_SByte_t454417549_SByte_t454417549_Int32_t2071877448_SByte_t454417549PFvvEPK10MethodInfoPvPS4_
Bsd:__ZN5physx6shdfnd5ArrayIPKNS_10PxsCCDBodyENS0_19ReflectionAllocatorIS4_EEE8recreateEj
Nmj:___BinaryWriter_WriteInt16_m2063286531
DEc:__ZN5physx6shdfnd4sortINS_2Cm19PreallocatingRegionENS0_4LessIS3_EENS0_19ReflectionAllocatorIS3_EEEEvPT_jRKT0_RKT1_j
EBa:__ZN11Tetrahedron8TransferI24GenerateTypeTreeTransferEEvRT_
RUi:_X509CertificateImplApple_get_IsValid_m4032366851
aIg:_DecoderExceptionFallback_GetHashCode_m2972426052
whb:__Z29Transfer_Blittable_ArrayFieldI24GenerateTypeTreeTransfer5RectTIiEEvRT_R9ArrayInfoRK23StaticTransferFieldInfo
mCa:__ZN16ReflectionProbes8ScheduleEN18ReflectionProbeJob7JobTypeEP15ReflectionProbei
SOe:_UriParser_NotAny_m3368871516
HTn:__Z67RuntimeInvoker_Char_t3454481338_Int16_t4041245914_Int16_t4041245914PFvvEPK10MethodInfoPvPS4_
j0m:__ZN6il2cpp2vm9Exception25GetNullReferenceExceptionERKNS_5utils10StringViewIDsEE
tma:__Z18IsDirectoryCreatedRKN4core12basic_stringIcNS_20StringStorageDefaultIcEEEE
Igl:_Action_1_BeginInvoke_m3341085586_gshared
Ssj:_ContentInfo__ctor_m3579805263
n3l:_MarshalDirectiveException__ctor_m3894820706
VUg:_PlatformHelper_get_IsSingleProcessor_m1585124801
IEf:_Array_InternalArray__get_Item_TisGCHandle_t3409268066_m826530402_gshared
yMk:_UnixIPInterfaceProperties_get_DnsAddresses_m2661625179
TDk:_ResourceReader_DeserializeObject_m617031929
Hwh:_Array_InternalArray__IndexOf_TisEntry_t1114109354_m256767846_gshared
fJl:_InvokableCall_1_Invoke_m3360715817_gshared
EBm:__ZN15dense_hashtableINSt3__24pairIK10KeyWrapperIPKcEP11Il2CppClassEES5_N6il2cpp5utils11StringUtils12StringHasherIS4_EEN14dense_hash_mapIS5_S8_SE_NS5_14EqualsComparerINSB_13VmStringUtils21CaseSensitiveComparerEEENS0_9allocatorIS9_EEE9SelectKeyESJ_SL_E15set_deleted_keyERKS9_
mDe:_X509KeyUsageExtension_ToString_m1992050580
W6h:_ValueType_DefaultEquals_m2245650968
B7d:_XmlTextReaderImpl_InitStreamInput_m652462801
Gdj:_ConstructionCall__ctor_m1143766850
h3l:_Marshal_SecureStringToBSTR_m1179361682
Weh:_U3CU3Ec_U3C_cctorU3Eb__307_6_m4023609191
eVd:_XmlConvert_ToString_m3785086318
vin:__ZN6il2cpp6icalls6System6System3Net3Dns15GetHostByAddr40EP12Il2CppStringPS6_PP11Il2CppArraySA_i
svg:_SNIP_IsSubsetOf_m1312559857_AdjustorThunk
f$g:_XPathNodeInfoAtom_Equals_m1811422862
$Re:_Byte_CompareTo_m1850579028
Kfd:__ZN5physx18ComputeSortedListsEPNS_2Cm10BitMapBaseINS_6shdfnd9AllocatorEEEjjPKjPPNS_8SapBox1DES7_PjSB_jRKNS_2Gu4AxesESB_RjSB_SG_RbSH_
WAj:_DecimalConverter_get_TargetType_m3816609218
Znb:__Z35Transfer_Blittable_FixedBufferFieldI18StreamedBinaryReadILb0EEdEvRK29SerializationCommandArgumentsR31RuntimeSerializationCommandInfo
Uhi:_FileStream_Seek_m950719389
Acg:_RuntimeClassHandle_Equals_m4285637620
LAn:__Z139RuntimeInvoker_Void_t1841601450_Int32_t2071877448_Int32_t2071877448_Int32_t2071877448_Int32_t2071877448_Int32_t2071877448_Int32_t2071877448PFvvEPK10MethodInfoPvPS4_
mZ:__ZN9GfxDevice20SetMaxBufferedFramesEi
$Sn:__Z110RuntimeInvoker_Boolean_t3825574718_Int16_t4041245914_Int16_t4041245914_BooleanU26_t3168250738_SByte_t454417549PFvvEPK10MethodInfoPvPS4_
GNn:__Z98RuntimeInvoker_Void_t1841601450_Int32_t2071877448_Int32_t2071877448_RuntimeObject_SByte_t454417549PFvvEPK10MethodInfoPvPS4_
efn:__ZN6il2cpp8metadata13GenericMethod9GetMethodEPK19Il2CppGenericMethod
S0h:_TypeSpec_GetDisplayFullName_m3746718192
kde:_DtdParserProxy_System_Xml_IDtdParserAdapter_ParseNamedCharRef_m1229752421
Wff:_MemberPrimitiveTyped_Write_m4030772498
CGf:_Array_InternalArray__IReadOnlyList_get_Item_TisResourceLocator_t2156390884_m2906879736_gshared
FNb:__Z23ConvertIntegerToTypePtrIsEbPvR14SafeBinaryRead
uSn:__Z82RuntimeInvoker_Int32_t2071877448_RuntimeObject_Double_t4078015681_SByte_t454417549PFvvEPK10MethodInfoPvPS4_
tMk:_sockaddr_ll_t1681025498_marshal_pinvoke
vp:FUNCTION_TABLE_iiidiii
DXo:__ZL78XmlSchemaDerivationMethod_t3165007540_CustomAttributesCacheGenerator_ExtensionP21CustomAttributesCache
qyl:_Nullable_1_ToString_m678068069_AdjustorThunk
Szc:__ZNK5physx14NpArticulation17releaseDriveCacheERNS_24PxArticulationDriveCacheE
rQh:_UTF16Decoder__ctor_m1333683294
lXj:_CFProxyAutoConfigurationResultCallback_BeginInvoke_m3007414337
wIn:__Z96RuntimeInvoker_Void_t1841601450_SByte_t454417549_RuntimeObject_SByte_t454417549_SByte_t454417549PFvvEPK10MethodInfoPvPS4_
mUh:_ThreadPoolTaskScheduler_QueueTask_m246474625
r7:__ZN6prcoreL29inner_stretch_rgb565_bilinearEPKNS_9InnerInfoE
Uyg:_Url_Prepare_m732234308
WPc:__ZNK5physx2Sc9ClothCore25getSelfCollisionStiffnessEv
FLj:_TraceListenerCollection_Clear_m102051271
L5f:_DtdValidator_ProcessTokenizedType_m2486832626
grg:_Array_UnsafeCreateInstance_m3260562319
mGd:__ZN5physx7profile11EventBufferINS_24PxDefaultContextProviderENS_6shdfnd6MutexTINS0_26WrapperReflectionAllocatorIhEEEENS0_14ScopedLockImplIS7_EENS_24PxProfileNullEventFilterEE9sendEventINS0_10EventValueEEEvRNS0_11EventHeaderERT_
b_l:_ExeConfigurationHost_GetStreamName_m4070417723
rFb:__ZNK14RenderSettings19GetFlatAmbientColorEv
L6:__ZN6prcoreL10inner_flipILj4EEEvPhS1_j
QVa:__ZN18StreamedBinaryReadILb0EE21TransferSTLStyleArrayI10vector_mapIPKN5Unity4TypeE7Hash128NSt3__24lessIS6_EENS8_9allocatorINS8_4pairIS6_S7_EEEEEEEvRT_17TransferMetaFlags
SJf:_Double_GetHashCode_m3403732029
xie:_XmlSchema_set_IsPreprocessed_m3830717547
eBg:_String_Concat_m56707527
Jlp:_PlayerControl_OnEnable_m3481939085
Esh:_Array_QSortArrange_TisDouble_t4078015681_m2308074771_gshared
wzj:_SslClientStream_get_HaveRemoteValidation2Callback_m3555576758
UPa:__ZN14Texture2DArray17UploadToGfxDeviceEv
bIl:_Tuple_4_System_ITupleInternal_ToString_m1956958357_gshared
cEj:_StandardValuesCollection_get_Count_m3305999829
Ow:__Z14FMODMemoryFreePvjPKc
Whe:_SchemaCollectionPreprocessor_PreprocessNotation_m2773512499
Zkj:___BinaryParser_ReadObject_m1024549918
UXh:_TimeoutException__ctor_m2770079177
F5c:__ZN5physx3Scb4Body9syncStateEv
yvn:__Z72RuntimeInvoker_Boolean_t3825574718_DateTime_t693205669_Int32_t2071877448PFvvEPK10MethodInfoPvPS4_
Dbf:_DateTimeOffset__ctor_m1796624924
aEc:__ZN5physx12PxsRigidBody23updatePoseDependenciesVERNS_10PxsContextE
Sqh:_Array_InternalArray__ICollection_Remove_TisKeyValuePair_2_t3716250094_m2566517826_gshared
I_e:_ReadOnlyCollectionBase_get_InnerList_m3583535210
fwd:__ZN5physx2Gu12TriangleMesh4loadERNS_13PxInputStreamE
pmn:_GC_is_heap_ptr
pZd:_XmlLoader_LoadNode_m2784310510
Clp:_Movement_OnDisable_m1714188211
eUi:_X509CertificateImpl_ThrowIfContextInvalid_m3867213957
Btb:__Z21PlayerStartFirstSceneb
pXn:__Z36RuntimeInvoker_Matrix4x4_t2933234003PFvvEPK10MethodInfoPvPS4_
xzi:_Enumerator__ctor_m252254681_AdjustorThunk
Cm:_emscripten_glIsTexture
REj:_PropertyDescriptorCollection_System_Collections_IList_Contains_m3192600021
hl:_emscripten_glHint
sxg:_ApplicationTrust_FromXml_m1699647667
q7e:_DateTime_AddMilliseconds_m1813199744_AdjustorThunk
nnm:_DelegatePInvokeWrapper_PCMReaderCallback_t3007145346
Akb:__Z35Transfer_Blittable_FixedBufferFieldI18StreamedBinaryReadILb1EEtEvRK29SerializationCommandArgumentsR31RuntimeSerializationCommandInfo
RDj:_TypeDescriptor_get_MetadataVersion_m193505346
U4f:_DatatypeImplementation_IsDerivedFrom_m798779016
Aug:_SiteIdentityPermission_ToXml_m1091657897
Rrj:_RSAManaged__ctor_m1680944437
Fm:_SDL_UpperBlit
m2l:_IErrorInfo_GetSource_m2851584934
Hfg:_X509ExtensionCollection_get_Item_m1381258735
iCa:__Z35GetTextureDecodeValuesWithIntensity16TextureUsageMode17TextureColorSpace10ColorSpacef
BAn:__Z60RuntimeInvoker_RuntimeObject_Int16_t4041245914_RuntimeObjectPFvvEPK10MethodInfoPvPS4_
gSe:_Byte_GetHashCode_m2885528842_AdjustorThunk
FQe:_Boolean_TryParse_m3918169608
KLc:__ZNK5physx7NpShape16getContactOffsetEv
Fhd:__ZN5physx14PxsAABBManager21processAggregatePairsEPKNS_19AggregateSortedDataE
c6g:_BaseValidator_set_DtdInfo_m3576018281
uwh:_Array_InternalArray__IndexOf_TisXPathNodeRef_t2092605142_m85549903_gshared
BJi:_Dictionary_2_OnDeserialization_m2092139626_gshared
aId:_PxCreateCooking
qNh:_XsdDateTime_get_Second_m1143327371_AdjustorThunk
pqb:__ZN14SafeBinaryRead20OverrideRootTypeNameEPKc
jon:__ZN6il2cpp2os7CpuInfo6CreateEv
SR:__ZN14FileCacherRead16UnlockCacheBlockEj
Cqf:_RuntimeType_GetPropertyImpl_m240682872
fgg:_X509Certificate_GetUnsignedBigInteger_m3491353542
FNj:_GZipStream_get_CanRead_m1081651800
GGp:_emscripten_glVertexAttrib1f__wrapper
hol:_InternalEnumerator_1_System_Collections_IEnumerator_get_Current_m2849042299_AdjustorThunk
k_g:_XPathDocumentNavigator_get_NamespaceURI_m2506528869
bSg:_CancellationTokenSource_ThrowObjectDisposedException_m2762972733
bcf:_DateTimeRawInfo_Init_m1640851873_AdjustorThunk
Xc:_emscripten_glUniform1f
hWl:_ConfigurationLockCollection_SetFromList_m2739237306
IZj:_SimpleResolver_ProcessResponse_m167188997
Ubm:_SecurityParser__ctor_m979873179
ad:_emscripten_glUniform1i
LWe:_ReadOnlyArrayList_RemoveAt_m1458661331
Ufb:__Z18Transfer_BlittableI24GenerateTypeTreeTransferLb1EN4math12int3_storageEEvRK29SerializationCommandArgumentsR31RuntimeSerializationCommandInfo
jrd:__ZN5physx2Sc19ShapeInstancePairLL23postIslandGenSecondPassEv
kDd:__ZN14PhysicsManager23VirtualRedirectTransferER19StreamedBinaryWriteILb0EE
Ouf:_U3CReadAsyncInternalU3Ed__34_MoveNext_m3791566083
r2a:__ZN9ShaderLab16SerializedTagMapaSERKS0_
ZE:__ZN11UnityEngine15CloudWebService16SessionContainer20RestoreSessionHeaderERKN4core12basic_stringIcNS2_20StringStorageDefaultIcEEEES8_RNS0_13SessionHeaderE
SEl:_Task_1__ctor_m298167690_gshared
Uad:__ZN5physx2Sq16BucketPrunerCore12updateObjectERKNS_9PxBounds3ERKNS0_13PrunerPayloadE
wqd:__ZN5physx18PxsDynamicsContext23atomIntegrationParallelEfPKPNS_11PxsBodyCoreEPKPNS_12PxsRigidBodyEjPKNS_2Cm13SpatialVectorEPNS_13PxcSolverBodyEPNS_17PxcSolverBodyDataEPSA_RjSI_RNS_10PxBaseTaskE
XNf:_Bootstring_Encode_m413482647
gPh:_SecureStringHasher_GetHashCode_m955962527
ixg:_AllMembershipCondition_ToXml_m2771543339
aQ:__ZN14MessageHandler3GetEv
pd:_emscripten_glAttachShader
dVl:_Configuration_SetSectionXml_m2783526347
lZ:__ZN9GfxDevice13SetActiveTierE12GraphicsTier
VTa:__ZNSt3__26vectorIN4core12basic_stringIcNS1_20StringStorageDefaultIcEEEENS_9allocatorIS5_EEE6assignIPS5_EENS_9enable_ifIXaasr21__is_forward_iteratorIT_EE5valuesr16is_constructibleIS5_NS_15iterator_traitsISC_E9referenceEEE5valueEvE4typeESC_SC_
Ugg:_KeyPairPersistence_get_UserPath_m3433052783
Zjc:__ZN5physx2Gu19GetRaycastFuncTableEv
Fre:_XmlBaseConverter__ctor_m2406862505
i2f:_Datatype_NOTATION_get_ValueType_m2569943215
sOn:__Z105RuntimeInvoker_RuntimeObject_RuntimeObject_Int32_t2071877448_Int64_t909078037_RuntimeObject_RuntimeObjectPFvvEPK10MethodInfoPvPS4_
EIj:_DefaultConfig__cctor_m3326348429
uSh:_XmlCharType_IsOnlyCharData_m2494138474_AdjustorThunk
IRg:_ExecutionContextSwitcher_UndoNoThrow_m2962501538
Uho:__ZL58Decimal_t724701077_CustomAttributesCacheGenerator_MinusOneP21CustomAttributesCache
ZZh:_TimeZoneInfo_TryGetLocalTzFile_m2301331427
NZe:_KeyCollection_GetEnumerator_m3592988900
sab:__Z18Transfer_BlittableI14SafeBinaryReadLb0E11QuaternionfEvRK29SerializationCommandArgumentsR31RuntimeSerializationCommandInfo
brd:__ZN5physx17EdgeChangeManager23cleanupBrokenEdgeEventsEPKNS_4EdgeE
Hnb:__Z18Transfer_BlittableI18StreamedBinaryReadILb0EELb1E12PropertyNameEvRK29SerializationCommandArgumentsR31RuntimeSerializationCommandInfo
uJ:_tlsf_walk_heap
blg:_PKCS12_Decode_m731190390
yKm:__ZN6il2cpp2vm7Runtime6InvokeEPK10MethodInfoPvPS5_PP15Il2CppException
tul:_InternalEnumerator_1_get_Current_m1550231132_gshared
rb:invoke_vif
sb:invoke_vid
azp:__ZNSt3__212basic_stringIcNS_11char_traitsIcEENS_9allocatorIcEEE6insertEjPKc
NOh:_XsdValidator_FastGetElementDecl_m2762453062
ub:invoke_vii
Oyb:__ZNK12ImageFilters8DoRenderER17ShaderPassContextP13RenderTextureS3_RKNSt3__26vectorI11ImageFilterNS4_9allocatorIS6_EEEE
A3h:_UInt16_GetHashCode_m1468226569
Y3c:__ZN5physx13NpVolumeCacheD2Ev
G0g:_XPathParser_ParseNodeTest_m2943173194
aIf:_CustomAttributeData_UnboxValues_TisCustomAttributeTypedArgument_t1498197914_m2657049192_gshared
ela:__ZN12TLSAllocatorI14StackAllocatorE16ThreadInitializeEP13BaseAllocator
QCh:_Array_InternalArray__ICollection_CopyTo_TisParsingState_t1278724163_m269496868_gshared
MZ:__ZN9GfxDevice32UpdateStereoViewProjectionMatrixE21MonoOrStereoscopicEye
igk:__ZN21InterfaceFuncInvoker0IdE6InvokeEjP11Il2CppClassP12Il2CppObject
yvb:__ZN15dense_hashtableINSt3__24pairIKN4core12basic_stringIcNS2_20StringStorageDefaultIcEEEEP20ArchiveStorageReaderEES6_20StringHash32FunctionIS6_EN14dense_hash_mapIS6_S9_SC_NS0_8equal_toIS6_EE13stl_allocatorISA_L18MemLabelIdentifier55ELi16EEE9SelectKeyESF_SI_E12resize_deltaEjj
Ynd:__ZThn8_N5physx2Sc35ParticleElementRbElementInteraction12onDeactivateEj
e1h:_Type_GetTypeCodeImpl_m1389134229
a$e:_SortedList_get_SyncRoot_m3299704254
Pdd:__ZN5physx16PxsThreadContextC2EPNS_10PxsContextE
swp:__ZNKSt3__27codecvtIwc11__mbstate_tE6do_outERS1_PKwS5_RS5_PcS7_RS7_
upa:__ZN25SingleBlockMemoryFileDataD0Ev
ola:__ZNSt3__26vectorI14ConstantStringNS_9allocatorIS1_EEE6assignINS_11__wrap_iterIPS1_EEEENS_9enable_ifIXaasr21__is_forward_iteratorIT_EE5valuesr16is_constructibleIS1_NS_15iterator_traitsISA_E9referenceEEE5valueEvE4typeESA_SA_
qac:__ZN5physx3Cct10Controller4moveERNS0_11SweptVolumeERKNS_6PxVec3EffRKNS_19PxControllerFiltersEPKNS_17PxObstacleContextEb
UE:__ZN11UnityEngine15CloudWebService16SessionContainer21ConvertFromFolderTimeERKN4core12basic_stringIcNS2_20StringStorageDefaultIcEEEEPjPt
Mfl:_BigInteger_Randomize_m3622044292
Rge:_XmlWriter_Dispose_m689512602
x0f:_Datatype_float__ctor_m703527433
dcb:__ZNSt3__26vectorI8GUIStyle13stl_allocatorIS1_L18MemLabelIdentifier1ELi16EEE7reserveEj
BIj:_ConfigurationSettings__cctor_m1127819917
cHf:_Array_InternalArray__IReadOnlyList_get_Item_TisState_t563545493_m1209717405_gshared
EFm:__ZN6il2cpp2vm13MetadataCache14AddPointerTypeEP11Il2CppClassS3_
Rxh:_Array_InternalArray__IndexOf_TisUInt32_t2149682021_m3231515987_gshared
pIm:__ZNSt3__26__treeIP11Il2CppClassNS_4lessIS2_EENS_9allocatorIS2_EEE7destroyEPNS_11__tree_nodeIS2_PvEE
mJm:__ZN15dense_hashtableINSt3__24pairIK10KeyWrapperIPK9EventInfoEP11Il2CppClassEES6_N6il2cpp6icalls8mscorlib6System19Il2CppEventInfoHashEN14dense_hash_mapIS6_S9_SF_NS6_14EqualsComparerINSE_22Il2CppEventInfoCompareEEENS0_9allocatorISA_EEE9SelectKeyESJ_SL_E6insertERKSA_
ARb:__Z31CalculateHierarchyTransformType23TransformAccessReadOnly
YPb:__Z13RegisterClassI11TimeManagerEvv
Fw:__ZN4FMOD8ChannelI11setPositionEjj
nQj:_BypassElementCollection_GetElementKey_m3025198001
D_h:_TimeZoneInfo_GetTzEnvironmentVariable_m2027793806
Jcj:_LeaseManager_StartManager_m281998993
kkn:_GC_set_fl_marks
rfn:__ZL7z_allocPvjj
Awc:__ZN5physx6shdfnd8PoolBaseINS_2Sc12SimStateDataENS0_19ReflectionAllocatorIS3_EEE17releaseEmptySlabsEv
YOg:_Decoder_get_HasState_m1244353245
PZ:__ZN9GfxDevice17SetStereoViewportE15StereoscopicEyeRK5RectTIiE
aX:__ZN17BaseObjectManager13StaticDestroyEPv
xJm:__ZN15dense_hashtableINSt3__24pairIK10KeyWrapperIPK9EventInfoEP11Il2CppClassEES6_N6il2cpp6icalls8mscorlib6System19Il2CppEventInfoHashEN14dense_hash_mapIS6_S9_SF_NS6_14EqualsComparerINSE_22Il2CppEventInfoCompareEEENS0_9allocatorISA_EEE9SelectKeyESJ_SL_E9copy_fromERKSO_j
X9m:__ZL21remove_working_threadP20Il2CppInternalThread
scf:_DBNull_System_IConvertible_ToChar_m3344298044
fec:__ZN5physx2Gu22closestPtPointTriangleEPNS_6shdfnd3aos5Vec3VES4_S4_Rj
Jvn:__Z113RuntimeInvoker_DateTime_t693205669_DateTime_t693205669_TimeSpan_t3430258949_TimeSpan_t3430258949_SByte_t454417549PFvvEPK10MethodInfoPvPS4_
hmg:_X509Certificate_GetObjectData_m3888130484
vGc:__ZN5physx2Cm8PtrTableC2Ev
yv:__ZN4FMOD6Reverb13setPropertiesEPK22FMOD_REVERB_PROPERTIES
AAb:__ZN9DepthPass13PrepareSubsetEjRK10RenderNodeifRK17ShaderReplaceData
Zgd:__ZN5physx16PxsBroadPhaseMBP6updateEjjRKNS_23PxcBroadPhaseUpdateDataEPNS_10PxBaseTaskE
jKc:__ZN5physx9NpPhysics18createRigidDynamicERKNS_11PxTransformE
prc:__ZN5physx6shdfnd5ArrayIPvNS0_19ReflectionAllocatorINS_2Sc18TriggerInteractionEEEE15growAndPushBackERKS2_
a9l:_X509CertificateCollection_Add_m4008705157
cjm:_Comparison_1_BeginInvoke_m3523839944_gshared
kdn:__ZN6il2cpp6icalls8mscorlib6System11Environment22get_HasShutdownStartedEv
GHf:_CustomAttributeExtensions_GetCustomAttribute_TisRuntimeObject_m134386045_gshared
QOf:_Calendar_ToFourDigitYear_m939354306
P0h:_TypeSpec_get_DisplayFullName_m3760497518
vwh:_Array_InternalArray__IndexOf_TisOp_t1831748991_m3754125050_gshared
Pfn:__ZN6il2cpp6icalls8mscorlib6System17RuntimeTypeHandle12GetArrayRankEP27Il2CppReflectionRuntimeType
zhc:__ZN5physx2Gu17intersectRayAABB2ERKNS_6shdfnd3aos5Vec3VES5_S5_S5_RKNS2_6FloatVERS6_S9_
Kq:__ZN4core20StringStorageDefaultIcE6assignEPKcj
UHk:_HttpWebRequest_get_ReadWriteTimeout_m2226574868
Spk:_List_1_GetEnumerator_m861431194_gshared
rLc:__ZNK5physx7NpShape17getSphereGeometryERNS_16PxSphereGeometryE
Bjc:__ZL18intersectAnyVsMeshILi1EEbPKN5physx2Gu6SphereEPKNS1_7CapsuleEPKNS1_3BoxERKNS1_13RTreeMidphaseERKNS0_11PxTransformERKNS0_11PxMeshScaleEP14LimitedResults
G7m:__ZN15dense_hashtableINSt3__24pairIK10KeyWrapperIP12Il2CppObjectEN6il2cpp2gc9CachedCCWEEES5_NS7_5utils11PointerHashIS3_EEN14dense_hash_mapIS5_S9_SD_NS5_14EqualsComparerINS0_8equal_toIS4_EEEENS0_9allocatorISA_EEE9SelectKeyESI_SK_E3endEv
rOn:__Z81RuntimeInvoker_Int32_t2071877448_RuntimeObject_Int32_t2071877448_Int64_t909078037PFvvEPK10MethodInfoPvPS4_
Iuc:__ZN5physx6shdfnd5ArrayIPvNS0_15InlineAllocatorILj256ENS0_19ReflectionAllocatorINS_2Cm5BlockIhLj128EEEEEEEE15growAndPushBackERKS2_
wzh:_Array_InternalArray__ICollection_Add_TisEntry_t4214607081_m386577517_gshared
JJb:__ZN6Camera6SetFarEf
Y8l:_DeriveBytes_DeriveIV_m3343375195
qUi:_X509Certificate_ToString_m1582581274
hQi:_RNGCryptoServiceProvider_GetBytes_m167497991
$7:__ZN6prcoreL12RemapGenericI17TexFormatABGR888817TexFormatARGB8888EEvPKNS_9InnerInfoE
Fqa:__ZN11GameManager17MainThreadCleanupEv
whp:_SetupCoroutine_InvokeMember_m170868586
_xg:_CodeGroup_ToXml_m4247539845
P2l:_Marshal_GetHRForException_m344472616
Gal:_KeyHandler_GetRootFromDir_m86975914
Hrk:_TypeBuilder_get_Assembly_m492491492
aCk:_TypeDelegator_GetConstructorImpl_m3778518431
VNc:__ZNK5physx7NpCloth24getParticleAccelerationsEPNS_6PxVec4E
rwb:__ZZ23InitPlayerLoopCallbacksvEN41PostLateUpdateUpdateResolutionRegistrator7ForwardEv
Qvh:_Array_FindLastIndex_TisRuntimeObject_m986818300_gshared
npb:__Z25scripting_array_class_get17ScriptingClassPtrj
L3b:__ZL22Transfer_ManagedObjectI9JSONWriteLb1EEvRK29SerializationCommandArgumentsR31RuntimeSerializationCommandInfo
Fs:__ZNK10SampleClip22GetTypeVirtualInternalEv
U_:__ZN9GfxDevice20DestroyRenderSurfaceER12ObjectHandleI17RenderSurface_TagP17RenderSurfaceBaseE
fpn:__ZNSt3__26__treeINS_12__value_typeINS_12basic_stringIcNS_11char_traitsIcEENS_9allocatorIcEEEEPFvvEEENS_19__map_value_compareIS7_SA_NS_4lessIS7_EELb1EEENS5_ISA_EEE25__emplace_unique_key_argsIS7_JRKNS_21piecewise_construct_tENS_5tupleIJOS7_EEENSL_IJEEEEEENS_4pairINS_15__tree_iteratorISA_PNS_11__tree_nodeISA_PvEEiEEbEERKT_DpOT0_
SX:__ZN18SpriteAtlasManagerC2Ev
Pnn:__ZNSt3__24listIPN6il2cpp5utils10MemoryPool6RegionENS_9allocatorIS5_EEE9push_backERKS5_
CLi:_Dictionary_2_System_Collections_IDictionary_Add_m2319898299_gshared
Eha:__ZN9GfxDevice22UpdateComputeResourcesEjPK9TextureIDPK16TextureDimensionPKijPKjjPK15ComputeBufferIDS7_PK20ComputeBufferCounterjSC_S2_S5_S9_SF_
Ota:__ZN12_GLOBAL__N_15qAsinEff
fla:__ZN12TLSAllocatorI14StackAllocatorE13ThreadCleanupEv
tPi:_RijndaelManagedTransform_GenerateKeyExpansion_m2452879087
Dtp:__ZNKSt3__28time_getIcNS_19istreambuf_iteratorIcNS_11char_traitsIcEEEEE10__get_yearERiRS4_S4_RjRKNS_5ctypeIcEE
kYm:__ZN6il2cpp2vm6Thread12UnInitializeEv
olp:_Map_IsCoveredAndNotFlagged_m4111536071
jhn:__ZThn4_N6il2cpp2vm13ComObjectBase16MarshalInterfaceEP13Il2CppIStreamRK10Il2CppGuidPvjS7_j
fze:_XmlSchemaElement_set_SubstitutionGroup_m2831415413
fRa:__ZN4Mesh27SwizzleVertexColorsIfNeededEb
_rb:__Z27FindActiveTransformWithPathPKc
K$c:__ZN5physx16PxsIslandManager14setEdgeRigidCMERKNS_20PxsIslandManagerHookIjLj4294967295EEEPNS_17PxsContactManagerE
xdi:_BinaryReader_ReadString_m2084208171
bOe:_UriParser_get_IsSimple_m1320602069
MDa:__ZN7Texture5ResetEv
vih:_WebConnectionStream_get_Length_m2687402700
Gmg:_SecurityParser_OnEndElement_m2909940377
yvd:__ZN5physx2Gu11HeightField7releaseEv
qta:__ZNK6Camera7GetNearEv
Phh:_WebConnectionStream_get_CompleteRequestWritten_m2866283642
hba:__ZN7ApiGLES11UnmapBufferEjN2gl12BufferTargetE
xhn:__ZN6il2cpp5utilsL24Utf32CharToSurrogatePairEjRA2_Ds
wJa:__Z25GetNextAllowedTextureSizeib13TextureFormat
Srb:__ZN20LocalFileSystemWebGL4CopyER13FileEntryDataS1_
A8f:_NamespaceListNode_ExpandTree_m2613690403
qgn:__ZN6il2cpp6icalls8mscorlib6System9Threading11Interlocked10Exchange64EPxx
tH:__ZN19CloudServiceHandler6RetainEv
wAg:_StrongName_Equals_m67226644
Rta:__ZN12BaseRenderer20FlattenToRenderQueueER15RenderNodeQueueRK20DeprecatedSourceData
vyh:_AsyncTaskCache_CreateCacheableTask_TisRuntimeObject_m3733017058_gshared
znd:__ZN5physx2Sc8ClothSim23addCollisionHeightfieldEPKNS0_8ShapeSimE
aag:_QNameFacetsChecker_CheckValueFacets_m91970534
n$a:__Z34scripting_liveness_calculation_endPv
M0b:__ZNK19RectangleCellLayout13GetCellCenterEv
Wdn:__ZN6il2cpp2os6ThreadC2Ev
k8d:_XmlTextReader_get_LinePosition_m874032802
hSg:_CancellationTokenSource_InternalGetStaticSource_m2075691162
Xqh:_Array_InternalArray__ICollection_Remove_TisDateTime_t693205669_m1275668216_gshared
o4j:_CultureInfoMapper_GetCultureInfoName_m687798883
Kfb:__Z18Transfer_BlittableI24GenerateTypeTreeTransferLb1EhEvRK29SerializationCommandArgumentsR31RuntimeSerializationCommandInfo
l5b:__Z18Transfer_BlittableI8JSONReadLb0E8Vector3fEvRK29SerializationCommandArgumentsR31RuntimeSerializationCommandInfo
G4l:_ChannelServices__cctor_m3534779830
_1g:_DtdParser_ParseNotationDecl_m698494241
nog:_AggregateException__ctor_m837286394
Yfg:_X509Store_CheckStore_m2104973896
vSg:_CancellationToken_ThrowIfSourceDisposed_m1757739378_AdjustorThunk
j3e:_Convert_ToInt16_m416789348
Jnc:__GLOBAL__sub_I_runtime_dynamics_2_cpp
l6j:_Enumerator_System_Collections_IEnumerator_Reset_m1061591080_AdjustorThunk
gCn:__Z79RuntimeInvoker_Single_t2076509932_RuntimeObject_Int32_t2071877448_RuntimeObjectPFvvEPK10MethodInfoPvPS4_
_vh:_Array_IndexOf_TisInt16_t4041245914_m3423763998_gshared
evj:_Context_get_ChangeCipherSpecDone_m495252906
xre:_XmlAnyConverter_ToNavigator_m833154564
DBm:__ZN14dense_hash_mapI10KeyWrapperIPKcEP11Il2CppClassN6il2cpp5utils11StringUtils12StringHasherIS2_EENS3_14EqualsComparerINS7_13VmStringUtils21CaseSensitiveComparerEEENSt3__29allocatorINSF_4pairIKS3_S5_EEEEE15set_deleted_keyERSI_
Awf:_Array_InternalArray__set_Item_TisWSABUF_t2199312694_m3409373131_gshared
lgd:__ZN5physx14SapPairManager12shrinkMemoryEv
V3b:__ZN9JSONWrite8TransferI13GUIStyleStateEEvRT_PKc17TransferMetaFlags
HWe:_ReadOnlyArrayList_IndexOf_m3721240274
Mzd:__ZN5physx6shdfnd8internal7median3IjKNS_19SortBoundsPredicateEEEvPT_iiRT0_
IAk:_PropertyInfo_CreateNIE_m2598389941
kHp:_glBindSampler__wrapper
uxm:_Physics_RaycastAll_m3853279464
vqa:__ZNSt3__26vectorIN20ArchiveStorageHeader12StorageBlockE13stl_allocatorIS2_L18MemLabelIdentifier55ELi16EEE8__appendEj
Zf:_emscripten_set_mouseup_callback
x0a:__Z14resize_trimmedINSt3__26vectorIN9ShaderLab14SerializedPassENS0_9allocatorIS3_EEEEEvRT_j
cop:_logb
pDk:_ResourceManager_Init_m1758343903
zQk:_List_1__ctor_m1212533451_gshared
bof:_SerializationInfo_AddValue_m3568057294
w2c:__ZN5physx7NpScene22removeBroadPhaseRegionEj
Irc:__ZL34GeomOverlapCallback_CapsuleCapsuleRKN5physx10PxGeometryERKNS_11PxTransformES2_S5_PNS_2Gu12TriggerCacheE
GLb:__ZNK18ScreenManagerWebGL8GetWidthEv
E1c:__ZNK5physx7NpScene23getFilterShaderDataSizeEv
jve:_XmlNumeric10Converter_ToString_m134279580
Cs:__ZN10SampleClipD2Ev
ixn:__Z81RuntimeInvoker_Int64_t909078037_RuntimeObject_Int32_t2071877448_Int32_t2071877448PFvvEPK10MethodInfoPvPS4_
Vbj:_SynchronizationAttribute_EnterContext_m2984912761
cGm:__ZN6il2cpp2vm13MetadataCache38GetGenericParameterConstraintFromIndexEs
KRf:_CultureInfo_construct_internal_locale_from_name_m971766383
Ykd:__ZN5physx2Gu27generateFullContactManifoldERKNS0_8CapsuleVERNS0_13PolygonalDataEPNS0_12SupportLocalERKNS_6shdfnd3aos15PsMatTransformVEPNS0_17PersistentContactERjRKNS9_6FloatVERNS9_5Vec3VEb
G_a:__Z13GetGISettingsv
dH:__ZN11UnityEngine15CloudWebService20WebRequestRestClientC2Ev
wLf:_Enum_ToObject_m2460371738
eIk:_HttpWebRequest_get_TransferEncoding_m3466636497
rcg:_PrimalityTests_Test_m1088386156
bgh:_WebAsyncResult_SetCompleted_m1412952062
Lop:_readlink
QSm:__ZN15dense_hashtableINSt3__24pairIK10KeyWrapperINS1_IPK9EventInfoP11Il2CppClassEEEjEES9_17ReflectionMapHashIS8_EN14dense_hash_mapIS9_jSD_NS9_14EqualsComparerINS0_8equal_toIS8_EEEENS0_9allocatorISB_EEE9SelectKeyESI_SK_E12resize_deltaEjj
kFf:_Array_InternalArray__get_Item_TisKeyframe_t1449471340_m1003508933_gshared
Nwg:_PermissionSet_Union_m2363188946
WLn:__Z119RuntimeInvoker_InternalCodePageDataItem_t1742109366_Int16_t4041245914_Int16_t4041245914_RuntimeObject_Int32_t2071877448PFvvEPK10MethodInfoPvPS4_
rLg:_Encoding_ThrowCharsOverflow_m3832405584
$Ri:_SHA256Managed_Initialize_m2091245045
v5m:__ZNSt3__23mapIP24Il2CppReflectionAssemblyPvNS_4lessIS2_EENS_9allocatorINS_4pairIKS2_S3_EEEEEixERS8_
Kyn:__Z50RuntimeInvoker_Double_t4078015681_Int64_t909078037PFvvEPK10MethodInfoPvPS4_
gkg:_StrongName_get_PublicKeyToken_m1968460885
XIe:_RegexCompiler_Bne_m402739011
bTa:__ZNK6Sprite9GetBoundsE8Vector2fbb
Owa:__ZNK19RenderEventsContext21CleanupCommandBuffersEv
oLh:_XsdBuilder_InitSimpleTypeUnion_m526036986
whf:_ObjectReader_get_ValueFixupStack_m4123900463
rZl:_ConfigurationSection_DeserializeSection_m1139223106
F2:__ZN11ContextGLES6CreateEi
$ic:__ZN5physx6shdfnd5ArrayINS_10PxTriangleENS0_19ReflectionAllocatorIS2_EEE15growAndPushBackERKS2_
edi:_BinaryReader_Dispose_m4249456877
XJf:_Double_ToString_m1085043609
FHm:_build_tree_12559
vob:__Z19TransferField_ArrayI18StreamedBinaryReadILb0EE27Converter_SimpleNativeClassI17AnimationCurveTplIfEEEvRK23StaticTransferFieldInfoR31RuntimeSerializationCommandInfoRT0_
Kka:__ZN14StackAllocator16FrameMaintenanceEb
rec:__ZL11SweepBoxBoxPKN5physx3Cct9SweepTestEPKNS0_11SweptVolumeEPKNS0_11TouchedGeomERKNS_14PxExtendedVec3ERKNS_6PxVec3ERNS0_12SweptContactE
IVd:_XmlConvert_ToDouble_m720485344
Pma:__Z18ReadStringFromFilePN4core17string_with_labelILi1EEERKNS_12basic_stringIcNS_20StringStorageDefaultIcEEEE
CS:__ZNK10GameObject20QueryComponentByTypeEPKN5Unity4TypeE
P9f:_ParticleContentValidator_CheckUniqueParticleAttribution_m7494295
bbj:_OpCode_GetHashCode_m2974727122
Ttj:_CipherSuite_createDecryptionCipher_m1118350455
sWd:_XmlTextReaderImpl__ctor_m2614676031
vKf:_Double_System_IConvertible_ToInt16_m4200640326
HIa:__ZN11TextureData5ResetEv
tY:__ZN15dense_hashtableINSt3__24pairIKN4core12basic_stringIcNS2_20StringStorageDefaultIcEEEE13dynamic_arrayI4PPtrI6SpriteELj4EEEES6_20StringHash32FunctionIS6_EN14dense_hash_mapIS6_SC_SF_NS0_8equal_toIS6_EE13stl_allocatorISD_L18MemLabelIdentifier81ELi16EEE9SelectKeyESI_SL_EC2ERKSO_j
ON:__ZL30InitializeCoreScriptingClassesv
n4d:_XmlNodeReader_System_Xml_IXmlNamespaceResolver_LookupPrefix_m1065493447
Yg:_glBlitFramebuffer
USj:_CookieContainer_IsLocalDomain_m367105750
cek:_List_1_RemoveAt_m3118830626_gshared
ugl:_BigInteger_GeneratePseudoPrime_m2606361440
BSf:_DateTimeFormatInfo_get_ShortTimePattern_m20923983
Rdb:__Z35Transfer_Blittable_SingleValueFieldI14SafeBinaryReadhEvRT_R17GeneralMonoObjectRK23StaticTransferFieldInfo
Uue:_XmlMiscConverter_ChangeTypeWildcardDestination_m2617351706
PAm:_fill_window_12388
HRd:__ZN22BaseUnityConnectClientC2ERN11UnityEngine7Connect20BasePersistentValuesE
aPh:_XsdValidator_get_HasIdentityConstraints_m197113164
mhj:_RemotingServices_GetRealProxy_m620317996
OAb:__ZN13dynamic_arrayI11CulledLightLj4EE6insertEPS0_PKS0_S4_
CWg:_SpinLock_ContinueTryEnter_m1120040600_AdjustorThunk
LHa:__ZNK12CubemapArray22GetTypeVirtualInternalEv
OBa:__ZN11Tetrahedron8TransferI18StreamedBinaryReadILb0EEEEvRT_
lo:FUNCTION_TABLE_vif
mo:FUNCTION_TABLE_vid
oo:FUNCTION_TABLE_vii
y$a:__Z40scripting_liveness_calculation_from_root18ScriptingObjectPtrPv
yZj:_SimpleResolver_GetQuery_m4126646420
REa:__ZN7Texture23VirtualRedirectTransferER24GenerateTypeTreeTransfer
ygi:_FileLoadException__ctor_m900251456
Cli:_StreamWriter__ctor_m4268791735
RGp:_glDeleteFramebuffers__wrapper
BXg:_AwaitTaskContinuation_ThrowAsyncIfNecessary_m1041594797
J7g:_Compiler_IsChoiceFromChoiceSubstGroup_m2194529737
mpj:_BigInteger_ModInverse_m1881894572
f7h:_VersionResult_GetVersionParseException_m852833228
STb:__ZZN12MeshRenderer15InitializeClassEvEN29FunctorImpl_134kDidDeleteMesh4CallEPviR11MessageData
wTh:_TaskExceptionHolder_GetExceptionDispatchInfos_m1982614742
fej:_MessageDictionary_SetMethodProperty_m3362316095
Frb:__ZNSt3__26__treeIN4core12basic_stringIcNS1_20StringStorageDefaultIcEEEENS_4lessIS5_EE13stl_allocatorIS5_L18MemLabelIdentifier38ELi16EEE7destroyEPNS_11__tree_nodeIS5_PvEE
QAm:_longest_match_12389
NKa:__ZN28EnlightenRendererInformation8TransferI14SafeBinaryReadEEvRT_
lJn:__Z127RuntimeInvoker_Void_t1841601450_RuntimeObject_RuntimeObject_SByte_t454417549_SByte_t454417549_SByte_t454417549_SByte_t454417549PFvvEPK10MethodInfoPvPS4_
Mxe:_XmlSchemaCollectionEnumerator_get_CurrentNode_m146258416
Kpa:__ZNK15Lz4Decompressor16DecompressMemoryEPKvPjPvS2_
Xmn:__ZN6il2cpp6icalls8mscorlib6System9Threading16NativeEventCalls20CreateEvent_internalEbbP12Il2CppStringPi
mni:_SyncTextWriter_get_Encoding_m115735777
EGa:__Z35UnityPropertySheet_MakeSortedColorsRKNSt3__23mapIN9ShaderLab16FastPropertyNameE10ColorRGBAfNS_4lessIS2_EENS_9allocatorINS_4pairIKS2_S3_EEEEEER10vector_mapIS2_S3_S5_NS6_INS7_IS2_S3_EEEEE
qef:_Decimal_System_IConvertible_ToType_m3828527724_AdjustorThunk
sld:__ZN5physx2GuL34fullContactsGenerationSphereConvexERKNS0_8CapsuleVERKNS0_11ConvexHullVERKNS_6shdfnd3aos12PsTransformVESB_PNS0_17PersistentContactERjRNS0_13ContactBufferEbRNS0_25PersistentContactManifoldERNS8_5Vec3VERKNS8_6FloatVEb
Iqj:_HMAC_get_Key_m2528863640
vnl:_InternalEnumerator_1_System_Collections_IEnumerator_get_Current_m888475750_AdjustorThunk
Pte:_XmlBaseConverter_DateTimeOffsetToString_m3486040552
YVd:_XmlConvert_CreateInvalidSurrogatePairException_m369037709
fVj:_FtpAsyncResult__ctor_m2490841827
hdb:__Z29Transfer_Blittable_ArrayFieldI14SafeBinaryRead8Vector4fEvRT_R9ArrayInfoRK23StaticTransferFieldInfo
Kuf:_CryptoStream_WriteAsync_m1747512670
ial:_mincore_EnumDynamicTimeZoneInformation_m2677638812
mJd:__ZNSt3__27__sort4IRNS_6__lessI24InterpolationDepthHandleS2_EEPS2_EEjT0_S6_S6_S6_T_
A2m:__ZN6il2cpp6icalls8mscorlib6System4Type15MakePointerTypeEP20Il2CppReflectionType
Brk:_SymbolType_HasElementTypeImpl_m824530259
iwb:__ZZ23InitPlayerLoopCallbacksvEN51PostLateUpdateUpdateCustomRenderTexturesRegistrator7ForwardEv
MYn:__Z133RuntimeInvoker_Boolean_t3825574718_Vector3U26_t425862308_Vector3U26_t425862308_Single_t2076509932_Int32_t2071877448_Int32_t2071877448PFvvEPK10MethodInfoPvPS4_
Ydf:_Decimal_System_IConvertible_ToInt16_m3159038792
Kfi:_Path_GetFullPathInternal_m1507868136
rcn:__ZN6il2cpp2vmL17AreParametersSameEPK13ParameterInfoS3_i
Rsc:__ZN5physx3Scb5Scene20addArticulationJointERNS0_17ArticulationJointE
TOk:_List_1_IsCompatibleObject_m995232178_gshared
iIf:_XmlListConverter_ToArray_TisInt32_t2071877448_m1688780710_gshared
HJg:_EncoderNLS_GetByteCount_m1289725347
Dmc:__ZN5physx3Cct9SweepTest15onObstacleAddedEjPKNS_17PxObstacleContextERKNS_6PxVec3ES7_f
xVf:_IdnMapping_GetAscii_m3436035811
R1m:__ZN14dense_hash_mapI10KeyWrapperIiEPNSt3__26vectorIP12Il2CppObjectN6il2cpp2gc9AllocatorIS5_EEEE21ThreadPoolStateHasherNS1_14EqualsComparerINS2_8equal_toIiEEEENS2_9allocatorINS2_4pairIKS1_SB_EEEEEC2EjRKSC_RKSG_
sge:_XmlValidatingReaderImpl_get_NamespaceManager_m1281681681
EXa:__ZNSt3__26vectorIN15ResourceManager10DependencyE13stl_allocatorIS2_L18MemLabelIdentifier52ELi16EEEC2INS_11__wrap_iterIPS2_EEEET_SB_RKS5_PNS_9enable_ifIXaasr21__is_forward_iteratorISB_EE5valuesr16is_constructibleIS2_NS_15iterator_traitsISB_E9referenceEEE5valueEvE4typeE
t3l:_SafeBuffer_AcquirePointer_m4019643305
myk:_MonoMethodInfo_GetReturnType_m2864247130
MHk:_HttpWebRequest_get_ContentLength_m2183698788
zIb:__ZN13RenderManager29SetCurrentCameraAndStackStateEP6CameraP25CameraStackRenderingState
Esa:__ZNSt3__26__treeINS_12__value_typeIjN4core12basic_stringIcNS2_20StringStorageDefaultIcEEEEEENS_19__map_value_compareIjS7_NS_4lessIjEELb1EEE13stl_allocatorIS7_L18MemLabelIdentifier7ELi16EEE7destroyEPNS_11__tree_nodeIS7_PvEE
lXo:__ZL94XmlSchema_t880472818_CustomAttributesCacheGenerator_XmlSchema_t880472818____Items_PropertyInfoP21CustomAttributesCache
UXm:__ZN15dense_hashtableINSt3__24pairIK10KeyWrapperINS1_IP11Il2CppClassjEEES4_EES6_N6il2cpp8metadata14ArrayClassHashEN14dense_hash_mapIS6_S4_SB_NS6_14EqualsComparerINSA_17ArrayClassCompareEEENS0_9allocatorIS8_EEE9SelectKeyESF_SH_E12resize_deltaEjj
oi:_JS_WebRequest_Release
Sfi:_DirectoryNotFoundException__ctor_m2242202556
sF:__ZN11UnityEngine15CloudWebService14DataErrorEventD0Ev
r2m:__ZN6il2cpp6icalls8mscorlib6System4Type20internal_from_handleEi
aDg:_String_CreateString_m2448464375
oDe:_X509SubjectKeyIdentifierExtension__ctor_m2959112706
$Sj:_CookieTokenizer_Extract_m3267164971
Auk:_FieldInfo_get_IsNotSerialized_m2322769148
xRj:_WebProxyScriptElement__cctor_m3758071300
f2c:__ZNK5physx7NpScene18getStaticStructureEv
Sbd:__ZN5physx13PxsCCDContext12postCCDSweepEPNS_10PxBaseTaskE
t6m:__ZN6il2cpp8metadata15GenericMetadata7InflateEPK19Il2CppGenericMethodPK20Il2CppGenericContext
iKa:__ZN19ShaderPropertySheet16SetArrayPropertyEN9ShaderLab16FastPropertyNameENS_12PropertyTypeEPKvj
Cal:_KeyHandler__ctor_m3330959012
M_h:_TimeZoneInfo_TransitionTimeFromTimeZoneInformation_m2176278403
sAd:__ZN5physx6shdfnd10Foundation19AlignCheckAllocator28deregisterAllocationListenerERNS_20PxAllocationListenerE
dtl:_InternalEnumerator_1_get_Current_m4083613828_gshared
ngj:_MethodResponse_get_Uri_m4194004030
nwk:_Module_GetModuleVersionId_m272009108
mXl:_ConfigurationElementCollection_IndexOfKey_m1888078841
qig:_KeyPairPersistence_Save_m471726936
m3d:_XmlNodeReaderNavigator_get_IsDefault_m3164036452
Qei:_Path_InsecureGetFullPath_m2635272425
oaf:_DateTime_System_IConvertible_ToUInt32_m1363211018
eed:__ZN5physx33solveContactCoulombBlockWriteBackEPKNS_23PxcSolverConstraintDescEjRNS_16PxcSolverContextEPNS_25PxcThresholdStreamElementEjPi
Yfp:_Quaternion_ToString_m1042358501
Tld:__ZN5physx9PxTaskMgr17submitUnnamedTaskERNS_6PxTaskENS_10PxTaskType4EnumE
K2g:_DtdParser_ScanElement6_m4140131957
R2l:_Marshal__SetErrorInfo_m1392670507
y5:__ZN7Texture21GetMasterTextureLimitEv
ZXo:__ZL116XmlSchemaElement_t2433337156_CustomAttributesCacheGenerator_XmlSchemaElement_t2433337156____Constraints_PropertyInfoP21CustomAttributesCache
tvo:__ZL66HostProtectionAttribute_t1933600591_CustomAttributesCacheGeneratorP21CustomAttributesCache
pKb:__Z12CanAddScriptR10GameObject17ScriptingClassPtrPS1_S2_
QVm:__ZN6il2cpp2vm10Reflection12HasAttributeEP12Il2CppObjectP11Il2CppClass
jze:_XmlSchemaElement_get_BlockResolved_m3247069828
KM:__ZN9ShaderLabL25StaticInitializeShaderLabEPv
kIe:_RegexCompiler_CallToLower_m3733216259
L9c:__ZNK5physx2Sq12BucketPruner5sweepERKNS0_9ShapeDataERKNS_6PxVec3ERfRNS0_14PrunerCallbackE
V:Math_max
fIj:_WeakKeyComparer_System_Collections_IEqualityComparer_GetHashCode_m3296290725
SLm:_il2cpp_class_get_methods
Vln:_GC_generic_malloc_inner_ignore_off_page
gOg:_StringBuilder_FormatError_m3288331387
Zif:_SerializationEventsCache_GetSerializationEventsForType_m4133831174
wxi:_Enumerator_System_Collections_IEnumerator_get_Current_m1631145297_gshared
Xfb:__Z18Transfer_BlittableI24GenerateTypeTreeTransferLb0EN4math12int2_storageEEvRK29SerializationCommandArgumentsR31RuntimeSerializationCommandInfo
KVe:_ArrayList_Synchronized_m2395071980
Eal:_KeyHandler_Load_m3388995186
c0d:_XmlException__ctor_m47652749
ben:__ZN6il2cpp2os6Thread16GetCurrentThreadEv
AVd:_XmlConvert_ToInt64_m4199079136
zJi:_Dictionary_2_Initialize_m1889692013_gshared
q9e:_DateTimeFormat_FormatMonth_m466278903
$Vb:__ZN10GameObject13ComponentPair15SetComponentPtrEPN5Unity9ComponentE
eId:__ZN5physx6shdfnd8internal8HashBaseINS0_4PairIKPKNS0_14NamedAllocatorEPKcEES6_NS0_4HashIS6_EENS1_11HashMapBaseIS6_S9_SC_NS0_20NonTrackingAllocatorEE6GetKeyESE_Lb1EE15reserveInternalEj
Nni:_UnexceptionalStreamWriter_Write_m3206913035
KPb:__Z13RegisterClassI10MeshFilterEvv
xog:_AggregateException__ctor_m1303159826
g6j:_Enumerator_System_Collections_IEnumerator_get_Current_m3175039148_gshared
Msa:__ZN10TagManager8TransferI19StreamedBinaryWriteILb0EEEEvRT_
Q_a:__ZN11PreloadData23VirtualRedirectTransferER18StreamedBinaryReadILb0EE
zvf:_DESTransform_ProcessBlock_m2826669227
S8h:_Int16_CompareTo_m3493496879
Xvi:_Comparer_1_CreateComparer_m2645496704_gshared
FLk:_sockaddr_dl_t3955242742_marshal_pinvoke_cleanup
$Na:__ZN6Sprite17MainThreadCleanupEv
CQf:_CultureData_ShortDates_m2708701631
_Yl:_SectionInformation_ProtectSection_m230982508
_7h:_WindowsConsoleDriver_IsModifierKey_m4105833994
gy:__ZN10AudioMixer14UpdateMuteSoloEv
nsh:_Array_QSortArrange_TisByte_t3683104436_TisRuntimeObject_m765696133_gshared
s3l:_RuntimeEnvironment_get_SystemConfigurationFile_m1879048062
oSh:_XmlCharType_IsLowSurrogate_m1099211065
DJc:__ZN5physx6shdfnd5ArrayINS_3Scb13MaterialEventENS0_19ReflectionAllocatorIS3_EEE15growAndPushBackERKS3_
Rwf:_Array_InternalArray__set_Item_TisEphemeron_t1875076633_m4127456504_gshared
Qra:__ZN9Transform35SetLocalPositionWithoutNotificationERKN4math7_float3Ey
Dua:__ZN9ShaderLab10SubProgram7CompileEv
l4:__ZN7ApiGLES16SetPatchVerticesEi
uFo:__ZL55GuidAttribute_t222072359_CustomAttributesCacheGeneratorP21CustomAttributesCache
lwc:__ZN5physx2Sc5Scene11onBodySleepEPNS0_7BodySimE
j1h:_Type_GetArrayRank_m4242213362
epa:__ZN10MemoryFileC2E18MemLabelIdentifierP14MemoryFileData14FilePermission
Pij:_TrackingServices_NotifyUnmarshaledObject_m1794048369
Tym:__ZN6il2cpp2vm5Class20FromGenericParameterEPK22Il2CppGenericParameter
SH:__ZN19CloudServiceHandler11FlushEventsEv
DW:__ZN15GlobalCallbacksC2Ev
Jwf:_Array_InternalArray__set_Item_TisLabelFixup_t4090909514_m565370771_gshared
zDl:_ListBuilder_1_ToArray_m1877055377_gshared
x_d:_XmlDownloadManager_GetNonFileStream_m2169104068
$4g:_AllElementsContentValidator_InitValidation_m720760755
wHl:_Tuple_3_Equals_m4286593197_gshared
xUd:__Z15CastclassSealedP12Il2CppObjectP11Il2CppClass
FJe:_RegexBoyerMoore_IsMatch_m2393559697
_Jc:__ZN5physx9NpPhysics16createConvexMeshERNS_13PxInputStreamE
HLk:_sockaddr_dl_Read_m1061580541_AdjustorThunk
hJb:__ZN16ReflectionProbes40UpdateRealtimeReflectionProbesTimeslicedEv
RAh:_Array_InternalArray__ICollection_Add_TisState_t2667800191_m2825804154_gshared
Qpl:_InternalEnumerator_1_System_Collections_IEnumerator_get_Current_m2858532841_gshared
ngf:_NameCache_GetCachedValue_m1672086260
yvc:__ZN5physx2Sq17SceneQueryManager8addShapeERKNS_7NpShapeERKNS_12PxRigidActorEbPNS_9PxBounds3E
zql:_InternalEnumerator_1_get_Current_m419131001_gshared
TXa:__ZNK30RuntimeInitializeOnLoadManager22GetTypeVirtualInternalEv
Oyf:__ZN21InterfaceFuncInvoker2IiffE6InvokeEjP11Il2CppClassP12Il2CppObjectff
nSi:_SHA256Managed__cctor_m4236532252
MDm:__ZN15dense_hashtableINSt3__24pairIK10KeyWrapperIN6il2cpp5utils13dynamic_arrayIPK10Il2CppTypeLj4EEEEPFvvEEESA_NS3_8metadata19Il2CppSignatureHashEN14dense_hash_mapISA_SD_SG_NSA_14EqualsComparerINSF_22Il2CppSignatureCompareEEENS0_9allocatorISE_EEE9SelectKeyESK_SM_E12resize_deltaEjj
ZSb:__ZN16ReflectionProbes15InitializeClassEv
Bpf:_RuntimeType_GetPropertiesByName_native_m1856854496
X9e:_DateTimeFormat_GetAllDateTimes_m857639969
sEf:_Array_InternalArray__get_Item_TisRuntimeObject_m371871810_gshared
K9m:__ZN6il2cpp2vm11MethodStack17GetStackFramesRawEv
gbf:_DateTimeOffset_get_Month_m477218518_AdjustorThunk
Ndd:__ZNK5physx2Gu29EPASupportMapPairRelativeImplINS0_8CapsuleVES2_E9doSupportERKNS_6shdfnd3aos5Vec3VERS6_S9_S9_
rT:__ZN13RuntimeStaticINSt3__23mapIN4core12basic_stringIcNS2_20StringStorageDefaultIcEEEES6_NS0_4lessIS6_EE13stl_allocatorINS0_4pairIKS6_S6_EEL18MemLabelIdentifier13ELi16EEEELb0EE13StaticDestroyEPv
Dzd:__ZN5physx10SubSortSAH5sort4EPjjRNS_6shdfnd5ArrayINS_11RTreeNodeNQENS2_19ReflectionAllocatorIS4_EEEERjjPS4_
Pmi:_TextWriter_Write_m576684782
lk:_glIsVertexArray
spa:__ZN25SingleBlockMemoryFileDataC2E18MemLabelIdentifierPvjb
ha:invoke_fff
aEp:b14
mxj:_TlsServerHello_Update_m1740270635
nHd:__ZN5physx2Sc7PhysicsC2ERKNS_17PxTolerancesScaleERKNS_14PxvOffsetTableE
clf:_SizedArray_IncreaseCapacity_m113902948
iJd:__ZNSt3__26__sortIRNS_6__lessI24InterpolationDepthHandleS2_EEPS2_EEvT0_S6_T_
QTa:__ZNSt3__26vectorI14SubstanceInputNS_9allocatorIS1_EEE6assignINS_11__wrap_iterIPS1_EEEENS_9enable_ifIXaasr21__is_forward_iteratorIT_EE5valuesr16is_constructibleIS1_NS_15iterator_traitsISA_E9referenceEEE5valueEvE4typeESA_SA_
J7:__ZN6prcoreL12RemapGenericI17TexFormatARGB155517TexFormatRGBA8888EEvPKNS_9InnerInfoE
ZAm:__ZN13Il2CppHashMapIPK19Il2CppGenericMethodPK26Il2CppGenericMethodIndicesN6il2cpp8metadata23Il2CppGenericMethodHashENS7_26Il2CppGenericMethodCompareENSt3__29allocatorINSA_4pairIK10KeyWrapperIS2_ES5_EEEEEC2EjRKS8_RKS9_
JNl:_EqualityComparer_1_CreateComparer_m3311856537_gshared
bpp:_select
_Ee:_MatchCollection_get_Item_m2609281578
YDp:b10
Hfa:__ZN7ApiGLES13CreateProgramEv
uya:__ZN11HaloManager7AddHaloEv
EUj:_FileWebRequest_GetResponse_m1845449278
rQg:_UTF8Encoding__ctor_m100325490
KWl:_ConfigurationPropertyCollection_get_Count_m1518273402
ZYj:_DnsResourceRecord_get_Data_m997834294
N5:__ZN4crnd12crn_unpackerD2Ev
xk:_emscripten_glTexImage2D
jhj:_ObjRefSurrogate_SetObjectData_m1873902916
DN:__ZN18ScriptingArguments9AddStringEPKc
tln:_setup_header
DAp:runPostSets
Mdd:__ZNK5physx2Gu29EPASupportMapPairRelativeImplINS0_8CapsuleVES2_E18doWarmStartSupportEiiRNS_6shdfnd3aos5Vec3VES7_S7_
R6:__ZL23stbir__resize_arbitraryPvPKviiiS_iiiffffPfiij14stbir_datatype12stbir_filterS4_10stbir_edgeS5_16stbir_colorspace
pgb:__Z18Transfer_BlittableI24GenerateTypeTreeTransferLb1E8Vector4fEvRK29SerializationCommandArgumentsR31RuntimeSerializationCommandInfo
d9h:_Int16_ToString_m3971652088_AdjustorThunk
$Jg:_InternalDecoderBestFitFallback__ctor_m3639162965
Ik:_pthread_detach
VDe:_CompiledRegexRunner_Go_m1651869127
VQi:_RSAEncryptionPadding_op_Inequality_m1579940368
G6g:_BitSet_Equals_m1218437124
WCe:_X509ExtensionEnumerator_Reset_m3200687545
vLk:_MacOsNetworkInterface__ctor_m4050886866
V8c:__ZN5physx11EdgeManager6resizeEj
qOf:_JapaneseCalendar_EnglishEraNames_m3210390142
egj:_MethodResponse_get_LogicalCallContext_m969541244
hpb:__ZNSt3__213__stable_sortIRN10vector_mapI17ScriptingClassPtrPKN5Unity4TypeENS_4lessIS2_EENS_9allocatorINS_4pairIS2_S6_EEEEE13value_compareENS_11__wrap_iterIPSB_EEEEvT0_SJ_T_NS_15iterator_traitsISJ_E15difference_typeEPNSM_10value_typeEi
vBj:_TypeDescriptor_Refresh_m3055138534
ppg:_AppDomain_DoResourceResolve_m2146739316
Twh:_Array_InternalArray__IndexOf_TisKeyValuePair_2_t3800763530_m2277522106_gshared
d3a:__ZN9ShaderLab25SerializedTextureProperty8TransferI24GenerateTypeTreeTransferEEvRT_
qMj:_DomainNameHelper_IsValidByIri_m2980381439
NLp:_emscripten_glIsShader__wrapper
ITm:__ZN6il2cpp2gc19AppendOnlyGCHashMapINSt3__24pairIPK14Il2CppAssemblyP11Il2CppClassEEP24Il2CppReflectionAssembly17ReflectionMapHashIS9_ENS2_8equal_toIS9_EEEC2Ev
Daj:_ModuleBuilder_GetToken_m3325192999
OXc:__ZN5physx2Sc5Scene12removeStaticERNS0_10StaticCoreERNS_6shdfnd11InlineArrayIPKNS0_9ShapeCoreELj64ENS4_19ReflectionAllocatorIS8_EEEEb
cPf:_GlobalizationAssembly_GetGlobalizationResourceBytePtr_m1876958574
r4i:_AssemblyBuilder_get_IsSave_m3100330618
UHg:_Decoder_Convert_m765272101
uHi:_Dictionary_2_get_Item_m3752893826_gshared
Kmi:_TextWriter_Synchronized_m724223080
TYf:_TimeSpanTokenizer_get_EOL_m513129228
Bdf:_Decimal_ToSingle_m2522978387
j6b:__Z18Transfer_BlittableI8JSONReadLb1EyEvRK29SerializationCommandArgumentsR31RuntimeSerializationCommandInfo
seh:_Socket_Send_internal_m4036039043
dl:_emscripten_glMatrixMode
rwf:_Array_InternalArray__set_Item_TisTimeSpanToken_t2031659367_m3296548400_gshared
tvd:__ZN5physx13GuMeshFactory17createHeightFieldERNS_13PxInputStreamE
X_c:__ZN5physx2Sc10NPhaseCore25createShapeInstancePairLLERNS0_8ShapeSimES3_NS_7PxFlagsINS_10PxPairFlag4EnumEtEE
jxi:_Enumerator_System_Collections_IEnumerator_Reset_m2780672158_AdjustorThunk
lgj:_MethodReturnDictionary__ctor_m756139344
OE:__ZN11UnityEngine15CloudWebService14DataDispatcher16PrepareDataBlockERNS0_16SessionContainerE
iga:__ZN18GfxFramebufferGLES5ClearE13GfxClearFlagsRK10ColorRGBAffib
a0c:__ZThn8_N5physx2Sc19ShapeInstancePairLL12onDeactivateEj
iXb:__Z21CalculateClosestPointRK8Vector3fRK4AABBRS_Rf
Mnb:__ZL26Transfer_SimpleNativeClassI18StreamedBinaryReadILb0EE10RectOffsetLb0EEvRK29SerializationCommandArgumentsR31RuntimeSerializationCommandInfo
jAb:__ZL12DepthPassJobPN21GfxDeviceAsyncCommand10ArgScratchEPKNS_3ArgE
E1a:__ZNSt3__26vectorIN9ShaderLab20SerializedSubProgram16TextureParameterENS_9allocatorIS3_EEE6assignINS_11__wrap_iterIPS3_EEEENS_9enable_ifIXaasr21__is_forward_iteratorIT_EE5valuesr16is_constructibleIS3_NS_15iterator_traitsISC_E9referenceEEE5valueEvE4typeESC_SC_
$Pi:_RIPEMD160Managed_H_m170966261
G1b:__ZN5Unity9rapidjson6WriterI16TempBufferWriterNS0_4UTF8IcEES4_13JSONAllocatorE11WriteDoubleEd
aci:_IntPtr_Equals_m1214967011_AdjustorThunk
GVl:_ElementInformation_get_Type_m891870314
dBd:__ZN9Rigidbody16ApplyConstraintsEv
pba:__ZN14GfxDeviceStats16CopyAllDrawStatsERKS_
jQb:__Z13RegisterClassI19LowerResBlitTextureEvv
S3j:_BrowsableAttribute_GetHashCode_m2898709353
hn:FUNCTION_TABLE_iiiiiiiiiiii
Kmj:___BinaryWriter_WriteString_m306872279
ETc:__ZN5physx2Sc17ParticleSystemSim8setFlagsEj
Fxa:__ZN16GraphicsSettingsD0Ev
qSg:_CancellationToken_ThrowOperationCanceledException_m1344971960
Qqf:_RuntimeType_IsSubclassOf_m3530900029
n:cttz_i8
V9f:_Position_t1796812729_marshal_pinvoke_cleanup
Tnp:_uselocale
vyd:__ZN5physx2Gu15EdgeListBuilder18CreateEdgesToFacesEjPKjPKt
Mic:__ZN5physx11PxMeshQuery5sweepERKNS_6PxVec3EfRKNS_10PxGeometryERKNS_11PxTransformEjPKNS_10PxTriangleERNS_10PxSweepHitENS_7PxFlagsINS_9PxHitFlag4EnumEtEEPKjfb
xGl:_FromAsyncTrimPromise_1_Complete_m615706742_gshared
XKe:_RegexInterpreter_StackPeek_m4294822454
QGj:_StandardValuesCollection_System_Collections_ICollection_CopyTo_m2336033813
bqp:__ZNSt3__215basic_streambufIcNS_11char_traitsIcEEED2Ev
aTf:_DateTimeFormatInfo_get_FullDateTimePattern_m2607507656
Gxj:_HttpsClientStream_RaiseServerCertificateValidation_m3356770426
Aff:_DelegateSerializationHolder__ctor_m3915060553
UTa:__ZN14SubstanceInput22CopyFromSubstanceInputERKS_
$l:_emscripten_glViewport
Ygn:__ZN6il2cpp6icalls8mscorlib6System15MonoCustomAttrs17IsDefinedInternalEP12Il2CppObjectP20Il2CppReflectionType
jAa:__ZN4Mesh21UnswizzleVertexColorsEb
pEf:_Array_InternalArray__get_Item_TisWin32_IP_ADAPTER_ADDRESSES_t680756680_m468407178_gshared
J9e:_DateTime_ToString_m2276663647_AdjustorThunk
ADd:__ZThn28_N14PhysicsManagerD0Ev
lmd:__ZN5physx2Sc27ConstraintProjectionManagerC2Ev
_jc:__Z14raycast_sphereRKN5physx10PxGeometryERKNS_11PxTransformERKNS_6PxVec3ES8_fNS_7PxFlagsINS_9PxHitFlag4EnumEtEEjPNS_12PxRaycastHitEbPFbRSD_PvESG_
JJl:_UnityAction_1_BeginInvoke_m1322244454_gshared
tqk:_MethodInfo_op_Equality_m2548772083
U3j:_BrowsableAttribute__cctor_m3377205821
lWa:__ZN14PlayerSettings23VirtualRedirectTransferER18StreamedBinaryReadILb0EE
k3d:_XmlNodeReaderNavigator_get_IsEmptyElement_m4019578910
Ank:_List_1__ctor_m2102724357_gshared
SNd:__ZN11UnityEngine15PlatformWrapper16GetVRFieldOfViewEv
Fvf:_Array_InternalArray__set_Item_TisCipherSuiteCode_t4229451518_m449273295_gshared
oEp:_emscripten_glVertexAttrib4f__wrapper
Frn:__ZN6il2cpp2os5Event5ResetEv
BFb:__Z26CombineDepthNormalsTextureRK17RenderLoopContextR13dynamic_arrayI16RenderObjectDataLj4EE
Gmm:_AesManaged__ctor_m2322442838
f6m:__ZN6il2cpp8metadata15GenericMetadata17InflateParametersEPK13ParameterInfohPK20Il2CppGenericContextb
AQf:_CultureData_AbbrevEraNames_m342532578
Ava:__ZN6Camera13AwakeFromLoadE17AwakeFromLoadMode
ZZm:__ZNSt3__215basic_stringbufIcNS_11char_traitsIcEENS_9allocatorIcEEE7seekposENS_4fposI11__mbstate_tEEj
ZNi:_HMACSHA512__ctor_m2390736870
zPe:_UriTypeConverter_ConvertTo_m507771013
bIj:_WeakHashtable_Remove_m1216836883
cSi:_SHA256Managed_SHATransform_m703447930
S4i:_AssemblyBuilder_Equals_m748654099
rxm:_Physics_INTERNAL_CALL_RaycastAll_m4140523409
lMj:_XmlWriterTraceListener_Close_m884004568
usk:_TypeBuilder_GetInterfaces_m1818658502
s4g:_ReadContentAsBinaryHelper_Reset_m515987166
Fsb:__Z25SetNeedToPerformRenderingb
MLh:_XsdBuilder_InitAttributeGroup_m3011870138
bHf:_Array_InternalArray__IReadOnlyList_get_Item_TisNamespace_t1808381789_m688683393_gshared
Dyk:_MonoMethod_GetPseudoCustomAttributes_m466965107
rbg:_SchemaCollectionCompiler_IsValidOccurrenceRangeRestriction_m1388530944
Yqa:__ZN10GameObjectD2Ev
yAb:__ZN14qsort_internal30FindAndMovePivotToLastPositionIP15RODataDepthPassi17ROSorterDepthPassEEvT_S4_T0_T1_
sgn:__ZN6il2cpp6icalls8mscorlib6System9Threading11Interlocked4ReadEPx
ITi:_TripleDES_IsLegalKeySize_m2086415675
Pcd:__ZN5physxL27PxcSweepAnyShapeHeightfieldERKNS_11PxsCCDShapeES2_PKNS_12PxsRigidBodyES5_RKNS_11PxTransformES8_fRNS_6PxVec3ESA_RNS_10PxcNpCacheERNS_18PxcNpThreadContextE
MXo:__ZL115XmlSchemaElement_t2433337156_CustomAttributesCacheGenerator_XmlSchemaElement_t2433337156____IsAbstract_PropertyInfoP21CustomAttributesCache
oIb:__ZN12CullingGroup10SendEventsEPK17CullingGroupEventj
Uhg:_DSAManaged_GenerateKeyPair_m2711647034
Y1e:_ConsoleKeyInfo_GetHashCode_m1224354212_AdjustorThunk
SMk:_Win32IPAddressCollection_AddSubsequentlyString_m1145585782
HLa:__ZThn32_NK8Renderer8GetLayerEv
V7c:__ZN5physx3Scb5SceneD2Ev
PXj:_CFObject_CFRelease_m1226048150
jOm:__ZNSt3__26vectorIiNS_9allocatorIiEEEC2ERKS3_
hkj:_SoapServices_GetXmlTypeForInteropType_m3821579913
BJp:_emscripten_glTexParameterfv__wrapper
oei:_CStreamWriter__ctor_m3503007590
zab:__Z18Transfer_BlittableI14SafeBinaryReadLb1E9BoundsIntEvRK29SerializationCommandArgumentsR31RuntimeSerializationCommandInfo
KMm:_il2cpp_method_get_param_count
vYb:__ZN10systeminfo19ISOToSystemLanguageERN4core12basic_stringIcNS0_20StringStorageDefaultIcEEEE
ASm:__ZNK15dense_hashtableINSt3__24pairIK10KeyWrapperINS1_IPK12PropertyInfoP11Il2CppClassEEEjEES9_17ReflectionMapHashIS8_EN14dense_hash_mapIS9_jSD_NS9_14EqualsComparerINS0_8equal_toIS8_EEEENS0_9allocatorISB_EEE9SelectKeyESI_SK_E3endEv
GEn:__Z69RuntimeInvoker_Boolean_t3825574718_Int32_t2071877448_SByte_t454417549PFvvEPK10MethodInfoPvPS4_
nBd:__Z16GetDynamicsScenev
fzg:_FileCodeGroup_Equals_m3005398378
w9f:_ParticleContentValidator_AddName_m2978445613
nDi:_KeyCollection_System_Collections_ICollection_CopyTo_m3621560325_gshared
hwf:_Array_InternalArray__set_Item_Tisbucket_t976591655_m962894396_gshared
STa:__ZN14SubstanceInputD2Ev
PZm:__ZN6il2cpp6icalls8mscorlib6System7Runtime15InteropServices7Marshal17GetLastWin32ErrorEv
Ksg:_String_IndexOfUnchecked_m3356721554
xKa:__ZN16LightmapSettings8TransferI14SafeBinaryReadEEvRT_
zwk:_Module_get_ModuleVersionId_m2754771539
dZ:__ZN17BufferManagerGLES13ReleaseBufferEP14DataBufferGLES
Usi:_ArraySegment_1_System_Collections_Generic_IListU3CTU3E_get_Item_m2541481689_gshared
Esc:__ZN5physx6shdfnd5ArrayIPvNS0_19ReflectionAllocatorINS_16NpConnectorArrayEEEE15growAndPushBackERKS2_
ybl:_RegistryKey_GetValue_m2967641165
d_c:__ZN5physx2Sc5Scene15prepareSimulateEv
zBp:dynCall_dii
g6b:__Z18Transfer_BlittableI8JSONReadLb1EjEvRK29SerializationCommandArgumentsR31RuntimeSerializationCommandInfo
iuc:__ZN5physx6shdfnd5ArrayIPNS_2Sc11InteractionENS0_19ReflectionAllocatorIS4_EEE8recreateEj
Yyf:_Array_qsort_TisUInt16_t986882611_TisRuntimeObject_m322728296_gshared
Tih:_WebHeaderCollection_ToString_m1246460752
Znl:_InternalEnumerator_1_System_Collections_IEnumerator_get_Current_m2842514953_AdjustorThunk
r5d:_XmlReader_get_SchemaInfo_m2886262078
qHg:_ASCIIEncoding_GetBytes_m3649277167
qVi:_X509CertificateImplMono_GetRawCertData_m408096895
Fp:stackSave
qqp:__ZNSt3__213basic_istreamIcNS_11char_traitsIcEEED1Ev
aQd:__ZN5Unity9rapidjson15GenericDocumentINS0_4UTF8IcEE13JSONAllocatorNS0_12CrtAllocatorEE6StringEPKcjb
MPi:_RijndaelManagedTransform_rot2_m2920014005
d6m:__ZNK15dense_hashtableI10KeyWrapperIP18Il2CppGenericClassES3_N6il2cpp8metadata22Il2CppGenericClassHashEN14dense_hash_setIS3_S6_NS3_14EqualsComparerINS5_25Il2CppGenericClassCompareEEENSt3__29allocatorIS3_EEE8IdentityESA_SD_E12test_deletedERK30dense_hashtable_const_iteratorIS3_S3_S6_SF_SA_SD_E
Wzm:__ZN6il2cpp2vm5Class14GetNestedTypesEP11Il2CppClassPPv
XKd:__Z63Register_UnityEngine_Physics_INTERNAL_CALL_Internal_RaycastTestv
SAm:_flush_pending
sOi:_MACTripleDES_Initialize_m1318099802
ySe:_Byte_System_IConvertible_ToChar_m4188836679
WZi:_NumberFormatter_InitDecHexDigits_m2036076025
EZm:__ZN6il2cpp6icalls8mscorlib6System7Runtime15InteropServices7Marshal17copy_to_unmanagedEP11Il2CppArrayiii
QJb:__ZN6Camera9SetAspectEf
lRg:_AtomicBoolean_Equals_m3116298955
Alp:_UpdateManager_get_MovementUpdater_m2185913043
npj:_Kernel_modInverse_m3230829577
I4h:_UInt32_TryParse_m3987111861
cLp:_emscripten_glBindVertexArray__wrapper
ELg:_DefaultEncoder_GetByteCount_m830905742
Yra:__ZN9Transform37InitializeTransformHierarchyRecursiveER18TransformHierarchyRii
zRb:__Z34DefaultPrepareDispatchBoundsUpdateR13RendererScene18MemLabelIdentifier
$fa:__ZN26SinglePassStereoSupportExt23SetupStereoMatrixParamsE21MonoOrStereoscopicEye24BuiltinShaderMatrixParamRK10Matrix4x4f
hkp:_GameManager_OnDisable_m2643566425
ERh:_XmlAttributeCollection_RemoveParentFromElementIdAttrMap_m1406961767
rgl:_ModulusRing_Pow_m1137250399
OC:__Z46AudioListener_CUSTOM_GetNumExtensionPropertiesP12Il2CppObject
Rnh:_X509Chain_Build_m2341271288
tbg:_SchemaCollectionCompiler_IsValidOccurrenceRangeRestriction_m209159872
oza:__ZN17MeshRenderingData4InitEP4MeshS1_iP15SharedGfxBufferS3_
glh:_OidCollection_get_Item_m1091387424
VEa:__ZN19ShaderPropertySheet38CopyTextureWithAuxiliaryPropertiesFromERKN9ShaderLab16FastPropertyNameERKS_
BCe:_X509ChainStatus__ctor_m3628359961_AdjustorThunk
UWa:__ZN10VRSettings8TransferI19StreamedBinaryWriteILb0EEEEvRT_
iZc:__ZN5physx2Sc9StaticSim21postActor2WorldChangeEv
qFf:_Array_InternalArray__IReadOnlyList_get_Item_TisTableRange_t2011406615_m404539143_gshared
Jdb:__ZN15SerializeTraitsI13dynamic_arrayIN4math12int3_storageELj4EEE19ResizeSTLStyleArrayERS3_i
Dyg:_Evidence_get_HostEvidenceList_m2095478124
i0b:__Z57Register_UnityEngine_Transform_INTERNAL_set_localPositionv
tTg:_ExecutionContext_get_PreAllocatedDefault_m3905001275
vuj:_Context_Clear_m4000337070
_0:__ZN13GfxDeviceGLES26SetRandomWriteTargetBufferEi15ComputeBufferID
sln:_GC_split_block
Xvb:__ZZ23InitPlayerLoopCallbacksvEN49EarlyUpdateResetFrameStatsAfterPresentRegistrator7ForwardEv
jFc:__ZN5physx6shdfnd4sortIPvNS0_4LessIS2_EENS0_19ReflectionAllocatorINS_2Cm5BlockIhLj256EEEEEEEvPT_jRKT0_RKT1_j
q4i:_AssemblyBuilder__ctor_m1611900080
zhi:_Stream_BeginRead_m1985960185
kZl:_ProviderSettings_get_Parameters_m1237896802
xQh:_ValidateNames_ParseNmtokenNoNamespaces_m1171727316
iwd:__ZN5physx20InternalTriangleMesh7releaseEv
ubd:__ZN5physx6shdfnd5ArrayINS_16PxsCCDBlockArrayINS_13PxsCCDOverlapELi128EE9BlockInfoENS0_19ReflectionAllocatorIS5_EEE15growAndPushBackERKS5_
xvc:__ZNK5physx7NpShape8getFlagsEv
dYb:__ZNK11ICallString6ToUTF8Ev
Zym:__ZN15dense_hashtableINSt3__24pairIK10KeyWrapperIPK22Il2CppGenericParameterEP11Il2CppClassEES6_N6il2cpp5utils11PointerHashIS4_EEN14dense_hash_mapIS6_S9_SE_NS6_14EqualsComparerINS0_8equal_toIS5_EEEENS0_9allocatorISA_EEE9SelectKeyESJ_SL_E15insert_noresizeERKSA_
yjn:_GC_number_stack_black_listed
zAb:__ZNSt3__211__sift_downIR17ROSorterDepthPassP15RODataDepthPassEEvT0_S5_T_NS_15iterator_traitsIS5_E15difference_typeES5_
YYh:_TimeSpan_GetLegacyFormatMode_m2657436957
XOc:__ZNK5physx7NpCloth16getContactOffsetEv
GFh:_XmlSchemaObjectCollection_get_Item_m971890469
bS:__ZN12FileAccessor4ReadEyyPvPy
_Ea:__ZN13dynamic_arrayI16ShaderKeywordSetLj4EE6insertEPS0_PKS0_S4_
ZGm:__ZNSt3__26vectorIN6il2cpp2os11PollRequestENS_9allocatorIS3_EEE26__swap_out_circular_bufferERNS_14__split_bufferIS3_RS5_EE
YZe:_SyncHashtable_Contains_m3042906549
P9l:_X509Certificate_get_KeyAlgorithmParameters_m1701675565
pEe:_GroupCollection_GetGroupImpl_m2367410259
gYb:__Z21GetSceneHierarchyPathPK6Object
X8b:__ZN11UnityEngine9Analytics18RenderingInfoEvent13SetFrameStatsERK13dynamic_arrayIjLj4EEjjj
lDe:_X509KeyUsageExtension_CopyFrom_m931530012
$Qn:__Z140RuntimeInvoker_Void_t1841601450_Int32_t2071877448_Int32_t2071877448_RuntimeObject_RuntimeObject_RuntimeObject_RuntimeObject_SByte_t454417549PFvvEPK10MethodInfoPvPS4_
qJb:__ZN13RenderTexture9SetHeightEi
_qp:__ZNKSt3__27collateIcE7do_hashEPKcS3_
vme:_SchemaInfo_GetAttributeXsd_m4104047790
r$j:_LegacySslStream_SetLength_m218639622
_Pn:__Z172RuntimeInvoker_Void_t1841601450_RuntimeObject_RuntimeObject_RuntimeObject_RuntimeObject_Int32_t2071877448_Int32_t2071877448_SByte_t454417549_RuntimeObject_Int32_t2071877448PFvvEPK10MethodInfoPvPS4_
kdm:_Camera_RaycastTry_m1340638805
K$m:__ZN6il2cpp6icalls8mscorlib6System2IO6MonoIO17GetFileAttributesEP12Il2CppStringPi
UPe:_BadImageFormatException__ctor_m189925251
hro:__ZL110SemaphoreSlim_t461808439_CustomAttributesCacheGenerator_SemaphoreSlim_WaitUntilCountOrTimeoutAsync_m2689024279P21CustomAttributesCache
yUh:_Thread_Start_m1813847092
nHh:_XmlSchemaSimpleType__ctor_m1537349410
bO:__Z24scripting_class_get_name17ScriptingClassPtr
LT:__ZN13RuntimeStaticI15GUIEventManagerLb0EE13StaticDestroyEPv
nen:__ZN6il2cpp2os6Thread15CurrentThreadIdEv
qcb:__Z29Transfer_Blittable_ArrayFieldI14SafeBinaryReadjEvRT_R9ArrayInfoRK23StaticTransferFieldInfo
H6f:_FacetsCompiler_CompileTotalDigitsFacet_m1855480163
Uwn:__Z115RuntimeInvoker_TransitionTime_t3441274853_DateTime_t693205669_Int32_t2071877448_Int32_t2071877448_Int32_t2071877448PFvvEPK10MethodInfoPvPS4_
ve:_emscripten_set_keydown_callback
Tmk:_List_1_Add_m2342465036_gshared
Nsa:__ZN19StreamedBinaryWriteILb0EE21TransferSTLStyleArrayINSt3__26vectorI17SortingLayerEntryNS2_9allocatorIS4_EEEEEEvRT_17TransferMetaFlags
H4h:_UInt32_Parse_m3371984903
jS:__ZN12FileAccessorC2Ev
oog:_AggregateException__ctor_m3926613958
e3h:_TypeInitializationException_GetObjectData_m2244451030
aAc:__ZN5physx2Sc15ArticulationSim12applyImpulseERNS0_8BodyCoreERKNS_9PxcFsDataERKNS_6PxVec3ES9_
Scf:_Decimal_SetBits_m3810804873_AdjustorThunk
X2g:_DtdParser_ScanEntity1_m1146682767
oWj:__Z30il2cpp_codegen_resolve_pinvokeIPFiiiPiELj91ELj47EET_RAT0__KcRAT1__S4_20Il2CppCallConvention13Il2CppCharSetib
Joe:_GroupContent_Copy_m2640520710
OCk:_FastResourceComparer_Compare_m3381755008
DUa:__ZNK12InputManager22GetTypeVirtualInternalEv
wRg:_CancellationCallbackInfo_ExecuteCallback_m3006815233
vzc:__ZNK5physx14NpArticulation26getInternalDriveIterationsEv
TRe:_Buffer_memcpy1_m1506866016
Z0d:_XmlNamedNodeMap_SetNamedItem_m2980350708
bdj:_AsyncResult_WaitCallback_Context_m1545393385
Ske:_SchemaElementDecl_set_IsAbstract_m83976835
pWe:_IListWrapper_Sort_m1904785638
s$j:_LegacySslStream_Write_m31859846
kWl:_ConfigurationProperty_ConvertFromString_m661781545
Ovm:__ZN6il2cpp6icalls8mscorlib6System7Decimal11FCallAddSubEP13Il2CppDecimalS5_h
Nnf:_SerializationException__cctor_m1414507471
ATl:_ConfigurationFileMap__ctor_m3731838539
dwh:_Array_IndexOf_TisRuntimeObject_m214763038_gshared
gre:_XmlAnyConverter_ChangeTypeWildcardSource_m539654541
ytb:__ZN13RenderManager22OnWindowSizeHasChangedEv
Tqb:__Z39WriteQueueForTransferSignatureIntoCacheRK31TransferFunctionScriptingTraitsRK24TransferRequestSignature17ScriptingClassPtrR23CachedSerializationDataRb
xmf:_ObjectIDGenerator_GetId_m2773988387
Obk:_List_1_System_Collections_IList_set_Item_m1346264815_gshared
xNd:__ZN22BaseUnityConnectClient30OnEnteringStatePausedOrStoppedEv
jSm:__ZN15dense_hashtableINSt3__24pairIK10KeyWrapperINS1_IPK12PropertyInfoP11Il2CppClassEEEjEES9_17ReflectionMapHashIS8_EN14dense_hash_mapIS9_jSD_NS9_14EqualsComparerINS0_8equal_toIS8_EEEENS0_9allocatorISB_EEE9SelectKeyESI_SK_E12resize_deltaEjj
O3j:_BooleanConverter__ctor_m185966639
nMj:_DomainNameHelper_IsValid_m2345196008
Cra:__Z24MergeTransformComponentsR9TransformS0_b
avc:__ZThn24_N5physx2Sc20ArticulationJointSimD0Ev
tie:_XmlSchemaException__ctor_m2443011911
KPn:__Z100RuntimeInvoker_RuntimeObject_Int16_t4041245914_Int32_t2071877448_Int32_t2071877448_Int32_t2071877448PFvvEPK10MethodInfoPvPS4_
hEd:__ZN14PhysicsManager32AddToTriggerStayStatesIfRequiredEPK9Rigidbody
nji:_MonoIO_get_PathSeparator_m2635828107
Q7f:_KeySequence_Equals_m1887835851
VRf:_CultureInfo__cctor_m2290268677
WEg:_String_Trim_m3982520224
gpc:__ZN5physx14PxsAABBManager12createBPElemEv
Mjj:_RemotingConfiguration__cctor_m2129988840
XLc:__ZThn12_N5physx7NpShape14onRefCountZeroEv
Fzf:_Array_Sort_TisDateTimeOffset_t1362988906_m3648627883_gshared
mbc:__ZL26GeomMTDCallback_ConvexMeshRN5physx6PxVec3ERfRKNS_10PxGeometryERKNS_11PxTransformES5_S8_
FNe:_Uri__ctor_m1528033823
nWm:__ZN6il2cpp2vm10Reflection19SetMonoAssemblyNameEPK14Il2CppAssemblyPK22Il2CppMonoAssemblyName
_gn:__ZN6il2cpp2vm13ComObjectBase19GetRuntimeClassNameEPP15Il2CppHString__
jk:_emscripten_glVertexAttribPointer
PYa:__ZN14PreloadManager26UpdatePreloadingSingleStepENS_21UpdatePreloadingFlagsEi
LSi:_SHA512Managed_Initialize_m891287980
xrd:__ZN18ScBeforeSolverTask11runInternalEv
_Xh:_TimeSpan__ctor_m1888018443_AdjustorThunk
Xwg:_SecurityException__ctor_m1484114982
org:_Array_GetValue_m1507415734
HYj:_DnsQuery__ctor_m315141746
H6d:_XmlRegisteredNonCachedStream_SetLength_m165478039
Krc:__ZL33GeomOverlapCallback_CapsuleConvexRKN5physx10PxGeometryERKNS_11PxTransformES2_S5_PNS_2Gu12TriggerCacheE
EJh:_XmlUntypedConverter_ChangeType_m732433876
m3k:_ReadOnlyCollection_1_System_Collections_IList_get_Item_m375043207_gshared
q7:__ZN6prcoreL25inner_stretch_i8_bilinearEPKNS_9InnerInfoE
aGe:_RegexCharClass_RangeCount_m997997568
f$a:__ZL30RegisterFilteredObjectCallbackPP12Il2CppObjectiPv
p2j:_OrderedDictionary_Remove_m1906215950
Myk:_MonoMethod_get_IsGenericMethod_m4276550811
Sdi:_BinaryWriter_Write_m838928755
iF:__ZN11UnityEngine15CloudWebService16SessionContainer24GetSessionHeaderJsonDataERKN4core12basic_stringIcNS2_20StringStorageDefaultIcEEEERNS2_13StringBuilderE
f5e:_Decimal_op_Implicit_m2149927308
yT:__ZN13RuntimeStaticI21AssetReferenceStorageLb0EE13StaticDestroyEPv
pwd:__ZN5physx20InternalTriangleMesh9loadRTreeERNS_13PxInputStreamEj
k5g:_Asttree_SetURN_m3635293830
h6e:_DateTimeParse_SetDateMDY_m3576581409
fch:_Socket_get_Connected_m2189494307
PZg:_Task_CreationOptionsFromContinuationOptions_m3637432157
szp:__ZNSt3__212basic_stringIwNS_11char_traitsIwEENS_9allocatorIwEEE9__grow_byEjjjjjj
E1g:_DtdParser_Throw_m2335450707
zan:__ZN6il2cpp6icalls8mscorlib6System9AppDomain22InternalGetProcessGuidEP12Il2CppString
kUc:__ZN5physx2Sc18ParticleSystemCore16releaseParticlesEv
Gli:_StreamWriter_get_LeaveOpen_m3023617162
Ojc:__ZN5physx2Gu20intersectTriangleBoxERKNS_6shdfnd3aos5Vec3VES5_S5_S5_S5_
Bxi:_Enumerator_System_Collections_IDictionaryEnumerator_get_Entry_m345330700_AdjustorThunk
Ope:_XdrBuilder_XDR_BeginAttribute_m1998382995
Hna:__ZNK17FileSystemHandler10IsReadOnlyERK13FileEntryData
Mgb:__Z18Transfer_BlittableI24GenerateTypeTreeTransferLb1EjEvRK29SerializationCommandArgumentsR31RuntimeSerializationCommandInfo
cVh:_Thread_BeginCriticalRegion_m1524490153
Xym:__ZN6il2cpp2os12FastAutoLockD2Ev
lrk:_SymbolType_GetConstructors_m343325903
lza:__ZN11ColorRGBA328TransferI14SafeBinaryReadEEvRT_
Y4f:_DatatypeImplementation_get_FacetsChecker_m1195733333
Qbl:_SafeFindHandle_ReleaseHandle_m353960506
KGd:__ZN5physx6shdfnd5ArrayIPvNS0_19ReflectionAllocatorINS_24NpPtrTableStorageManager8PtrBlockILi4EEEEEE15growAndPushBackERKS2_
ytl:_InternalEnumerator_1_get_Current_m1864471731_AdjustorThunk
pLe:_RegexRunner_DoubleCrawl_m2271635966
N6:__Z11IsHDRFormat13TextureFormat
Veg:_AuthenticodeBase_GetSecurityEntry_m2086284884
$f:_emscripten_glClearDepth
gVb:__ZNK8GUILayer22GetTypeVirtualInternalEv
g1f:_Datatype_List_CreateValueConverter_m713417053
tKj:_SourceElement_get_Attributes_m207099729
UMa:__ZN14SafeBinaryRead21TransferSTLStyleArrayINSt3__26vectorIN15QualitySettings14QualitySettingENS1_9allocatorIS4_EEEEEEvRT_17TransferMetaFlags
rgi:_File_OpenText_m4058508963
XUn:__Z105RuntimeInvoker_Void_t1841601450_RuntimeObject_RuntimeObject_RuntimeObject_Int32_t2071877448_RuntimeObjectPFvvEPK10MethodInfoPvPS4_
mzf:_Array_qsort_TisUInt64_t2909196914_m4140069154_gshared
MVa:__ZNSt3__26vectorINS_4pairIPKN5Unity4TypeE7Hash128EENS_9allocatorIS7_EEE8__appendEj
ukj:_WellKnownClientTypeEntry__ctor_m670594074
w1k:_ReadOnlyCollection_1_System_Collections_ICollection_CopyTo_m3644643417_gshared
oqf:_RuntimeType_IsSpecialSerializableType_m1179973965
vaf:_DateTime_System_IConvertible_ToSingle_m3927769066_AdjustorThunk
Pxj:_RecordProtocol_SendRecord_m2977889250
OYb:__Z13IsPathCreatedRKN4core12basic_stringIcNS_20StringStorageDefaultIcEEEE
ifd:__ZN5physx35solveContactPreBlock_ConcludeStaticEPKNS_23PxcSolverConstraintDescEjRNS_16PxcSolverContextE
X6:__ZL22stbir__encode_scanlineP11stbir__infoiPvPfiii
Ebm:_AttrListImpl__ctor_m2213894057
hLd:__ZN20QuadTreeNodeRenderer13StaticDestroyEPv
eG:__ZN11UnityEngine15CloudWebService20WebRequestRestClient5AbortEv
zQj:_ConnectionManagementSection__cctor_m4267824353
Srh:_Array_InternalArray__ICollection_Remove_TisUInt32_t2149682021_m4198326168_gshared
nRb:__ZN9Transform12CleanupClassEv
Iyh:_Task_Run_TisRuntimeObject_m2052602702_gshared
qBn:__Z50RuntimeInvoker_Void_t1841601450_Double_t4078015681PFvvEPK10MethodInfoPvPS4_
quj:_ClientContext_set_ClientHelloProtocol_m2246603449
Ytc:__ZN5physx6shdfnd5ArrayIPvNS0_15InlineAllocatorILj256ENS0_19ReflectionAllocatorINS_2Cm5BlockIS2_Lj32EEEEEEEE15growAndPushBackERKS2_
xqd:__ZN5physx18PxsSolverStartTask13setupDescTaskEv
tzm:__ZN6il2cpp2vmL21SetupPropertiesLockedEP11Il2CppClassRKNS_2os12FastAutoLockE
W6g:_Compiler__ctor_m1664164061
gGk:_FtpWebRequest_UploadData_m3373136954
t2a:__ZNSt3__26vectorIN9ShaderLab19SerializedSubShaderENS_9allocatorIS2_EEE26__swap_out_circular_bufferERNS_14__split_bufferIS2_RS4_EE
Lxn:__Z116RuntimeInvoker_RuntimeObject_RuntimeObject_Int32_t2071877448_RuntimeObject_RuntimeObject_RuntimeObject_RuntimeObjectPFvvEPK10MethodInfoPvPS4_
Txm:_AnalyticsTracker_TriggerEvent_m1494303835
O9b:__ZN5physx3Cct13BoxController6resizeEf
Uqh:_Array_InternalArray__ICollection_Remove_TisKeyValuePair_2_t3800763530_m3028619765_gshared
$Nf:_Bootstring_Decode_m2233211605
sZd:_XmlLoader_LoadEntityReferenceNode_m1917544334
Esf:_SByte_ToString_m4105923225_AdjustorThunk
aRf:_CultureInfo_ConstructCurrentUICulture_m3363349599
j8h:_CFHelpers_FetchString_m370077633
_Xd:_XmlDocumentType_get_Notations_m503182328
uVl:_PropertyInformationCollection_Add_m3086044235
yLe:_RegexMatchTimeoutException__ctor_m2339853410
bsd:__ZN5physx6shdfnd5ArrayINS_2Cm12DelegateTaskINS_2Sc5SceneEXadL_ZNS5_19updateCCDSinglePassEPNS_10PxBaseTaskEEEEENS0_19ReflectionAllocatorIS8_EEE8recreateEj
Bza:__Z30ProcessDynamicBatchGeometryJobP25DynamicVBOGeometryJobDataj
VAb:__ZNSt3__27__sort4IRNS_6__lessI11CulledLightS2_EEPS2_EEjT0_S6_S6_S6_T_
VRe:_Buffer_IndexOfByte_m4015874738
xdl:_MSCompatUnicodeTable_Level3_m260824928
sP:__Z26scripting_object_get_class18ScriptingObjectPtr
tYa:__ZNSt3__26vectorIN4core12basic_stringIcNS1_20StringStorageDefaultIcEEEE13stl_allocatorIS5_L18MemLabelIdentifier13ELi16EEE7reserveEj
TEj:_PropertyDescriptorCollection_System_Collections_IList_Insert_m2641798284
ZFc:__ZN5physx34NpShapeGetScRigidObjectFromScbSLOWERKNS_3Scb5ShapeE
t0g:_XPathParser_ParseRelationalExpr_m1306061832
NQb:__ZNK28MonoBehaviourPropertyBinding15GenerateBindingERKN4core12basic_stringIcNS0_20StringStorageDefaultIcEEEEbRN11UnityEngine9Animation14GenericBindingE
BEk:_RuntimeResourceSet_GetString_m447302559
A9e:_DateTime_ToShortDateString_m2983678851
$2g:_DtdParser_ScanCondSection2_m28667148
JUi:_X509Certificate_Reset_m1676863543
dgg:_KeyPairPersistence_Load_m1355205585
O5f:_DtdValidator_ValidateChildElement_m2779233368
TBe:_X509ChainImplMono_CheckCrls_m1853471326
VIf:_StackTrace__ctor_m3282848393
bai:_Int32_ToString_m2960866144_AdjustorThunk
jUa:__ZN14SubstanceValue8TransferI18StreamedBinaryReadILb0EEEEvRT_
AOh:_XsdValidator_Validate_m469458269
Qxc:__ZNK5physx21PxsBodyTransformVault12getTransformERKNS_11PxsBodyCoreE
h6d:_XmlReaderSettings_set_LineNumberOffset_m3731384766
fdn:__ZN6il2cpp6icalls8mscorlib6System11Environment15internalGetHomeEv
XOf:_CalendarData__ctor_m3714399848
Vnh:_X509Certificate2ImplMono__cctor_m4048545302
bXh:_WaitHandle_get_SafeWaitHandle_m2847102403
v3l:_SafeBuffer_ReleasePointer_m2353574589
eia:__ZNK5Unity9Component7GetNameEv
CUi:_X509Helper_ImportApple_m39842088
Y6f:_FacetsCompiler_CompileLengthFacet_m431544049_AdjustorThunk
Jbc:__ZN44ConvexVsHeightfieldContactGenerationCallback7onEventEjPj
vDk:_ResourceManager_OnSerializing_m2176838909
twp:__ZNKSt3__27codecvtIwc11__mbstate_tE5do_inERS1_PKcS5_RS5_PwS7_RS7_
rEn:__Z111RuntimeInvoker_Void_t1841601450_RuntimeObject_RuntimeObject_RuntimeObject_TimeSpan_t3430258949_SByte_t454417549PFvvEPK10MethodInfoPvPS4_
Tbg:_SchemaCollectionCompiler_CleanupAttributeGroup_m1358233817
gne:_StarNode_ConstructPos_m3708402279
l2f:_Datatype_NOTATION_TryParseValue_m1735879632
zsf:_SByte_GetHashCode_m1692727069
mxg:_String_CharCopy_m586187774
Ufl:_BigInteger_GetBytes_m2935282248
hTf:_DateTimeFormatInfo_get_DateTimeOffsetPattern_m1510065586
$hf:_ReadObjectInfo_GetMemberInfo_m3832570033
yOb:__ZN10BootConfig4Data3SetEPKcjS2_j
Xsp:__ZNKSt3__27num_putIwNS_19ostreambuf_iteratorIwNS_11char_traitsIwEEEEE6do_putES4_RNS_8ios_baseEwe
dsf:_RuntimeTypeHandle__ctor_m292725554_AdjustorThunk
ath:_Array_QSortArrange_TisSByte_t454417549_m955864523_gshared
t3d:_XmlNodeReaderNavigator_GetAttribute_m1213061259
zyc:__ZN5physx6shdfnd5ArrayIPvNS0_15InlineAllocatorILj256ENS0_19ReflectionAllocatorINS_11NpAggregateEEEEEE15growAndPushBackERKS2_
C9j:_Enumerator_MoveNext_m3748058997_gshared
Hbi:_Int64_System_IConvertible_ToDouble_m638786774
RBg:_SecurityElement_ToXml_m1070777098
cx:__ZN4FMOD6System7releaseEv
o9c:__ZN5physx6shdfnd8PoolBaseINS_2Sc18TriggerInteractionENS0_19ReflectionAllocatorIS3_EEE15disposeElementsEv
GR:__Z18PathToAbsolutePathRKN4core12basic_stringIcNS_20StringStorageDefaultIcEEEE
bWj:_CFArray_CFArrayGetCount_m2465693892
CXo:__ZL81XmlSchemaDerivationMethod_t3165007540_CustomAttributesCacheGenerator_SubstitutionP21CustomAttributesCache
PHd:__ZN5physx28PxcContactCapsuleHeightFieldERKNS_2Gu13GeometryUnionES3_RKNS_11PxTransformES6_RKfRNS_10PxcNpCacheERNS0_13ContactBufferE
Tng:___Filters_FilterAttribute_m1951693334
bMd:__ZN21UnityAnalyticsManager15ThreadedCleanupEv
Ebc:__ZL31PointInConvexPolygon2D_OutCodesPKfjffffRh
xBn:__Z79RuntimeInvoker_Decimal_t724701077_RuntimeObject_Int32_t2071877448_RuntimeObjectPFvvEPK10MethodInfoPvPS4_
z6:__ZL13BlitImageImplR14ImageReferenceiiRKS_NS_10ColorSpaceENS_8BlitModeEb
SWd:_XmlImplementation__ctor_m2472662096
uKd:__ZN9Rigidbody12MoveRotationERK11Quaternionf
Vxn:__Z64RuntimeInvoker_RuntimeObject_Int16_t4041245914_Int16_t4041245914PFvvEPK10MethodInfoPvPS4_
N7f:_KeySequence_set_Item_m3268727489
rIa:__ZN29SerializeTraitsForStringTypesIN4core12basic_stringIcNS0_20StringStorageDefaultIcEEEEE8TransferI24GenerateTypeTreeTransferEEvRS4_RT_
iv:__ZN12AudioManager29ShutdownReinitializeAndReloadEv
KCf:_AsyncTaskMethodBuilder_1_Start_TisU3CGetEntityAsyncU3Ed__0_t385453514_m3937211145_gshared
F_m:__ZN6il2cpp6icalls8mscorlib6System10Reflection8Assembly22load_with_partial_nameEP12Il2CppStringP40mscorlib_System_Security_Policy_Evidence
ltd:__ZN5physx2Cm12DelegateTaskINS_2Sc5SceneEXadL_ZNS3_15postNarrowPhaseEPNS_10PxBaseTaskEEEE11runInternalEv
NId:__Z20ConvertContactToMonoP9Collision
OMk:_Win32_SOCKET_ADDRESS_GetIPAddress_m3946757953
Zfn:__GLOBAL__sub_I_String_cpp
Wym:__ZN15dense_hashtableINSt3__24pairIK10KeyWrapperIPK22Il2CppGenericParameterEP11Il2CppClassEES6_N6il2cpp5utils11PointerHashIS4_EEN14dense_hash_mapIS6_S9_SE_NS6_14EqualsComparerINS0_8equal_toIS5_EEEENS0_9allocatorISA_EEE9SelectKeyESJ_SL_E6insertERKSA_
Aog:_AggregateException_Flatten_m525658131
rIg:_DecoderNLS_Reset_m2061850310
xgi:_FileLoadException__ctor_m1356374414
D$j:_MonoSslStreamImpl_Dispose_m475506816
xlh:__Z30il2cpp_codegen_resolve_pinvokeIPFiiiELj55ELj30EET_RAT0__KcRAT1__S3_20Il2CppCallConvention13Il2CppCharSetib
KNe:_Uri_get_OriginalStringSwitched_m2178267165
S3:__ZN14DataBufferGLES16RecreateWithDataEjPKv
Bia:__Z29GetGlobalAllowNameConversionsv
Dbc:__ZL17transformVerticesRfS_S_S_PfjPKN5physx6PxVec3EPKhRKNS1_7PxMat33E
UHd:__ZNK5physx2Gu15HeightFieldUtil31getFaceIndexAtShapePointNoTest2Ejff
NHp:_emscripten_glBlendFunc__wrapper
ZKb:__ZN8Material8SetColorEN9ShaderLab16FastPropertyNameERK10ColorRGBAf
fJi:_Dictionary_2__ctor_m965168575_gshared
qBk:_RuntimeFieldInfo_GetObjectData_m2859297154
Bwk:_Module_GetCustomAttributes_m3581287913
Ty:__ZN11AudioSource23VirtualRedirectTransferER18StreamedBinaryReadILb0EE
myg:_DefaultPolicies_BuildSkipVerification_m3819517738
pad:__ZNK5physx2Sq10AABBPruner5sweepERKNS0_9ShapeDataERKNS_6PxVec3ERfRNS0_14PrunerCallbackE
lan:__ZN6il2cpp6icalls8mscorlib6System4Enum9get_valueEP12Il2CppObject
fO:__ZL41AssemblyNameMatchesWithOrWithoutExtensionPKcS0_
cfj:_DictionaryEnumerator__ctor_m4083708331
n5c:__ZN5physx2Sc5Scene21fireCallBacksPostSyncEv
V8n:__Z123RuntimeInvoker_Void_t1841601450_SByte_t454417549_VoidTaskResult_t3325310798_Int32_t2071877448_CancellationToken_t1851405782PFvvEPK10MethodInfoPvPS4_
Wba:__ZN14GfxContextGLES43AddRenderSurfaceToDeferredFBOInvalidateListEPK17RenderSurfaceGLES
JKl:_Dictionary_2__ctor_m3269726301_gshared
Vbd:__ZN5physx17PxsCCDAdvanceTask11runInternalEv
Cka:__ZN11NamedObject23VirtualRedirectTransferER14SafeBinaryRead
Xnm:_AudioListener_GetNumExtensionProperties_m2652400521
vWe:_ReadOnlyArrayList_get_Item_m309875157
wla:__ZN23PreloadManagerOperation6IsDoneEv
uLk:_MacOsIPInterfaceProperties__ctor_m4272031495
CKm:__ZN6il2cpp2vm7Runtime15InvokeWithThrowEPK10MethodInfoPvPS5_
_lg:_X509Certificate_get_RawData_m3000055075
HWb:__Z33GetHasChangedDeprecatedSystemMaskv
zgn:__ZN6il2cpp5utils11StringUtils11Utf16ToUtf8ERKNSt3__212basic_stringIDsNS2_11char_traitsIDsEENS2_9allocatorIDsEEEE
Wlc:__ZN5physx3Cct26CharacterControllerManagerD2Ev
RKe:_RegexInterpreter_TrackPeek_m2945516277
rXh:_WaitHandle_WaitAny_m614244559
m_a:__ZN21LightProbeProxyVolume18HasHardwareSupportEv
UDb:__ZN26LightProbeProxyVolumeCacheC2ER13BatchRendererR15RenderLoopStats
cVf:_GregorianCalendarHelper_DateToTicks_m2817840153
l7:__ZN6prcoreL31inner_stretch_argb8888_bilinearEPKNS_9InnerInfoE
Mkb:__Z18Transfer_BlittableI18StreamedBinaryReadILb1EELb1E8BitFieldEvRK29SerializationCommandArgumentsR31RuntimeSerializationCommandInfo
EEn:__Z98RuntimeInvoker_Int32_t2071877448_RuntimeObject_Int32_t2071877448_SByte_t454417549_SByte_t454417549PFvvEPK10MethodInfoPvPS4_
lue:_XmlBooleanConverter_Create_m659766956
twj:_TlsClientCertificate_get_ClientCertificate_m3062440489
bal:_Comparison_1_BeginInvoke_m3853096414_gshared
xvg:_StrongNamePublicKeyBlob_ToString_m3721281223
Kln:_GC_init_size_map
wbd:__ZN5physx6shdfnd8internal8HashBaseINS0_4PairIKNS3_IPKNS_12PxsRigidCoreEPKNS_12PxsShapeCoreEEEPNS_11PxsCCDShapeEEESA_NS0_4HashISA_EENS1_11HashMapBaseISA_SD_SG_NS0_9AllocatorEE6GetKeyESI_Lb1EE15reserveInternalEj
HSi:_SHA384Managed__cctor_m1107466912
Iwa:__Z20scripting_object_new17ScriptingClassPtr
ECp:dynCall_iiiiifi
C2h:_Type_FormatTypeName_m4084479009
HWk:_Queue_1_System_Collections_ICollection_CopyTo_m772787461_gshared
Nce:_XmlTextReaderImpl_set_InternalSchemaType_m2652612165
w0b:__Z58Register_UnityEngine_Object_Internal_CloneSingleWithParentv
vCj:_EnumConverter_CanConvertTo_m2854622655
lVk:_ObjectEqualityComparer_1_IndexOf_m2187388031_gshared
iYf:_TextInfo_ToUpper_m299550697
d6c:__ZN5physx2Sc5Scene21setDominanceGroupPairEhhRKNS_20PxDominanceGroupPairE
Mkp:_Interactor_OnUpdate_m1955753930
xnm:_AudioExtensionManager_AddSpatializerExtension_m1061433739
W9m:__ZN27WorkerThreadParkStateHolderC2ER23WorkerThreadStateHolder
aIl:_Tuple_4_ToString_m1553484336_gshared
mVh:_Thread_GetMutableExecutionContext_m2112077705
w3e:_Convert_ToUInt16_m3265369225
Q:Math_exp
wYd:_XmlWhitespace__ctor_m674315191
nXf:_SortKey_ToString_m2406913228
fp:FUNCTION_TABLE_iiifi
jan:__ZN6il2cpp2os5posix13PosixAutoLockD2Ev
VDk:_ResourceReader__LoadObjectV1_m3568695794
yca:__ZNSt3__26vectorINS_4pairIyP17VertexDeclarationEENS_9allocatorIS4_EEE6insertENS_11__wrap_iterIPKS4_EERS9_
n9b:__GLOBAL__sub_I_modules_physics2d_public_0_cpp
cng:___DTString_AtEnd_m186324974
oqb:__ZN13MonoBehaviour9SetScriptERK4PPtrI10MonoScriptE18ScriptingObjectPtr
lqh:_Array_InternalArray__ICollection_Contains_TisPlayableBinding_t2498078091_m4267109606_gshared
lIe:_RegexCompiler_Dup_m2745587602
dJk:_AuthorizationState_ToString_m2268524593
EZc:__ZN5physx7NpScene12loadFromDescERKNS_11PxSceneDescE
FCe:_X509EnhancedKeyUsageExtension__ctor_m4050164330
GTe:_Char_ToString_m1401375624
MOi:_MD5CryptoServiceProvider__cctor_m3309191799
hqa:__ZNK10FileSystem16LastErrorMessageEv
rfh:_SocketException_WSAGetLastError_internal_m660574837
XDh:_Array_InternalArray__Insert_TisWin32_IP_ADAPTER_ADDRESSES_t680756680_m789389146_gshared
HSf:_DateTimeFormatInfo_get_AllShortDatePatterns_m1479231608
hBm:__ZN15dense_hashtableINSt3__24pairIK10KeyWrapperIPK11Il2CppClassEPKcEES6_N6il2cpp5utils11PointerHashIS3_EEN14dense_hash_mapIS6_S9_SE_NS6_14EqualsComparerINS0_8equal_toIS5_EEEENS0_9allocatorISA_EEE9SelectKeyESJ_SL_E14squash_deletedEv
n5l:_ConfigHandler_ReadCustomProviderData_m784203316
FXb:__ZN11TimeManager16HasFixedTimeStepEv
vDf:_Array_InternalArray__get_Item_TisCipherSuiteCode_t4229451518_m2684381974_gshared
QTh:_ThreadPoolTaskScheduler__ctor_m1143804883
Joj:_Kernel_DwordDivMod_m3728402123
Fpb:__ZN13MonoBehaviour13AwakeFromLoadE17AwakeFromLoadMode
M1j:_NameValueCollection_GetAsOneString_m2053727420
Xff:_MemberPrimitiveTyped_Read_m443959971
Teb:__ZL26Transfer_SimpleNativeClassI17RemapPPtrTransfer8GradientLb1EEvRK29SerializationCommandArgumentsR31RuntimeSerializationCommandInfo
NIj:_DefaultTraceListener__ctor_m1814291763
ETh:_TaskFactory_CommonCWAnyLogic_m2955740698
VWb:__ZN12CachedWriter9InitWriteER15CacheWriterBase
kWb:__Z21UnsignedInt64ToStringy
b6c:__ZN5physx14PxsAABBManager15createAggregateEPvb
o_e:_Queue__ctor_m214205393
cGp:_emscripten_glTexCoordPointer__wrapper
crl:_InternalEnumerator_1_get_Current_m1089848479_AdjustorThunk
YV:__ZZN15DirectorManager15InitializeClassEvEN41FixedUpdateDirectorFixedUpdateRegistrator7ForwardEv
hlj:___BinaryParser_ReadMessageEnd_m3226718827
ECh:_Array_InternalArray__ICollection_CopyTo_TisTypeCode_t2536926201_m1510046597_gshared
eb:invoke_iiiiifiiiif
ebm:_X509Crl_VerifySignature_m1390212587
oze:_XmlSchemaElement_get_ElementDecl_m713820346
QDk:_ResourceReader_LoadObjectV1_m3234212095
NBj:_DescriptionAttribute_IsDefaultAttribute_m565836508
NKp:_glLinkProgram__wrapper
P6a:__ZN18ScriptingArguments8AddInt64Ex
JZm:__ZN6il2cpp6icalls8mscorlib6System7Runtime15InteropServices7Marshal28GetIUnknownForObjectInternalEP12Il2CppObject
V7:__ZN6prcoreL12RemapGenericI17TexFormatARGB888815TexFormatBGR888EEvPKNS_9InnerInfoE
u7a:__ZN12HandlerChain4LockER13FileEntryData12FileLockMode
aif:_ObjectManager_RegisterString_m1470317830
zRd:__ZN28UnityConnectScriptingClasses23CallSessionStateChangedEixxbP21ScriptingExceptionPtr
com:_AudioExtensionManager_GetListenerSpatializerExtensionType_m3668710088
SLc:__ZN5physx7NpShape8requiresERNS_23PxProcessPxBaseCallbackE
$Om:__ZN6il2cpp2vm10Reflection17GetAssemblyObjectEPK14Il2CppAssembly
$gb:__ZL22Transfer_ManagedObjectI24GenerateTypeTreeTransferLb1EEvRK29SerializationCommandArgumentsR31RuntimeSerializationCommandInfo
Iwm:_CustomEventData_Add_m3072448562
iUf:_DateTimeFormatInfo_TryParseHebrewNumber_m64883380
_Bf:_AsyncTaskMethodBuilder_1_AwaitOnCompleted_TisHopToThreadPoolAwaitable_t4191184651_TisU3CWriteAsyncInternalU3Ed__37_t1508048495_m2182592622_gshared
rk:_emscripten_set_main_loop_timing
_Ll:_Dictionary_2_Resize_m59470703_gshared
K9j:_Enumerator_System_Collections_IEnumerator_Reset_m2390327869_AdjustorThunk
K7h:_WeakReference_AllocateHandle_m1783929473
sid:__ZNK5physx20SingleAABBUpdateTask7getNameEv
EKb:__ZN14ImageReference10FlipImageYEv
yIg:_DecoderNLS_Convert_m2333667520
XYd:_NodeData_get_None_m3042585793
ws:__ZN4FMOD3DSP9setBypassEb
aOb:__Z19NormalizeWheelInputf
zih:_U3CU3Ec__DisplayClass75_0_U3CSetHeadersAsyncU3Eb__0_m3730809392
sse:_XmlBaseConverter_ToDecimal_m649856323
dmp:_UpdateManager_get_GeneralFixedUpdater_m2027773276
rQc:__ZN5physx2Sc9ClothCore17addCollisionPlaneERKNS_21PxClothCollisionPlaneE
jxa:__ZN22RenderingCommandBuffer20CleanupCommandBufferEv
Y2b:__Z18Transfer_BlittableI9JSONWriteLb1EtEvRK29SerializationCommandArgumentsR31RuntimeSerializationCommandInfo
Vqe:_XmlAnyConverter__ctor_m3493748700
Egi:_FileLoadException__ctor_m918124939
Lbk:_List_1_set_Item_m72704742_gshared
Kk:___syscall85
l9k:_ReadOnlyCollection_1_IsCompatibleObject_m363020530_gshared
O5e:_DateTimeParse_GetDayOfMN_m3185603567
Cvd:__ZNK5physx13PxHeightField8isKindOfEPKc
pTn:__Z254RuntimeInvoker_Void_t1841601450_RuntimeObject_Int16_t4041245914_Int32_t2071877448_Int32_t2071877448_SByte_t454417549_SByte_t454417549_RuntimeObject_RuntimeObject_FlagsU26_t1915283733_BooleanU26_t3168250738_StringU26_t638738783_ParsingErrorU26_t2544582738PFvvEPK10MethodInfoPvPS4_
UCj:_EventDescriptorCollection_Insert_m1803656474
yY:__ZN15dense_hashtableINSt3__24pairIKN4core12basic_stringIcNS2_20StringStorageDefaultIcEEEE13dynamic_arrayI4PPtrI6SpriteELj4EEEES6_20StringHash32FunctionIS6_EN14dense_hash_mapIS6_SC_SF_NS0_8equal_toIS6_EE13stl_allocatorISD_L18MemLabelIdentifier81ELi16EEE9SelectKeyESI_SL_E5clearEv
t9d:_XmlTextReaderImpl_AddAttributeNoChecks_m3593438227
Eyb:__ZNSt3__26__sortIRPFbP10GUIElementS2_EPS2_EEvT0_S7_T_
Ipj:_SequentialSearchPrimeGeneratorBase_GenerateSearchBase_m2930465198
b2d:_XmlNode_get_ChildNodes_m3902468502
qzm:__ZN6il2cpp2vmL21SetupInterfacesLockedEP11Il2CppClassRKNS_2os12FastAutoLockE
F9a:__ZN11MonoManager23VirtualRedirectTransferER24GenerateTypeTreeTransfer
YBa:__ZN19StreamedBinaryWriteILb0EE8TransferI13dynamic_arrayI8Vector3fLj4EEEEvRT_PKc17TransferMetaFlags
$yh:_Array_CheckComparerAvailable_TisRegexOptions_t2418259727_m520109715_gshared
Bkc:__ZN16ControllerFilter9preFilterERKN5physx12PxFilterDataEPKNS0_7PxShapeEPKNS0_12PxRigidActorERNS0_7PxFlagsINS0_9PxHitFlag4EnumEtEE
eF:__ZN11UnityEngine15CloudWebService14DataDispatcher15SetupWebRequestEv
Xmi:_TextWriter__cctor_m4047845042
U3f:_Datatype_unsignedShort_Compare_m3476185535
NHh:_XmlSchemaSimpleTypeUnion_Clone_m1656667169
EOd:__ZN11UnityEngine15PlatformWrapper13GetShaderCapsEv
Mhm:_Object_ToString_m2938729670
ohd:__ZN16MBPOS_TmpBuffers16allocateSleepingEjj
aNe:_UriHelper_IsUnreserved_m797466135
GPi:_RijndaelManagedTransform_Enc_m1054762873
Nfn:__ZN6il2cpp6icalls8mscorlib6System17RuntimeTypeHandle11IsPrimitiveEP27Il2CppReflectionRuntimeType
bHm:__ZN6il2cpp6icalls6System6System3Net7Sockets6Socket8RecvFromEiP11Il2CppArrayiiNS4_11SocketFlagsEPP19Il2CppSocketAddressPi
zUi:_X509Helper_Import_m2720451752
Fgg:_SmallXmlParser_ReadCharacters_m1966365555
K6l:_InternalAsyncResult_get_CompletedWithError_m3993955322
WVb:__ZN21FixedBehaviourManager6UpdateEv
AYb:__ZN9Transform9SetParentEPS_NS_15SetParentOptionE
B_f:_TimeSpanTokenizer_get_CurrentChar_m1042982817_AdjustorThunk
pQn:__Z117RuntimeInvoker_RuntimeObject_Decimal_t724701077_Int32_t2071877448_Int32_t2071877448_SByte_t454417549_SByte_t454417549PFvvEPK10MethodInfoPvPS4_
Agl:_Updater_1_Register_m3995658996_gshared
erf:_RuntimeTypeHandle_IsPrimitive_m3919675769
Xua:__ZN19ShaderPropertySheet8SetFloatEN9ShaderLab16FastPropertyNameEfNS_8SetFlagsE
d2k:_ReadOnlyCollection_1_System_Collections_IList_get_Item_m2917979708_gshared
bZa:__ZN19RuntimeSceneManager24BeginIntegrateMainThreadEP10UnityScene
wzc:__ZN5physx14NpArticulation26setExternalDriveIterationsEj
fcc:__ZN16RayRTreeCallbackILi0ELb0EED0Ev
Mmd:__ZN5physx20PxsParticleSystemSim23scheduleCollisionUpdateERNS_10PxBaseTaskE
Y1a:__ZN9ShaderLab20SerializedSubProgramaSERKS0_
JCg:_String_CreateString_m2556700934
Lsa:__ZN18StreamedBinaryReadILb0EE21TransferSTLStyleArrayINSt3__26vectorI17SortingLayerEntryNS2_9allocatorIS4_EEEEEEvRT_17TransferMetaFlags
tEl:_Task_1__ctor_m2571213091_gshared
qVf:_HebrewNumber__cctor_m2969583679
K7g:_Compiler_IsSequenceFromChoice_m145705785
Jnj:___BinaryWriter_WriteMemberNested_m4081448517
rzm:__ZN6il2cpp2vmL24SetupTypeHierarchyLockedEP11Il2CppClassRKNS_2os12FastAutoLockE
brh:_Array_InternalArray__ICollection_Remove_TisInternalCodePageDataItem_t1742109366_m586307256_gshared
iOb:__ZL11TextHandleriPK23EmscriptenKeyboardEventPv
EDb:__Z20CalculateLightMatrixRK15SharedLightDataP10Matrix4x4f
EJk:_IPv6AddressFormatter_IsIPv4Mapped_m2657168139
PGp:_glBlendEquationSeparate__wrapper
Cnn:__ZN6il2cpp6icalls8mscorlib6System8Security12Cryptography24RNGCryptoServiceProvider13RngInitializeEP11Il2CppArray
KJk:_IPAddress__cctor_m3624830012
az:__ZN20SoundChannelInstance7setMuteEb
Plc:__ZN5physx3Cct26CharacterControllerManager21createObstacleContextEv
Tag:_SchemaCollectionCompiler_Prepare_m2227195267
Skh:_AsnEncodedData_EnhancedKeyUsageExtension_m1452131166
q$e:_SortedList_set_Item_m3109168821
Mah:_Socket_get_IsDualMode_m3158776585
NXk:_Stack_1_Pop_m6860886_gshared
Llb:__Z19TransferField_ArrayI18StreamedBinaryReadILb1EE27Converter_SimpleNativeClassI17AnimationCurveTplIfEEEvRK23StaticTransferFieldInfoR31RuntimeSerializationCommandInfoRT0_
ohp:_SendMouseEvents__cctor_m1448404407
Ajk:_List_1_System_Collections_IList_Insert_m426898401_gshared
Idi:_BinaryWriter__ctor_m1559918839
B4:__ZN18GfxFramebufferGLES22MakeCurrentFramebufferENS_7BuiltinE
kmm:_Error_NotSupported_m1830277424
Q$c:__ZN5physx6shdfnd5ArrayIPNS_2Sc19ShapeInstancePairLLENS0_19ReflectionAllocatorIS4_EEE15growAndPushBackERKS4_
x0e:_ValueList_GetEnumerator_m3800782235
Cqa:__ZN12CachedReader4ReadEPvj
ipc:__ZN5physx14PxsAABBManager19createAggregateElemEv
KDc:__ZN5physx2Sc8BodyCore24clearSpatialAccelerationEbb
qHl:_Tuple_2_ToString_m4162645436_gshared
JRi:_SHA1Internal_HashFinal_m3188468925
iUa:__ZN14SubstanceInput8TransferI18StreamedBinaryReadILb0EEEEvRT_
VCb:__Z24CalculateLightShadowFadeRK6CamerafffR8Vector4f
lO:__ZN19RuntimeSceneManagerD2Ev
Hsk:_TypeBuilder_IsCOMObjectImpl_m3172502936
s4l:_ChannelData_get_CustomProperties_m1470957369
Vcf:_Decimal_OnSerializing_m1909554870
Nll:_InternalEnumerator_1_System_Collections_IEnumerator_get_Current_m1313308902_AdjustorThunk
SBk:_TypeDelegator_get_MetadataToken_m1727717650
wyl:_Nullable_1_get_Value_m1118025076_AdjustorThunk
uG:__ZN11UnityEngine15CloudWebService25WebRequestDownloadHandler17OnCompleteContentEv
k7:__ZN6prcore17GetIntegerBlitterE13TextureFormatS0_N14ImageReference8BlitModeE
J$c:__ZN5physx10PxsContext20createContactManagerERKNS_24PxvManagerDescRigidRigidEPNS_18PxsMaterialManagerE
yRm:__ZN6il2cpp2gc19AppendOnlyGCHashMapINSt3__24pairIPK11Il2CppImageP11Il2CppClassEEP22Il2CppReflectionModule17ReflectionMapHashIS9_ENS2_8equal_toIS9_EEE11TryGetValueERKS9_PSB_
Ftc:__ZN5physx2Sc5Scene31removeActiveBreakableConstraintEPNS0_13ConstraintSimE
S0j:_NodeKeyValueCollection_System_Collections_IEnumerable_GetEnumerator_m445307029
XGj:_TypeConverterAttribute__cctor_m506796812
ebe:_XmlTextReaderImpl_AddNamespace_m3720088086
RL:__ZNSt3__26__treeI19RepeatingLogMessageNS_4lessIS1_EE13stl_allocatorIS1_L18MemLabelIdentifier73ELi16EEE12__find_equalIS1_EERPNS_16__tree_node_baseIPvEESD_RKT_
DC:__ZN11AudioSource18IsPlayingScriptingEv
Avi:_Comparer_1_System_Collections_IComparer_Compare_m1790257529_gshared
kjh:_WebProxy_DeleteScriptEngine_m792896040
e4c:__ZN5physx6shdfnd5ArrayINS_12PxActorShapeENS0_19ReflectionAllocatorIS2_EEE15growAndPushBackERKS2_
Koa:__ZN25MultiBlocksMemoryFileData17AdjustBlocksCountEj
W_m:__ZNSt3__214__split_bufferIN6il2cpp2vm22EmbeddedResourceRecordERNS_9allocatorIS3_EEED2Ev
Q_h:_TimeZoneInfo_AreCStringsEqual_m3166796981
Auj:_TlsClientHello__ctor_m1699671541
v1n:__Z55RuntimeInvoker_RuntimeObject_VoidTaskResult_t3325310798PFvvEPK10MethodInfoPvPS4_
zmh:_X509Certificate2_get_PublicKey_m2119837179
S5l:_Context_NotifyGlobalDynamicSinks_m2916447645
T5f:_DtdValidator_CheckForwardRefs_m1214350739
N_b:__Z27CullingGroup_CUSTOM_DisposeP12Il2CppObject
bSd:__ZNSt3__26vectorIP19BaseConnectSettings13stl_allocatorIS2_L18MemLabelIdentifier6ELi16EEE21__push_back_slow_pathIKS2_EEvRT_
Oxb:__ZN13ComputeShader15SetTextureParamEjRKN9ShaderLab16FastPropertyNameE9TextureID16TextureDimension
sIc:__ZN5physx2Sc14ConstraintCore8setFlagsENS_7PxFlagsINS_16PxConstraintFlag4EnumEtEE
Yri:_InternalEnumerator_1_get_Current_m1715820327_gshared
Sm:_glStencilMask
uLn:__Z70RuntimeInvoker_Boolean_t3825574718_Int16_t4041245914_Int32_t2071877448PFvvEPK10MethodInfoPvPS4_
acn:__ZN6il2cpp2os10ThreadImpl16GetCurrentThreadEv
wud:__ZNK5physx2Sc15ClothFabricCore20getNbParticleIndicesEv
cOb:__ZN15GUIEventManager10QueueEventERK10InputEvent
Gyi:_Enumerator_System_Collections_IEnumerator_get_Current_m2010873149_gshared
sXl:_ConfigurationElementCollection_BaseRemoveAt_m1402001296
mgi:_File_get_DefaultLocalFileTime_m2134398062
eDg:_SharedStatics__cctor_m2923086392
SFf:_Array_InternalArray__IReadOnlyList_get_Item_TisKeyValuePair_2_t3716250094_m2160520652_gshared
Vij:_RealProxy__ctor_m2505535530
MQh:_XmlAttribute_CloneNode_m1501462364
Lkn:_GC_push_conditional_with_exclusions
V4h:_UInt32_System_IConvertible_ToUInt16_m2798641702_AdjustorThunk
vMg:_InternalEncoderBestFitFallbackBuffer_Fallback_m2725725648
IQn:__Z136RuntimeInvoker_Void_t1841601450_Int32_t2071877448_RuntimeObject_RuntimeObject_RuntimeObject_RuntimeObject_RuntimeObject_SByte_t454417549PFvvEPK10MethodInfoPvPS4_
MGe:_RegexNode_MakeQuantifier_m2358769096
Ozk:_MonoProperty_GetOptionalCustomModifiers_m3827844355
_vg:_ZoneIdentityPermission_IsSubsetOf_m3703492620
jbl:_RegistryKey__ctor_m1278683853
JCe:_X509EnhancedKeyUsageExtension_get_EnhancedKeyUsages_m1809797100
Xsc:__ZN5physx2Sc7BodySim6wakeUpEv
BZf:_StringParser_ParseInt_m4272245340
n$d:_XmlNode_AppendChildText_m3982558785
tlp:_MouseOverMaterialSwap_OnPointerEnter_m994440246
Xcn:__ZN6il2cpp2os13LibraryLoader18GetFunctionPointerEPvRK16PInvokeArguments
yfn:_WriteZStream
mel:_SimpleCollator_GetSortKey_m2188419329
z$c:__ZN5physx6shdfnd8PoolBaseINS_2Gu30LargePersistentContactManifoldENS0_19ReflectionAllocatorIS3_EEE17releaseEmptySlabsEv
stc:__ZN5physx2Sc21ConstraintInteraction7destroyEv
ljj:_RealProxy_GetTransparentProxy_m4192467161
hbk:_Enumerator_MoveNextRare_m627598676_AdjustorThunk
gfi:_MonoIO_ExistsSymlink_m2976617763
L$b:__Z33Register_UnityEngine_Random_Rangev
Pvp:__ZNSt3__211__money_putIwE8__formatEPwRS2_S3_jPKwS5_RKNS_5ctypeIwEEbRKNS_10money_base7patternEwwRKNS_12basic_stringIcNS_11char_traitsIcEENS_9allocatorIcEEEERKNSE_IwNSF_IwEENSH_IwEEEESQ_i
VCa:__ZN14RenderSettings27UpdateIndirectSpecularColorEv
uOi:_TailStream__ctor_m3094054062
KWa:__ZN14PlayerSettings8TransferI18StreamedBinaryReadILb0EEEEvRT_
sIm:__ZN6il2cpp6icalls8mscorlib6System8MonoType16GetMethodsByNameEP20Il2CppReflectionTypeP12Il2CppStringibS5_
Igm:_Logger_Log_m302200299
T3f:_Datatype_unsignedShort_get_TypeCode_m969191128
w4e:_Convert_ToSingle_m3186653037
d1c:__ZNK5physx7NpScene16getNbConstraintsEv
DPl:_EqualityComparer_1_CreateComparer_m2134235622_gshared
aPc:__ZN5physx7NpCloth14setWakeCounterEf
pub:__ZNSt3__27__sort3IRNS_4lessIN22BuiltinResourceManager8ResourceEEEPS3_EEjT0_S7_S7_T_
mCg:_SecurityManager_InitializePolicyHierarchy_m3054073013
fji:_MonoIO_GetLength_m2812344043
uce:_XmlTextReaderImpl_SetErrorState_m1559915765
bSa:__ZN10BlendShape8TransferI19StreamedBinaryWriteILb0EEEEvRT_
vUd:_XmlConfigurationString__cctor_m2272004353
Axf:__Z21il2cpp_codegen_sizeofP11Il2CppClass
sba:__Z19GetTimeSinceStartupv
ril:_InternalEnumerator_1_get_Current_m1364852572_gshared
Iuk:_FieldInfo_GetPseudoCustomAttributes_m2500972355
OEj:_PropertyDescriptorCollection_System_Collections_IEnumerable_GetEnumerator_m1233007566
_Yg:_Task_Dispose_m1062687037
Frg:_Array_Sort_m2994254654
bmp:_TriggerEventHandler_Assets_GameLogic_Core_IUnityEvent_RemoveListener_m3775636985
izf:_Array_qsort_TisUInt64_t2909196914_TisRuntimeObject_m1244253166_gshared
mBb:__ZN29RenderNodeQueuePrepareContextC2Ev
CB:__ZN10SampleClipC2E18MemLabelIdentifier18ObjectCreationMode
_2a:__ZN9ShaderLab20SerializedSubProgram16TextureParameter8TransferI24GenerateTypeTreeTransferEEvRT_
TZ:__ZN9GfxDevice19SaveStereoConstantsEv
WUh:_Thread_set_Name_m1343706609
hon:__ZN6il2cpp2os11MutexHandle4WaitEj
hZb:__ZL34GetComponentsImplementationRecurseILb1ELi1ELi1EEbR10GameObjectbRK17CompareParametersRK39GetComponentsImplementation_ReturnValue
_og:_AppDomain_ValidateAssemblyName_m1517758367
gon:__ZN6il2cpp2os11MutexHandle4WaitEv
fVe:_ArrayList_set_Capacity_m592558035
rPe:_UriParser_Resolve_m377453988
WUf:_GregorianCalendar__cctor_m645909093
d9:__ZN6prcoreL17RemapGenericFloatI15TexFormatRGHalf18TexFormatARGBFloatEEvPKNS_9InnerInfoE
m3g:_DtdParser_ScanQName_m946018282
WWj:_CFNetwork_CopyProxiesForURL_m1364827038
Usb:__Z18SimulateMouseInputi
Kbi:_Int64_System_IConvertible_ToDecimal_m3390697048_AdjustorThunk
gxb:__ZN13RenderManager23AddRemoveCamerasDelayedEv
FTl:_Configuration_get_SectionGroups_m2782934403
b4b:__ZN9JSONWrite8TransferI13dynamic_arrayIdLj8EEEEvRT_PKc17TransferMetaFlags
wrh:_Array_InternalArray__ICollection_Remove_TisILTokenInfo_t149559338_m1523907845_gshared
gMd:__ZN11UnityEngine9Analytics15AnalyticsConfigC2Ev
O2c:__ZN5physx2Sq17SceneQueryManager11shiftOriginERKNS_6PxVec3E
LId:__ZNK5Unity5Joint16GetCurrentForcesER8Vector3fS2_
bph:_Array_InternalArray__ICollection_Contains_TisDS_t769197341_m1351259248_gshared
cpe:_XmlSchemaDatatype_FromXdrName_m2468788891
pJb:__ZN13RenderTexture8SetWidthEi
Slm:_WhereListIterator_1_MoveNext_m2627973827_gshared
Ubk:_List_1_Contains_m4069231050_gshared
yDb:__Z25SetupObjectBakedOcclusionbRK15SharedLightDataRK26SharedLightmapSettingsDataRK15LightmapIndicesR17ShaderPassContext
RZe:_SyncHashtable_GetObjectData_m3774367030
uPi:_RijndaelManagedTransform_SubWord_m3554571150
z7i:_GenericTypeParameterBuilder_GetMember_m1788641390
uXf:_Guid_GetHashCode_m1401300871
zqi:_InternalEnumerator_1_get_Current_m216200531_AdjustorThunk
n6e:_DateTimeParse_ParseTimeZone_m702329933
$Kc:__ZNK5physx9NpFactory11getNbShapesEv
lmc:__ZN5physx3Cct15ObstacleContextD2Ev
aM:__ZN9ShaderLab16FastPropertyName4InitEPKc
LMj:_DeflateStream_WriteInternal_m1685486359
fQb:__Z13RegisterClassIN2UI13RectTransformEEvv
Bdl:_MSCompatUnicodeTable_ToWidthCompat_m2299599532
Rlf:_ObjectHolder_get_IsIncompleteObjectReference_m1481408151
Pyl:_Nullable_1_GetHashCode_m1859855859_gshared
Y_i:_NumberFormatter_get_IsFloatingSource_m2830957202
WTb:__ZL31MeshRendererTransformChangedJobP13BoundsJobDatajPK23TransformAccessReadOnlyPKyj
w6b:__ZN8JSONRead21TransferSTLStyleArrayI31ArrayOfManagedObjectsTransfererEEvRT_17TransferMetaFlags
Tzi:_Enumerator_MoveNext_m1388125215_gshared
FDa:__ZN13RenderTexture9SetMipMapEb
QLj:_TraceListenerCollection_System_Collections_IList_Remove_m3849427439
esp:__ZNKSt3__27num_getIwNS_19istreambuf_iteratorIwNS_11char_traitsIwEEEEE6do_getES4_S4_RNS_8ios_baseERjRm
FEl:_Task_1_GetResultCore_m410448687_gshared
KDf:_Array_InternalArray__get_Item_TisEntry_t827949121_m1519311144_gshared
$rp:__ZNKSt3__27num_getIwNS_19istreambuf_iteratorIwNS_11char_traitsIwEEEEE6do_getES4_S4_RNS_8ios_baseERjRb
_md:__ZN5physx2Sc10ClothShape21updateBoundsInAABBMgrEv
isp:__ZNKSt3__27num_getIwNS_19istreambuf_iteratorIwNS_11char_traitsIwEEEEE6do_getES4_S4_RNS_8ios_baseERjRe
z$i:_OperatingSystem_GetObjectData_m2276196875
HFj:_ReflectedTypeData_GetAttributes_m1102268639
fsp:__ZNKSt3__27num_getIwNS_19istreambuf_iteratorIwNS_11char_traitsIwEEEEE6do_getES4_S4_RNS_8ios_baseERjRy
cBm:__ZN14dense_hash_mapI10KeyWrapperIPK11Il2CppClassEPKcN6il2cpp5utils11PointerHashIS1_EENS4_14EqualsComparerINSt3__28equal_toIS3_EEEENSC_9allocatorINSC_4pairIKS4_S6_EEEEEC2EjRKSA_RKSF_
Pdl:_U3CU3Ec_U3CBuildTailoringTablesU3Eb__17_0_m3793730423
eBi:_Enumerator_System_Collections_IEnumerator_Reset_m3344301146_gshared
csp:__ZNKSt3__27num_getIwNS_19istreambuf_iteratorIwNS_11char_traitsIwEEEEE6do_getES4_S4_RNS_8ios_baseERjRt
IUe:_Char_IsNumber_m2596299025
etk:_TypeBuilderInstantiation__ctor_m3523725881
nRm:__ZNK15dense_hashtableINSt3__24pairIK10KeyWrapperINS1_IPK10MethodInfoP11Il2CppClassEEEjEES9_17ReflectionMapHashIS8_EN14dense_hash_mapIS9_jSD_NS9_14EqualsComparerINS0_8equal_toIS8_EEEENS0_9allocatorISB_EEE9SelectKeyESI_SK_E5beginEv
iaa:__ZN7ApiGLES19UploadBufferSubDataEjN2gl12BufferTargetEllPKv
fbd:__ZN5physx2Sc5Scene17createClothSolverEv
kY:__ZNSt3__216__rotate_forwardINS_11__wrap_iterIPN4core12basic_stringIcNS2_20StringStorageDefaultIcEEEEEEEET_S9_S9_S9_
$Fg:_String_System_IConvertible_ToInt32_m1927223638
aDj:_EventDescriptorCollection_System_Collections_IList_set_Item_m661286160
xFd:__ZThn116_N5physx7profile8ZoneImplINS_28PxProfileNameProviderForwardEE12removeClientERNS_19PxProfileZoneClientE
MIe:_RegexCompiler_TrackUnique_m3225227186
jVf:_GregorianCalendarHelper_GetMonth_m1176923804
_hl:_InternalEnumerator_1_get_Current_m3003696592_AdjustorThunk
Dgd:__ZN15MBP_PairManager17removeMarkedPairsEPK10MBP_ObjectPN5physx16PxsBroadPhaseMBPERK8BitArrayS8_
hwi:_Comparer_1_CreateComparer_m1409511867_gshared
kti:_ArraySegment_1_System_Collections_Generic_ICollectionU3CTU3E_Contains_m38764074_AdjustorThunk
hHg:_ASCIIEncoding__ctor_m4127831672
Fdm:_GameObject_GetComponent_m724360550
Wbb:__Z19TransferField_ArrayI14SafeBinaryRead27Converter_SimpleNativeClassI8GUIStyleEEvRK23StaticTransferFieldInfoR31RuntimeSerializationCommandInfoRT0_
xpb:__ZN9TextAsset23VirtualRedirectTransferER19StreamedBinaryWriteILb0EE
yfi:_MonoIO_GetCurrentDirectory_m1509324201
Qnn:__ZN6il2cpp5utils10MemoryPoolC2Ej
CYd:_XmlDocument_CreateDefaultAttribute_m2458286064
rCa:__ZN14RenderSettings5ResetEv
ZOb:__ZN6Sprite9BindAtlasERK4PPtrI11SpriteAtlasE
O0b:__ZN5Unity9rapidjson12GenericValueINS0_4UTF8IcEE13JSONAllocatorE10FindMemberIS4_EENS0_21GenericMemberIteratorILb0ES3_S4_EERKNS1_IS3_T_EE
yKc:__ZN5physx9NpPhysics33unregisterDeletionListenerObjectsERNS_18PxDeletionListenerEPKPKNS_6PxBaseEj
NPf:_CompareInfo_OnSerializing_m3084970577
_Qc:__ZNK5physx2Sc9ClothCore22getAngularInertiaScaleEv
Ctp:__ZNKSt3__28time_getIcNS_19istreambuf_iteratorIcNS_11char_traitsIcEEEEE13__get_weekdayERiRS4_S4_RjRKNS_5ctypeIcEE
Kak:_Enumerator_MoveNext_m1386285227_AdjustorThunk
nkg:_Uri_EscapeString_m2540923847
QXg:_U3CU3Ec__cctor_m614682562
n1b:__ZN5Unity9rapidjson13GenericReaderINS0_4UTF8IcEES3_13JSONAllocatorE11ParseNumberILj1ENS0_25GenericInsituStringStreamIS3_EENS0_15GenericDocumentIS3_S4_S4_EEEEvRT0_RT1_
iki:_U3CU3Ec_U3CBeginEndWriteAsyncU3Eb__53_1_m1082158668
hCc:__ZN5physx20NpRigidActorTemplateINS_18PxArticulationLinkEE12setActorFlagENS_11PxActorFlag4EnumEb
Jxf:_Array_qsort_TisByte_t3683104436_m3355607841_gshared
Lbn:__ZN6il2cpp2os10ThreadImplD2Ev
mjg:_RSAManaged_Dispose_m3018788098
e2b:__ZN8Gradient8TransferI9JSONWriteEEvRT_
X3g:_HWStack_Clone_m575239372
Ksf:_SByte_TryParse_m2461143221
HQf:_CultureData_MonthNames_m4061189154
bla:__ZNK12TLSAllocatorI14StackAllocatorE22GetAllocatedMemorySizeEv
DHo:__ZL54AssemblyName_t894705941_CustomAttributesCacheGeneratorP21CustomAttributesCache
Ypf:_RuntimeType_get_Name_m2394991086
S3e:_Convert_ToUInt32_m3394039268
hYb:__Z32GetSceneHierarchyPathDescriptivePK6Object
f7a:__ZN12HandlerChain4NameEv
cn:FUNCTION_TABLE_fiiiiiifiiiiiif
YUa:__ZNSt3__26vectorI9InputAxisNS_9allocatorIS1_EEE10deallocateEv
kYo:__ZL106XmlSchemaFacet_t614309579_CustomAttributesCacheGenerator_XmlSchemaFacet_t614309579____IsFixed_PropertyInfoP21CustomAttributesCache
Spd:__ZN5physx37setupFinalizeSolverConstraintsCoulombERNS_13PxcNpWorkUnitERKNS_2Gu13ContactBufferERKNS_27PxcCorrelationBufferCoulombERKNS_11PxTransformESB_bPhRKNS_13PxcSolverBodyESF_RKNS_17PxcSolverBodyDataESI_ffjffff
Vhh:_WebConnectionStream_ReadCallbackWrapper_m2960324003
X8h:_Int16_Equals_m3925135434_AdjustorThunk
A7j:_Enumerator_MoveNext_m4102275309_AdjustorThunk
Vno:__ZL60IHashCodeProvider_t1980576455_CustomAttributesCacheGeneratorP21CustomAttributesCache
CQb:__ZN13ProduceHelperI13MonoBehaviourLb0EE7ProduceE18MemLabelIdentifier18ObjectCreationMode
jlm:_Iterator_1_Dispose_m971384747_gshared
Z9a:__Z44InitializeTransferFunctionScriptingTraitsForI17RemapPPtrTransferEvR31TransferFunctionScriptingTraits
vkf:_SerializationInfoEnumerator_MoveNext_m1876990879
lLb:__ZN14UnityWebStream24UpdateAllUnityWebStreamsEv
RQb:__ZNSt3__26vectorI16MessageForwarder13stl_allocatorIS1_L18MemLabelIdentifier7ELi8EEE6resizeEj
Nye:_XmlSchemaDatatype_get_TypeCodeString_m3691763136
ayh:_Array_InternalArray__IndexOf_TisNamespace_t1808381789_m2735575870_gshared
Alo:__ZL60ObsoleteAttribute_t3878847927_CustomAttributesCacheGeneratorP21CustomAttributesCache
kvk:_MemberInfoSerializationHolder_GetSerializationInfo_m3675995431
ZPn:__Z157RuntimeInvoker_Void_t1841601450_RuntimeObject_RuntimeObject_RuntimeObject_RuntimeObject_Int32_t2071877448_Int32_t2071877448_SByte_t454417549_SByte_t454417549PFvvEPK10MethodInfoPvPS4_
$El:_Task_1_GetResultCore_m88725665_gshared
Efd:__ZN5physx31ComputeCreatedDeletedPairsListsEPKjS1_jRPNS_17PxcBroadPhasePairERjS5_S4_S5_S5_RNS_14SapPairManagerE
$Ya:__ZN18LoadSceneOperation21MustCompleteNextFrameEv
sRj:_SettingsSectionInternal__ctor_m3804206165
bz:__ZNK12AudioManager16GetAudioListenerEv
jik:_List_1_IsCompatibleObject_m2910484828_gshared
zSj:_CookieCollection_Add_m1645185609
z7o:__ZL48Camera_t189460977_CustomAttributesCacheGeneratorP21CustomAttributesCache
XIb:__ZNSt3__26vectorI11CameraStackNS_9allocatorIS1_EEE8__appendEj
Gkd:__ZN5physx2Gu16pcmContactBoxBoxERKNS0_13GeometryUnionES3_RKNS_11PxTransformES6_RKfRNS0_5CacheERNS0_13ContactBufferE
j5h:_UInt32_System_IConvertible_ToType_m747769316
SLd:__ZN11UnityEngine9Analytics15UserCustomEvent12CustomParams6InsertEPKcRNS1_11CustomValueE
cHp:_glDeleteVertexArrays__wrapper
MR:__Z13GetFileSystemv
QUb:__ZZL23RegisterLightPropertiesR22GenericPropertyBindingEN29Wrapper_LightColorTemperature13SetFloatValueEPvf
dT:__ZNK5Unity4Type21FindAllDerivedClassesER13dynamic_arrayIPKS0_Lj4EENS0_17TypeFilterOptionsE
KT:__ZN13RuntimeStaticI15GUIEventManagerLb0EE16StaticInitializeEPv
nLn:__Z110RuntimeInvoker_Int32_t2071877448_RuntimeObject_Int32_t2071877448_RuntimeObject_Int32_t2071877448_RuntimeObjectPFvvEPK10MethodInfoPvPS4_
AEd:__ZN15RaycastCallback14processTouchesEPKN5physx12PxRaycastHitEj
klp:_Map_IsCovered_m2481668935
pXh:_WaitHandle_WaitOne_m370363697
$Vh:_ThreadPoolWorkQueue__ctor_m3161236945
EMf:_Environment_ExpandEnvironmentVariables_m2662085035
_wd:__ZN5physx2Gu5RTree15exportExtraDataERNS_22PxSerializationContextE
Ivp:__ZNSt3__211__money_putIcE13__gather_infoEbbRKNS_6localeERNS_10money_base7patternERcS8_RNS_12basic_stringIcNS_11char_traitsIcEENS_9allocatorIcEEEESF_SF_Ri
xAl:_Predicate_1_BeginInvoke_m3457072769_gshared
$xb:__ZN19ShaderPropertySheet9SetMatrixEN9ShaderLab16FastPropertyNameERK10Matrix4x4fNS_8SetFlagsE
Z_d:_XmlElement_get_LastNode_m3581700738
hJf:_Guid_TryParseGuidWithDashes_m3738269342
MVk:_Enumerator_MoveNext_m4036287209_AdjustorThunk
Mfi:_FileSystemInfo_Refresh_m4027829891
BJa:__Z29GetTextureSizeAllowedMultiple13TextureFormat
Ovp:__ZNSt3__211__money_putIwE13__gather_infoEbbRKNS_6localeERNS_10money_base7patternERwS8_RNS_12basic_stringIcNS_11char_traitsIcEENS_9allocatorIcEEEERNS9_IwNSA_IwEENSC_IwEEEESJ_Ri
Aee:_XmlTextWriter_get_WriteState_m3919550580
oad:__ZNK5physx2Sq10AABBPruner7overlapERKNS0_9ShapeDataERNS0_14PrunerCallbackE
Dak:_Enumerator_System_Collections_IEnumerator_Reset_m865521125_gshared
gtm:__ZL25UnresolvedVirtualCall_250P12Il2CppObjectS0_fiiPK10MethodInfo
S5e:_DateTimeParse_GetDayOfNNY_m1809796654
Csg:_SecurityAttribute__ctor_m3425755778
HYn:__Z68RuntimeInvoker_RuntimeObject_Vector3_t2243707580_Vector3_t2243707580PFvvEPK10MethodInfoPvPS4_
FLm:_il2cpp_array_element_size
A$c:__ZN5physx6shdfnd5ArrayIPvNS0_19ReflectionAllocatorINS_2Gu30LargePersistentContactManifoldEEEE4copyINS0_15InlineAllocatorILj256ES6_EEEEvRKNS1_IS2_T_EE
LUj:_FileWebRequest_Abort_m2554867697
mg:_glCheckFramebufferStatus
oWm:__ZN15dense_hashtableINSt3__24pairIK10KeyWrapperIPK14Il2CppAssemblyEPK22Il2CppMonoAssemblyNameEES6_N6il2cpp5utils11PointerHashIS4_EEN14dense_hash_mapIS6_SA_SF_NS6_14EqualsComparerINS0_8equal_toIS5_EEEENS0_9allocatorISB_EEE9SelectKeyESK_SM_E6insertERKSB_
VNn:__Z202RuntimeInvoker_Int32_t2071877448_IntPtr_t_RuntimeObject_RuntimeObject_IntPtr_t_Int32U26_t455636984_RuntimeObject_RuntimeObject_Int32U26_t455636984_RuntimeObject_RuntimeObject_RuntimeObject_RuntimeObjectPFvvEPK10MethodInfoPvPS4_
Avf:_DESTransform_ECB_m2629024873
Iri:_InternalEnumerator_1_System_Collections_IEnumerator_get_Current_m790514740_AdjustorThunk
qsd:__ZN5physx2Cm12DelegateTaskINS_2Sc5SceneEXadL_ZNS3_19updateCCDSinglePassEPNS_10PxBaseTaskEEEE11runInternalEv
bBg:_ZoneMembershipCondition_FromXml_m3967372977
Fnc:__ZN5physx6string9sprintf_sEPcjPKcz
Uzd:__ZThn8_N5physx19TriangleMeshBuilderD1Ev
glj:___BinaryParser_ReadObjectNull_m378048479
y6d:_XmlRegisteredNonCachedStream_Dispose_m3749944235
a2i:__Z37il2cpp_codegen_get_executing_assemblyPK10MethodInfo
Kgc:__ZN5physx2Gu16intersectRayAABBERKNS_6PxVec3ES3_S3_S3_RfS4_
LLh:_XsdBuilder_BuildSimpleContentRestriction_Base_m1405297062
PVf:_JapaneseCalendar_get_MaxSupportedDateTime_m2282975214
gCf:_AsyncTaskMethodBuilder_Start_TisRuntimeObject_m1859568167_gshared
zwh:_Array_InternalArray__IndexOf_TisByte_t3683104436_m3605266236_gshared
gmp:_UpdateManager_FixedUpdate_m2289872122
eRf:_CultureInfo_get_Calendar_m2452453688
BUb:__ZZL23RegisterLightPropertiesR22GenericPropertyBindingEN22Wrapper_LightIntensity13GetFloatValueEPv
I1j:_NameValueCollection_Add_m2977622107
rTk:_ObjectEqualityComparer_1_IndexOf_m3980768573_gshared
vKg:_UnicodeEncoding__ctor_m72484327
_pd:__ZN5physx30setupFinalizeSolverConstraintsERNS_13PxcNpWorkUnitERKNS_2Gu13ContactBufferERKNS_20PxcCorrelationBufferERKNS_11PxTransformESB_bPhRKNS_13PxcSolverBodyESF_RKNS_17PxcSolverBodyDataESI_ffffff
Lce:_XmlTextReaderImpl_ChangeCurrentNodeType_m1994081158
hUf:_DateTimeFormatInfo_InsertAtCurrentHashNode_m878668752
tCh:_Array_InternalArray__ICollection_CopyTo_TisBinaryTypeEnum_t2877339122_m2031906560_gshared
nHc:__ZN5physx7NpScene17releaseBatchQueryEPNS_12PxBatchQueryE
z3d:_XmlNodeReaderNavigator_MoveToAttribute_m2469043676
RTm:__ZN13Il2CppHashMapIPK14Il2CppAssemblyPK22Il2CppMonoAssemblyNameN6il2cpp5utils11PointerHashIS1_EENSt3__28equal_toIS2_EENSA_9allocatorINSA_4pairIK10KeyWrapperIS2_ES5_EEEEEC2EjRKS9_RKSC_
rpd:__ZN5physx26solveVBlockDefaultFrictionEPNS_13PxsSolverCoreEfjjPNS_13PxcSolverBodyEPNS_17PxcSolverBodyDataEjjPNS_25PxcArticulationSolverDescEjPNS_23PxcSolverConstraintDescEjS9_jRNS_6shdfnd5ArrayINS_24PxsConstraintBatchHeaderENSA_19ReflectionAllocatorISC_EEEESG_PNS_2Cm13SpatialVectorEPNS_25PxcThresholdStreamElementEjRj
tse:_XmlBaseConverter_ToDecimal_m1630711407
xvj:_ClientSessionInfo_SetContext_m2649357891
Fai:_Int32_System_IConvertible_ToInt64_m3790029067_AdjustorThunk
KEg:_String_Equals_m2950069882
oAj:_SslStreamBase_InternalReadCallback_m2524917586
RQ:__ZN8Remapper6RemoveEi
zed:__ZN5physx11writeBack1DERKNS_23PxcSolverConstraintDescERNS_16PxcSolverContextERNS_17PxcSolverBodyDataES6_
_1h:_Type_get_ContainsGenericParameters_m505913180
bMk:__Z30il2cpp_codegen_resolve_pinvokeIPFiPiELj5ELj11EET_RAT0__KcRAT1__S4_20Il2CppCallConvention13Il2CppCharSetib
kcc:__ZThn4_N16RayRTreeCallbackILi0ELb0EED0Ev
mJb:__ZN15ReflectionProbe17UseRendererResultEP13ProbeRenderer
urg:_Array_BinarySearch_m3270245097
rii:_FileSystemEnumerableHelpers_IsDir_m4103423272
ifi:_MonoIO_DeleteFile_m3273821223
Lfl:_BigInteger_GenerateRandom_m2507308768
xaf:_DateTime_System_IConvertible_ToDouble_m1431748426_AdjustorThunk
Xlp:_U3CShakeRoutineU3Ec__Iterator0_Reset_m3336030454
Vph:_Array_InternalArray__ICollection_Contains_TisUInt16_t986882611_m510319131_gshared
rdf:_Decimal_ToString_m541380585
xVd:_XmlConvert_TryToInt16_m1485422103
Owo:__ZL97CryptoStream_t3531341937_CustomAttributesCacheGenerator_CryptoStream_ReadAsyncInternal_m202436906P21CustomAttributesCache
DOm:__ZN6il2cpp2vm4Type7GetTypeEPK10Il2CppType
Tpe:_XdrBuilder_XDR_BuildGroup_MaxOccurs_m1966539385
bim:_PlayableAsset_get_duration_m1584861105
u9c:__ZN5physx2Gu17GetGeomSweepFuncsEv
kvc:__ZN5physx6shdfnd8PoolBaseINS_15PxsArticulationENS0_16AlignedAllocatorILj64ENS0_9AllocatorEEEE17releaseEmptySlabsEv
CLf:_Enum_ToObject_m2601523252
C_i:_Number_ParseInt64_m2718783082
gff:_Delegate_CreateDelegate_m1706525923
ALd:__ZN14UnityAnalytics25UnregisterGlobalCallbacksEv
OHb:__Z40ProcessCameraIndexListIsNodeVisibleInOutRK22SceneCullingParametersPK9SceneNodePK4AABBR9IndexList
MPg:_UTF7Encoding_GetBytes_m3015176946
vIj:_ConfigurationException_GetXmlNodeLineNumber_m3219878065
Wya:__ZN16GraphicsSettings8TransferI17RemapPPtrTransferEEvRT_
FHn:__Z137RuntimeInvoker_Void_t1841601450_RuntimeObject_RuntimeObject_RuntimeObject_RuntimeObject_Int32_t2071877448_Int32_t2071877448_RuntimeObjectPFvvEPK10MethodInfoPvPS4_
rxi:_Enumerator__ctor_m3279905125_AdjustorThunk
wdm:_Color_op_Implicit_m3487763211
fMc:__ZN5physx2Gu5Debug9visualizeERKNS_13PxBoxGeometryERNS_2Cm12RenderOutputERKNS5_8Matrix34ERKNS_9PxBounds3Eyfj
NNg:_StringBuilder_ToString_m617673931
MIh:_XmlSchemaValidator_CompleteValidationError_m960141452
fBj:_DefaultEventAttribute__cctor_m1343114747
Hac:__ZN5physx6shdfnd5ArrayIPKvNS0_19ReflectionAllocatorIS3_EEE6resizeEjRKS3_
PYf:_TimeSpanResult_SetFailure_m2772690017
ePd:__ZN11UnityEngine7Connect13ConfigHandler12GetListenersERKN4core12basic_stringIcNS2_20StringStorageDefaultIcEEEE
M6f:_FacetsCompiler_SetFlag_m1803832297
j$:__ZN9GfxDevice18AllocRenderSurfaceEb
eqd:__ZN5physx31setupFinalizeSolverConstraints4EPNS_21PxcSolverContact4DescERNS_18PxcNpThreadContextEPhffRKNS_6shdfnd3aos5Vec4VES9_S9_S9_
O1c:__ZN5physx7NpScene5flushEb
UEl:_Task_1__ctor_m2408210937_gshared
PN:__ZL27CleanupCoreScriptingClassesv
LCj:_EventDescriptorCollection_InternalSort_m2457044943
XWl:_ConfigurationElementCollection__ctor_m3776365441
YMj:_DeflateStream_EndWrite_m644759061
Dye:_XmlSchemaComplexType_HasParticleRef_m176050153
jrk:_SymbolType_get_BaseType_m590841123
Zoh:_Array_InternalArray__ICollection_Contains_Tisbucket_t976591655_m4004966130_gshared
F$b:__Z26AnimationCurve_CUSTOM_InitP12Il2CppObjectP11Il2CppArray
yvk:_MethodBase_GetMethodFromHandleInternalType_native_m3076791910
CTm:__ZN6il2cpp2vm10Reflection7IsEventEP12Il2CppObject
YO:__ZN17PersistentManager26GetStreamNameSpaceInternalEi
Bzh:_Array_InternalArray__ICollection_Add_TisEntry_t3655379380_m2356522912_gshared
SAh:_Array_InternalArray__ICollection_Add_TisNamespaceDeclaration_t3577631811_m1740959084_gshared
jt:__ZN4FMOD6System11createSoundEPKcjP22FMOD_CREATESOUNDEXINFOPPNS_5SoundE
CFp:_glRenderbufferStorage__wrapper
xGh:_XmlSchemaParticle_get_MaxOccurs_m679464475
k8i:_GenericTypeParameterBuilder_GetGenericParameterConstraints_m1820484100
UOm:__ZN6il2cpp2vm4Type14IsSystemDBNullEPK10Il2CppType
RFd:__ZThn128_N5physx7profile8ZoneImplINS_28PxProfileNameProviderForwardEED1Ev
WM:__ZN9ShaderLab19CommonPropertyNames13StaticCleanupEPv
wDk:_ResourceManager_CompareNames_m3823500945
hQ:__Z31scripting_method_get_returntype18ScriptingMethodPtr
zJj:_DiagnosticsConfigurationHandler_AddSourcesNode_m3218521178
Ulk:_List_1_IsCompatibleObject_m3376558503_gshared
Kad:__ZN5physx2Sq17AABBTreeUpdateMap10invalidateEjjRNS0_8AABBTreeE
M1d:_XmlNamespaceManager_get_DefaultNamespace_m3196089042
QKa:__ZN15SerializeTraitsI12LightmapDataE8TransferI24GenerateTypeTreeTransferEEvRS0_RT_
tpd:__ZN5physx28solveParallelDefaultFrictionERNS_18PxsDynamicsContextEjjPNS_13PxcSolverBodyEPNS_17PxcSolverBodyDataEjjPNS_25PxcArticulationSolverDescEjPNS_23PxcSolverConstraintDescEjS9_jPiSA_SA_SA_SA_SA_PNS_25PxcThresholdStreamElementEjSA_PNS_2Cm13SpatialVectorEPKPNS_11PxsBodyCoreERNSD_10BitMapBaseINS_6shdfnd9AllocatorEEEPKPNS_15PxsArticulationEjPViRNSL_5ArrayINS_24PxsConstraintBatchHeaderENSL_19ReflectionAllocatorISW_EEEES10_RNSV_IjNSX_IjEEEES13_PPNS_12PxsRigidBodyEj
GFp:_glStencilOpSeparate__wrapper
asp:__ZNKSt3__27num_getIwNS_19istreambuf_iteratorIwNS_11char_traitsIwEEEEE6do_getES4_S4_RNS_8ios_baseERjRl
lNa:__ZN7Texture13SetAnisoLimitENS_20AnisotropicFilteringE
ZZa:__ZN28LightProbeProxyVolumeManager25UpdateSHCoeffsTextureDataER21LightProbeProxyVolume
Gpa:__Z18CreateDecompressor15CompressionType18MemLabelIdentifier
TA:__ZN11AudioModule16SetListenerPauseEb
DKp:_glDeleteShader__wrapper
t4l:_ChannelData_CopyFrom_m4049054607
li:_emscripten_glCompressedTexSubImage2D
Lba:__ZN13GfxDeviceGLES22MemoryBarrierImmediateEyN2gl17MemoryBarrierTypeE
XX:__ZZN18SpriteAtlasManagerC1EvEN46EarlyUpdateSpriteAtlasManagerUpdateRegistrator7ForwardEv
gm:_abort
s2m:__ZN6il2cpp6icalls8mscorlib6System4Type18internal_from_nameEP12Il2CppStringbb
r9:__ZN6prcoreL26RemapGenericFloatToIntegerI18TexFormatARGBFloat17TexFormatARGB8888EEvPKNS_9InnerInfoE
G_f:_Guid__ctor_m543169477
pRf:_CultureInfo_GetCultures_m4202819875
cZb:__Z46GetShaderModelNumericValueFromRequirementsMask18ShaderRequirements
$Cj:_EventDescriptorCollection_System_Collections_IList_get_Item_m1399118971
rKg:_Encoding_get_Latin1_m2686090789
Zzd:__ZN5physx15writeWordBufferEPKtjbRNS_14PxOutputStreamE
GZg:_Task_WrappedTryRunInline_m2007205686
njn:_GC_write
tDe:_X509SubjectKeyIdentifierExtension__ctor_m1109455121
UIk:_HttpWebRequest_U3CSetWriteStreamInnerU3Eb__262_0_m1476374072
TOg:_UnicodeEncoding_GetHashCode_m2443440683
j$d:_XmlLoader_LoadInnerXmlElement_m3440843391
P7b:__Z29Transfer_Blittable_ArrayFieldI8JSONRead10ColorRGBAfEvRT_R9ArrayInfoRK23StaticTransferFieldInfo
Ibn:__GLOBAL__sub_I_ThreadImpl_cpp
Ujb:__Z18Transfer_BlittableI18StreamedBinaryReadILb1EELb1EiEvRK29SerializationCommandArgumentsR31RuntimeSerializationCommandInfo
ETi:_TripleDES_IsWeakKey_m483013953
xmh:_X509Certificate2_get_PrivateKey_m2662162956
qSm:__ZN15dense_hashtableINSt3__24pairIK10KeyWrapperINS1_IPK12PropertyInfoP11Il2CppClassEEEjEES9_17ReflectionMapHashIS8_EN14dense_hash_mapIS9_jSD_NS9_14EqualsComparerINS0_8equal_toIS8_EEEENS0_9allocatorISB_EEE9SelectKeyESI_SK_E12maybe_shrinkEv
uXi:_HostProtectionPermission_IsSubsetOf_m974305841
Zsc:__ZN5physx2Sc7BodySim37checkSleepReadinessBesidesWakeCounterEv
cKk:_IPv6AddressFormatter_IsIPv4Mapped_m2657168139_AdjustorThunk
tkb:__Z18Transfer_BlittableI18StreamedBinaryReadILb1EELb1EsEvRK29SerializationCommandArgumentsR31RuntimeSerializationCommandInfo
pJf:_FormatException__ctor_m333678921
Woe:_XdrBuilder_XDR_BuildElementType_Content_m3499167606
MDg:_Single_System_IConvertible_ToSByte_m3757385387
IFe:_RegexFCD__ctor_m531629035
uNd:__ZN22BaseUnityConnectClient17OnEnterStateReadyEv
_cg:_RuntimeGenericParamInfoHandle_GetConstraintsCount_m3415878896_AdjustorThunk
ufg:_SignerInfo__ctor_m627109334
IBd:__ZN15dense_hashtableINSt3__24pairIKiiEEi21InstanceIDHashFunctorN14dense_hash_mapIiiS4_NS0_8equal_toIiEE13stl_allocatorIS3_L18MemLabelIdentifier36ELi16EEE9SelectKeyES7_SA_E9copy_fromERKSD_j
Y_c:__ZN5physx2Sc10NPhaseCore24createTriggerInteractionERNS0_8ShapeSimES3_NS_7PxFlagsINS_10PxPairFlag4EnumEtEE
Vzh:_Array_InternalArray__ICollection_Add_TisInternalCodePageDataItem_t1742109366_m647995211_gshared
c6h:_UInt64_System_IConvertible_ToDateTime_m2412118561
xbc:__ZN5physx2Gu9ContainerD2Ev
Crj:_EncryptedPrivateKeyInfo_get_EncryptedData_m598672214
ndc:__ZN5physx2Gu12selectNormalEhff
Ivh:_Array_BinarySearch_TisRuntimeObject_m3935103588_gshared
dpe:_XdrBuilder_XDR_BuildElementType_DtValues_m1435235539
ecn:__ZN6il2cpp2osL23CleanupThreadIfCanceledEPv
lUc:__ZN5physx3Scb14ParticleSystem16releaseParticlesEjRKNS_16PxStrideIteratorIKjEE
Hhn:__ZN6il2cpp6icalls8mscorlib6System9Threading10WaitHandle16WaitAny_internalEP11Il2CppArrayib
Khp:_Transform_set_position_m2942701431
eTa:__ZN19ShaderPropertySheet11ComputeHashEv
jIg:_DecoderFallbackBuffer_InternalFallback_m3347822110
fDm:__ZN30dense_hashtable_const_iteratorI10KeyWrapperIPK19Il2CppGenericMethodES4_N6il2cpp8metadata23Il2CppGenericMethodHashEN14dense_hash_setIS4_S7_NS4_14EqualsComparerINS6_26Il2CppGenericMethodCompareEEENSt3__29allocatorIS4_EEE8IdentityESB_SE_EppEv
X4c:__ZN5physx2Sc5Scene21processLostTouchPairsEv
Dal:_KeyHandler_GetVolatileDir_m62390358
dG:__ZN11UnityEngine15CloudWebService20WebRequestRestClient6IsDoneEv
wEj:_PropertyDescriptorCollection_IndexOf_m2940684757
Fvg:_UIPermission_Cast_m3255181351
hj:_llvm_fabs_f32
NAk:_PropertyInfo_internal_from_handle_type_m113577331
IF:__ZN11UnityEngine15CloudWebService16SessionContainer16GetJsonDataBlockEjRKN4core12basic_stringIcNS2_20StringStorageDefaultIcEEEERS6_PjSA_
R1e:_ConsoleKeyInfo_get_KeyChar_m1771277047
SZd:_XmlDocument_get_SchemaInfo_m1424570660
$Vi:_EnvironmentPermission_GetPathList_m127917712
KWf:_RegionInfo__ctor_m2826901964
UMl:_Dictionary_2_Remove_m2167981184_gshared
Wye:_XmlSchemaDocumentation__cctor_m972217307
mjd:__ZN5physx22PxcContactConvexConvexERKNS_2Gu13GeometryUnionES3_RKNS_11PxTransformES6_RKfRNS_10PxcNpCacheERNS0_13ContactBufferE
Fcc:__ZNK5physx2Gu11ConvexHullV12HillClimbingERKNS_6shdfnd3aos5Vec3VE
HKi:_Dictionary_2_System_Collections_IDictionary_set_Item_m2290664072_gshared
Vel:_SimpleCollator__cctor_m2693747668
edf:_Decimal_CompareTo_m2454501434_AdjustorThunk
mP:__ZN14SafeBinaryReadD2Ev
lwf:_Array_InternalArray__set_Item_TisDS_t769197341_m2953540286_gshared
Q3h:_UInt16_System_IConvertible_ToChar_m4055364664
$Tc:__ZN5physx2Sc18ParticleSystemCore10setDampingEf
_Pb:__Z13RegisterClassI7TextureEvv
Jlb:__ZN8Gradient8TransferI18StreamedBinaryReadILb1EEEEvRT_
ycl:_Win32Native__cctor_m1810929718
Lbl:_RegistryKeyComparer_Equals_m2921677117
Yxh:_Array_InternalArray__IndexOf_TisState_t2667800191_m4055676112_gshared
ujj:_RemotingConfiguration_get_ProcessId_m3870172209
Jpc:__ZN5physx2Sc10NPhaseCore16deleteFilterPairEPNS0_10FilterPairE
A4h:_UInt32_ToString_m554020223_AdjustorThunk
_1k:_ReadOnlyCollection_1_System_Collections_IEnumerable_GetEnumerator_m4241694324_gshared
Pmk:_List_1_set_Item_m3717668114_gshared
Q$a:__ZN6ShaderD2Ev
Hj:_SDL_PauseAudio
Prg:_Array_Sort_m2323017822
Kah:_Socket_RemapIPEndPoint_m2854173979
jNm:__ZN6il2cpp2os4File11GetStdErrorEv
W$e:_SyncSortedList_get_Item_m3057067955
Jtc:__ZN5physx2Sc5Scene28addActiveBreakableConstraintEPNS0_13ConstraintSimE
VM:__ZN9ShaderLab19CommonPropertyNames16StaticInitializeEPv
HIc:__ZN5physx6shdfnd8PoolBaseINS_16NpParticleSystemENS0_19ReflectionAllocatorIS2_EEE15disposeElementsEv
epi:_MissingMemberException__ctor_m3710131950
lGd:__ZN5physx7profile11EventBufferINS_24PxDefaultContextProviderENS_6shdfnd6MutexTINS0_26WrapperReflectionAllocatorIhEEEENS0_14ScopedLockImplIS7_EENS_24PxProfileNullEventFilterEE10eventValueEtyx
KCn:__Z91RuntimeInvoker_Void_t1841601450_RuntimeObject_Int32_t2071877448_RuntimeObject_RuntimeObjectPFvvEPK10MethodInfoPvPS4_
Vy:__ZN11AudioSource23VirtualRedirectTransferER24GenerateTypeTreeTransfer
Ggc:__ZN5physx2Gu11getBoxEdgesEv
Bqi:_InternalEnumerator_1_System_Collections_IEnumerator_get_Current_m4267217660_gshared
rMd:__ZN14UnityAnalytics15SendCustomEventERN11UnityEngine9Analytics15UserCustomEventE
LPa:__ZN14Texture2DArray23VirtualRedirectTransferER14SafeBinaryRead
QCb:__ZNK6Camera21CalculateCanDoShadowsEv
w3c:__ZNK5physx2Sc5Scene17getBroadPhaseCapsERNS_16PxBroadPhaseCapsE
vFc:__ZN5physx9NpFactory14onActorReleaseEPNS_7PxActorE
SRl:_GenericEqualityComparer_1_Equals_m880188891_gshared
gen:__ZN6il2cpp2os6Thread12SetStackSizeEj
iBe:_X509ChainElementEnumerator_get_Current_m2232618221
Lvc:__ZN5physx2Sc5Actor15onElementAttachERNS0_7ElementE
uem:_DebugLogHandler_LogFormat_m2866699703
l_i:_Number_IsWhite_m3960490656
yXl:_ConfigurationElementCollection_GetEnumerator_m3962900713
xSh:_XmlCharType_IsPublicId_m2816730696_AdjustorThunk
B9g:_Datatype_byte__cctor_m2127252874
ZK:__Z13VFormatBufferPciPKcz
MTc:__ZN5physx2Sc18ParticleSystemCore23setSimulationFilterDataERKNS_12PxFilterDataE
Qmb:__Z18Transfer_BlittableI18StreamedBinaryReadILb0EELb1EhEvRK29SerializationCommandArgumentsR31RuntimeSerializationCommandInfo
_Ck:_ManifestBasedResourceGroveler_GetNeutralResourcesLanguageAttribute_m2247341643
adl:_Win32RegistryApi_GetBinaryValue_m3374485151
v9:__ZN6prcoreL27StretchGenericFloatBilinearI15TexFormatRFloatEEvPKNS_9InnerInfoE
Phe:_XmlSchema_get_SchemaTypes_m1481079476
E9c:__ZN5physx6shdfnd8internal8HashBaseINS0_4PairIKNS_2Sq13PrunerPayloadEjEES5_NS0_4HashIS5_EENS1_11HashMapBaseIS5_jS9_NS0_9AllocatorEE6GetKeyESB_Lb1EE15reserveInternalEj
rhn:__ZN6il2cpp6icalls8mscorlib6System13Globalization11CultureData16fill_number_dataEP22Il2CppNumberFormatInfoi
srp:__ZNKSt3__26locale9use_facetERNS0_2idE
DUh:_ThreadPool_TryPopCustomWorkItem_m68925166
y6:__Z14PadImageBorderR14ImageReferenceii
VQm:__ZN15dense_hashtableINSt3__24pairIK10KeyWrapperINS1_IPK10MethodInfoP11Il2CppClassEEEjEES9_17ReflectionMapHashIS8_EN14dense_hash_mapIS9_jSD_NS9_14EqualsComparerINS0_8equal_toIS8_EEEENS0_9allocatorISB_EEE9SelectKeyESI_SK_E4findERSA_
lGm:__ZN6il2cpp2vm13MetadataCache28GetFieldDefaultValueForFieldEPK9FieldInfo
$Uf:_GregorianCalendarHelper_CheckTicksRange_m1276004385
gKm:__ZN6il2cpp2vm8basepathEPKc
pdd:__ZN5physx2Gu22gjkRelativePenetrationINS0_9TriangleVENS0_8CapsuleVEEEjRKT_RKT0_RKNS_6shdfnd3aos15PsMatTransformVERKNSB_6FloatVERNSB_5Vec3VESJ_SJ_RSF_PhSL_Rh
qBd:__ZN9Rigidbody14SetIsKinematicEb
ov:__ZN12AudioManager39HandlePendingAudioConfigurationCallbackEv
Dk:_emscripten_glIsFramebuffer
Nta:__ZN12_GLOBAL__N_16qAtan2Eff
oKd:__Z13RegisterClassI9RigidbodyEvv
o2g:_DtdParser_ParseElementMixedContent_m3261099362
Hk:_JS_Sound_SetLoopPoints
dVe:_ArrayList__ctor_m1467563650
fA:__ZN12AudioManager17ShouldSourcePauseEb
von:__ZN6il2cpp2vm26MetadataAllocGenericMethodEv
$ea:__ZN19ConstantBuffersGLES12RecordRenderEv
g9c:__ZN5physx13ActorAABBTaskD2Ev
W3b:__ZN9JSONWrite8TransferI10RectOffsetEEvRT_PKc17TransferMetaFlags
aFf:_Array_InternalArray__get_Item_TisXmlTypeCode_t58293802_m447922847_gshared
d6:__ZN4crnd12symbol_codec11decode_bitsEj
qzp:__ZNSt3__212basic_stringIwNS_11char_traitsIwEENS_9allocatorIwEEE7reserveEj
wTi:_TailStream_set_Position_m1522261877
vip:_Vector2__ctor_m847450945_AdjustorThunk
GBa:__ZN10Matrix3x4f8TransferI24GenerateTypeTreeTransferEEvRT_
C9l:_PKCS12_EncryptedContentInfo_m938119256
sv:__ZN4FMOD6System12createReverbEPPNS_6ReverbE
a9n:__Z30il2cpp_codegen_class_from_typePK10Il2CppType
xOf:_CultureData_get_Invariant_m721978968
qtk:_TypeBuilderInstantiation_GetProperties_m3443197842
l$a:__Z16MarkDependenciesR27GarbageCollectorThreadStatej
lBe:_X509ChainElementEnumerator_Reset_m3832280427
FYf:_FormatLiterals_get_SecondFractionSep_m1786718334_AdjustorThunk
iqi:_MulticastDelegate_RemoveImpl_m2024746777
LSn:__Z119RuntimeInvoker_RuntimeObject_RuntimeObject_RuntimeObject_Int32_t2071877448_SByte_t454417549_RuntimeObject_RuntimeObjectPFvvEPK10MethodInfoPvPS4_
cqi:_MulticastDelegate_Equals_m3064081489
sIe:_RegexCompiler_Rightcharnext_m227229720
GWf:_RegionInfo_t3784626978_marshal_pinvoke
jog:_Activator_CreateInstance_m1465989661
TY:__ZNK9Transform11GetPositionEv
NXg:_AwaitTaskContinuation_System_Threading_IThreadPoolWorkItem_ExecuteWorkItem_m2075350778
Rza:__ZN23SharedMeshRenderingData18UnloadVertexStreamEi
zmc:__ZN5physx3Cct13HandleManager3AddEPv
w9l:_PKCS12_Encrypt_m2154408631
TUb:__ZN19RenderEventsContextC2Ei
RD:__Z6simd4fRKf
Rgh:_WebConnectionStream__ctor_m353285484
il:_emscripten_glEnable
D7m:__ZN6il2cpp2gc16GarbageCollector29RegisterFinalizerForNewObjectEP12Il2CppObject
osa:__ZN10TagManager23VirtualRedirectTransferER14SafeBinaryRead
xud:__ZNK5physx2Sc15ClothFabricCore9getNbSetsEv
jPf:_CharUnicodeInfo_IsWhiteSpace_m1515033943
DFb:__Z15InitLightMeshesv
iSj:_Cookie_set_Port_m312020554
Ayh:_Task_FromCancellation_TisRuntimeObject_m77169158_gshared
D2c:__ZNK5physx7NpScene26getNbContactDataBlocksUsedEv
f5j:_KeyValuePair_2_ToString_m1391611625_AdjustorThunk
Yn:FUNCTION_TABLE_iifiii
zDk:_ResourceReader_ReadResources_m675703670
jic:__ZN5physx2Gu29computeCapsule_HeightFieldMTDERKNS_21PxHeightFieldGeometryERKNS_11PxTransformERNS0_8CapsuleVEffbjRNS_10PxSweepHitE
GIi:_Dictionary_2_Insert_m1458719269_gshared
TBj:_DesignerAttribute__ctor_m301030763
$bg:_SchemaCollectionCompiler_PushComplexType_m4246590703
Qvd:__ZN5physx2Gu11HeightField15exportExtraDataERNS_22PxSerializationContextE
gNa:__ZN15QualitySettings8TransferI19StreamedBinaryWriteILb0EEEEvRT_
v2j:_OrderedDictionaryEnumerator_get_Current_m3306939169
Pwh:_Array_InternalArray__IndexOf_TisKeyValuePair_2_t3601103940_m2256273826_gshared
UCf:_ThrowHelper_IfNullAndNullsAreIllegalThenThrow_TisByte_t3683104436_m3765641875_gshared
v2l:_ManagedErrorInfo_GetDescription_m3399255087
QJ:__Z15CleanLogHandler7LogTypePKcz
C3a:__ZN9ShaderLab19SerializedSubShader8TransferI19StreamedBinaryWriteILb0EEEEvRT_
IKc:__ZN5physx10NpMaterialC2ERKNS_2Sc12MaterialCoreE
ayf:_Array_qsort_TisDouble_t4078015681_TisRuntimeObject_m1616726054_gshared
hmd:__ZN5physx9PxTaskMgr10resolveRowEjb
kel:_SimpleCollator_GetSortKey_m1317491197
The:_SchemaCollectionPreprocessor_PreprocessSimpleType_m853464718
$pb:__ZN6Camera17RemoveImageFilterERK11ImageFilter
Zaa:__ZNSt3__218__insertion_sort_3IR25ValueParameterArraySorterPN20GpuProgramParameters14ValueParameterEEEvT0_S6_T_
T6e:_CultureAwareComparer_GetHashCode_m3548681005
cSl:_GenericEqualityComparer_1_Equals_m1549453511_gshared
Wih:_WebHeaderCollection__ctor_m4088938710
bWn:__Z91RuntimeInvoker_Void_t1841601450_IntPtr_t_RuntimeObject_Int32U26_t455636984_SByte_t454417549PFvvEPK10MethodInfoPvPS4_
Tda:__ZNSt3__214__split_bufferI20ComputeShaderVariantRNS_9allocatorIS1_EEED2Ev
oYd:_XmlDocument_CreateProcessingInstruction_m3828260893
Y7h:_WindowsConsoleDriver_ReadKey_m2722483337
NGk:_FtpWebRequest_OperationCompleted_m3643941383
Svj:_Context_set_WriteSequenceNumber_m3356252710
aDi:_KeyCollection_System_Collections_ICollection_CopyTo_m201091229_gshared
Ttd:__ZNK5physx13NpClothFabric13getRestvaluesEPfj
PL:__Z27LogRepeatingStringWithFlagsRKN4core12basic_stringIcNS_20StringStorageDefaultIcEEEE15LogMessageFlagsi
Afc:__ZN5physx2Gu16_gjkLocalRayCastINS0_9TriangleVENS0_11ConvexHullVEEEbRT_RT0_RKNS_6shdfnd3aos6FloatVERKNS9_5Vec3VESF_RSA_RSD_SH_f
o7e:_DateTime_AddDays_m1926530883_AdjustorThunk
edm:_Camera_get_allCamerasCount_m1873043770
Yqh:_Array_InternalArray__ICollection_Remove_TisDateTimeOffset_t1362988906_m1787485891_gshared
BDh:_Array_InternalArray__Insert_TisKeyValuePair_2_t1174980068_m2464431954_gshared
Utc:__ZN5physx6shdfnd8PoolBaseINS_2Cm5BlockIPvLj32EEENS0_19ReflectionAllocatorIS5_EEE17releaseEmptySlabsEv
qAh:_Array_InternalArray__ICollection_Add_TisMonoResource_t3127387157_m2070096275_gshared
ufd:__ZN5physx23PxsBroadPhaseContextSap21batchUpdateFewUpdatesEjRPNS_17PxcBroadPhasePairERjS4_
Pni:_UnexceptionalStreamWriter_Write_m2677287588
Qic:__ZN5physx3Cct17getSceneTimestampEPKNS0_30InternalCBData_FindTouchedGeomE
Hyb:__ZNSt3__227__insertion_sort_incompleteIRPFbP10GUIElementS2_EPS2_EEbT0_S7_T_
y$b:__Z41Register_UnityEngine_Input_GetMouseButtonv
Qfh:_SecureStringHelper_CreateString_m3811100024
oQd:__ZN18UnityConnectClient33OnPlayerSessionStateChangedStaticEPS_jyy
vno:__ZL74CaseInsensitiveHashCodeProvider_t2307530285_CustomAttributesCacheGeneratorP21CustomAttributesCache
TTm:__ZN14dense_hash_mapI10KeyWrapperIPK14Il2CppAssemblyEPK22Il2CppMonoAssemblyNameN6il2cpp5utils11PointerHashIS2_EENS4_14EqualsComparerINSt3__28equal_toIS3_EEEENSD_9allocatorINSD_4pairIKS4_S7_EEEEE13set_empty_keyERSJ_
NG:__ZNK11UnityEngine15CloudWebService23WebRequestUploadHandler11GetProgressEv
Lil:_InternalEnumerator_1_get_Current_m1943362081_gshared
b3:__ZN7ApiGLES4LoadE16GfxDeviceLevelGL
cLa:__ZN18StreamedBinaryReadILb0EE21TransferSTLStyleArrayI13dynamic_arrayI31EnlightenSystemAtlasInformationLj8EEEEvRT_17TransferMetaFlags
RJc:__ZN5physx9NpPhysics15createAggregateEjb
Y5:__ZN4crnd12crn_unpacker22decode_color_endpointsEv
qSj:_Cookie_set_Version_m1740254262
RRg:_CancellationToken_get_CanBeCanceled_m3557079996
Eqe:_XdrValidator_ValidateEndStartElement_m83957041
oTb:__ZZL31RegisterOtherRendererPropertiesR22GenericPropertyBindingEN30Wrapper_RendererReceiveShadows13GetFloatValueEPv
YDd:__ZN9Rigidbody5ResetEv
G7g:_Compiler_IsElementFromGroupBase_m2836349589
zyh:_Task_FromCancellation_TisInt32_t2071877448_m3639406448_gshared
ltb:__ZN8Material11SetPassFastEPN9ShaderLab4PassER17ShaderPassContextP6Shaderib
Tej:_MessageDictionary_set_Item_m3815683065
HIk:_HttpWebResponse_ReadAll_m4206570716
mQd:__ZN11UnityEngine7Connect20BasePersistentValues10SaveValuesER9JSONWrite
Plf:_ObjectHolder_AddDependency_m3578103628
HTa:__ZN14SafeBinaryRead21TransferSTLStyleArrayINSt3__26vectorI17SubstanceEnumItemNS1_9allocatorIS3_EEEEEEvRT_17TransferMetaFlags
Snm:_AudioListener_AddExtension_m2954727157
Rtp:__ZNKSt3__220__time_get_c_storageIwE8__monthsEv
LIe:_RegexCompiler_DoPush_m3286961226
IWf:_RegionInfo_t3784626978_marshal_pinvoke_cleanup
Qmk:_List_1_IsCompatibleObject_m1536800800_gshared
OAm:_deflate_slow_12387
Tki:_StreamReader__ctor_m3078020052
_ld:__ZN5physx9PxTaskMgr12addReferenceEj
Roi:_MarshalByRefObject_InitializeLifetimeService_m1712948803
QT:__ZN22VirtualJoystickManagerC2Ev
MTj:_CredentialEnumerator_System_Collections_IEnumerator_MoveNext_m1309862340
C$i:_OperationCanceledException_set_CancellationToken_m1769609748
Mzb:__Z12SetupLODFadeR9GfxDeviceR17ShaderPassContextf
WVj:_CFObject_dlopen_m2582071894
X6m:__ZN6il2cpp2gc8GCHandle13GetHandleTypeEj
I9l:_X501_ToString_m3328169518
qFb:__ZL24CollectForwardObjectsJobP27CollectForwardObjectsHeader
PIb:__ZNK25CameraStackRenderingState24ResolveTempToEyeTexturesEv
nHb:__Z13IsNodeVisibleRK9SceneNodeRK4AABBRK22SceneCullingParameters
lIb:__Z24ScheduleCullingAllGroupsR8JobFenceRK22SceneCullingParametersiRK13CullingOutputRK13dynamic_arrayIP12CullingGroupLj4EERKS_
pLp:_emscripten_glStencilMask__wrapper
XCm:__ZN15dense_hashtableI10KeyWrapperIPK19Il2CppGenericMethodES4_N6il2cpp8metadata23Il2CppGenericMethodHashEN14dense_hash_setIS4_S7_NS4_14EqualsComparerINS6_26Il2CppGenericMethodCompareEEENSt3__29allocatorIS4_EEE8IdentityESB_SE_EC2ERKSH_j
vEm:__ZN15dense_hashtableINSt3__24pairIK10KeyWrapperIN6il2cpp5utils13dynamic_arrayIPK10Il2CppTypeLj4EEEEPFvvEEESA_NS3_8metadata19Il2CppSignatureHashEN14dense_hash_mapISA_SD_SG_NSA_14EqualsComparerINSF_22Il2CppSignatureCompareEEENS0_9allocatorISE_EEE9SelectKeyESK_SM_EC2EjRKSG_RKSK_RKSO_
Dng:___DTString_GetDigit_m3380816101
VHj:_UInt32Converter_FromString_m397854293
Wte:_XmlBaseConverter_TimeToString_m4000510460
bgl:_BigInteger_ToString_m3837784224
o2f:_Datatype_NOTATION__ctor_m2075193725
bxa:__ZN15RenderNodeQueue7CleanupEv
Snc:__ZN16NovodexAllocator8allocateEjPKcS1_i
REb:__Z17PrepareShadowMapsRK11CullResultsRK11ActiveLightRK10MinMaxAABB
PZj:_ChainValidationHelper__ctor_m2868010673
Qyf:_Array_qsort_TisSingle_t2076509932_m3465722180_gshared
MLj:_TraceListenerCollection_System_Collections_IList_Add_m251190826
lsl:_InternalEnumerator_1_System_Collections_IEnumerator_get_Current_m3239681450_AdjustorThunk
nFb:__ZN9ShaderLab10GrabPassesD2Ev
WPa:__ZN14Texture2DArray13UploadTextureEv
cZa:__ZN18AwakeFromLoadQueue25RegisterObjectInstanceIDsEv
Dfh:_TimerThread_StopTimerThread_m3674925406
PRe:_Buffer_BlockCopy_m1586717258
ujk:_List_1_GetEnumerator_m2816713030_gshared
kon:__ZN6il2cpp2os7CpuInfo5UsageEPv
o3c:__ZN5physx2Sc5Scene22removeBroadPhaseRegionEj
iC:__ZN13ProduceHelperI13AudioListenerLb0EE7ProduceE18MemLabelIdentifier18ObjectCreationMode
Rmc:__ZN5physx2Cm12RenderBuffer5clearEv
YPf:_CompareInfo_GetSortKey_m3691382873
aRc:__ZNK5physx2Sc9ClothCore21getStiffnessFrequencyEv
pcf:_DBNull_ToString_m3228904745
QRi:_SHA1Managed_HashCore_m2658295635
Fbd:__ZN5physx13PxsCCDContext14postCCDAdvanceEPNS_10PxBaseTaskE
Nrj:_RC4_get_IV_m506011366
Tam:_X509Crl__ctor_m2469408229
_Gm:__ZNSt3__214__split_bufferIN6il2cpp2os11PollRequestERNS_9allocatorIS3_EEED2Ev
SAk:_RtFieldInfo_UnsafeGetValue_m669795150
iee:_XmlTextWriter_PushStack_m2592760198
zDe:_X509SubjectKeyIdentifierExtension_CopyFrom_m136762226
GGf:_Array_InternalArray__IReadOnlyList_get_Item_TisInternalPrimitiveTypeE_t3020811655_m481137822_gshared
hdl:_Win32RegistryApi_GetSubKeyNames_m1301741334
mzg:_FirstMatchCodeGroup_Resolve_m3455999371
xfh:_TimerThread__cctor_m1728515450
lWi:_FileDialogPermission__ctor_m3083270861
vGh:_XmlSchemaParticle_get_MinOccurs_m3507692149
zpf:_RuntimeType_GetMethodsByName_m4205820445
Cfl:_BigInteger_op_Division_m1581119694
PLi:_DSACryptoServiceProvider__ctor_m701823690
Vhd:__ZNK5physx10BPWorkTask7getNameEv
YEe:_MatchCollection_get_Count_m3236470266
bGc:__ZN5physx2Sc8ShapeSim16onResetFilteringEv
f5k:_ReadOnlyCollection_1_IsCompatibleObject_m111664797_gshared
HUh:_ThreadPoolTaskScheduler_TryDequeue_m2628067270
GTg:_Reader_HasSameLocalValues_m711220815
L_b:__Z44Register_UnityEngine_Component_get_transformv
INj:_GZipStream_get_Length_m436994325
crp:__ZNKSt3__27collateIwE12do_transformEPKwS3_
sBi:_KeyCollection_System_Collections_ICollection_get_SyncRoot_m2897295125_gshared
xvb:__ZN17ArchiveFileSystem12MountArchiveEPKcS1_
hSi:_SHA256Managed_sigma_0_m6979104
$2b:__Z18Transfer_BlittableI9JSONWriteLb1E8Vector4fEvRK29SerializationCommandArgumentsR31RuntimeSerializationCommandInfo
KHe:_RegexCompiler_Compile_m4108849382
Un:FUNCTION_TABLE_viififiii
Bqp:__ZThn8_NSt3__214basic_iostreamIcNS_11char_traitsIcEEED0Ev
fta:__Z30GetScriptableCullingParametersR6CameraR27ScriptableCullingParameters
syi:_Enumerator_System_Collections_IEnumerator_Reset_m70453843_gshared
KLa:__ZThn32_NK8Renderer14GetSubsetIndexEi
Eil:_InternalEnumerator_1_System_Collections_IEnumerator_get_Current_m945013892_gshared
_Oe:_UriBuilder__ctor_m3402167180
$Rb:__ZN13ProduceHelperI15ResourceManagerLb0EE7ProduceE18MemLabelIdentifier18ObjectCreationMode
c0:__ZN9GfxDevice15ImmediateVertexEfff
IPb:__Z13RegisterClassI8MaterialEvv
Euo:__ZL51Evidence_t1407710183_CustomAttributesCacheGeneratorP21CustomAttributesCache
rKa:__ZNK16LightmapSettings22GetTypeVirtualInternalEv
_Xg:_ContinuationTaskFromTask_InnerInvoke_m1128399398
NBa:__ZN20SphericalHarmonicsL28TransferI18StreamedBinaryReadILb0EEEEvRT_
HNf:_FieldAccessException__ctor_m3893881490
zZ:__ZN13GfxDeviceGLES15SetStencilStateEPK18DeviceStencilStatei
jte:_XmlBaseConverter_StringToDateTime_m175756256
lXn:__Z107RuntimeInvoker_Void_t1841601450_Single_t2076509932_Single_t2076509932_Single_t2076509932_Single_t2076509932PFvvEPK10MethodInfoPvPS4_
I5o:__ZL106EventLog_t681067562_CustomAttributesCacheGenerator_EventLog_t681067562____EnableRaisingEvents_PropertyInfoP21CustomAttributesCache
C_g:_XPathNode_get_NodeType_m87005030_AdjustorThunk
Vd:_emscripten_glUniform1iv
BCm:__ZNK10KeyWrapperIPK17Il2CppGenericInstE14EqualsComparerIN6il2cpp8metadata24Il2CppGenericInstCompareEEclERKS3_SA_
eGg:_String_System_IConvertible_ToDouble_m3860911722
B8a:__ZN16MemoryFileSystemD2Ev
$Jl:_Dictionary_2_System_Collections_Generic_ICollectionU3CSystem_Collections_Generic_KeyValuePairU3CTKeyU2CTValueU3EU3E_Contains_m842343255_gshared
nqj:_ARC4Managed__ctor_m2922048522
Pil:_InternalEnumerator_1_System_Collections_IEnumerator_get_Current_m1931522460_AdjustorThunk
_ei:_Path_GetFullPathName_m4093843482
Wnh:_X509CertificateCollection__ctor_m3709509050
I0c:__ZN5physx7NpSceneD2Ev
Tig:_EncryptedPrivateKeyInfo_get_Salt_m2734354394
N2d:_XmlNodeList_get_ItemOf_m1528953966
c6m:__ZNK15dense_hashtableI10KeyWrapperIP18Il2CppGenericClassES3_N6il2cpp8metadata22Il2CppGenericClassHashEN14dense_hash_setIS3_S6_NS3_14EqualsComparerINS5_25Il2CppGenericClassCompareEEENSt3__29allocatorIS3_EEE8IdentityESA_SD_E10test_emptyERK30dense_hashtable_const_iteratorIS3_S3_S6_SF_SA_SD_E
ian:__ZN6il2cpp2os5posix15PosixWaitObject4WaitEjb
nFd:__ZN5physx7profile8ZoneImplINS_28PxProfileNameProviderForwardEE10startEventEty
Afm:_UnityEvent_GetDelegate_m1261032859
Zbd:__ZN5physx10PxsCCDPair17sweepAdvanceToToiEfb
GNb:__Z23ConvertIntegerToTypePtrItEbPvR14SafeBinaryRead
slp:_MouseOverMaterialSwap_Awake_m2644082797
ke:_emscripten_glStencilFunc
dFc:__ZN5physx6shdfnd8PoolBaseINS_2Cm5BlockIhLj384EEENS0_19ReflectionAllocatorIS4_EEE17releaseEmptySlabsEv
_rd:__ZN5physx16PxsIslandManager11freeBuffersEv
$og:_AppDomain_GetData_m1411657935
Hyk:_MonoMethod_MakeGenericMethod_impl_m2063853616
Oxc:__ZN5physx2Cm12DelegateTaskINS_2Sc17ParticleSystemSimEXadL_ZNS3_21prepareCollisionInputEPNS_10PxBaseTaskEEEE11runInternalEv
Nde:__Z46il2cpp_codegen_get_marshal_directive_exceptionPKc
N4a:__ZN9ShaderLab20SerializedSubProgram14AddMatrixParamEPKcii15ShaderParamTypei
FBa:__ZN24GenerateTypeTreeTransfer8TransferI13dynamic_arrayI8Vector3fLj4EEEEvRT_PKc17TransferMetaFlags
qe:_glGetActiveUniformBlockName
$eh:_U3CU3Ec_U3C_cctorU3Eb__307_10_m2124092215
xdf:_Decimal_Negate_m217743579
z9i:_MethodBuilder_Invoke_m1874904900
EUe:_Char_System_IConvertible_ToType_m3106771703_AdjustorThunk
GOf:_NumberFormatInfo__ctor_m2143637490
aGm:__ZN6il2cpp2vm13MetadataCache28GetGenericContainerFromIndexEi
Cof:_BinaryCompatibility__cctor_m3600079647
ALn:__Z69RuntimeInvoker_Boolean_t3825574718_SByte_t454417549_Int32_t2071877448PFvvEPK10MethodInfoPvPS4_
mw:__ZN4FMOD7Channel20set3DConeOrientationEP11FMOD_VECTOR
Ln:FUNCTION_TABLE_iiifii
Dtf:_CryptoConfig_CreateFromName_m391442950
C9m:__ZN6il2cpp2vm12GenericClass11SetupEventsEP11Il2CppClass
fw:__ZN4FMOD7Channel7setModeEj
Q_e:_SortedList__ctor_m3698381356
T3m:__ZN6il2cpp2vm15ReboxIReferenceEP14Il2CppIUnknownP11Il2CppClass
kWe:_IListWrapper_InsertRange_m1828788128
TPe:_AttributeUsageAttribute__cctor_m925249721
gkf:_FormatterServices_GetObjectData_m28653903
Pqg:_SimpleEnumerator__ctor_m2272112645
lAc:__ZN5physx26PxcFsComputeJointLoadsSimdERKNS_9PxcFsDataEPKNS_12PxcFsInertiaEPNS_6shdfnd3aos6Mat33VEPKfjjNS_21PxcFsScratchAllocatorE
LXe:_CollectionBase_System_Collections_IList_get_Item_m2370387510
J$k:_ReadOnlyCollection_1_System_Collections_ICollection_get_SyncRoot_m2651700973_gshared
Msp:__ZNSt3__29__num_putIcE23__widen_and_group_floatEPcS2_S2_S2_RS2_S3_RKNS_6localeE
TZc:__ZN5physx6shdfnd8SyncImpl7getSizeEv
ZHp:_glCopyTexImage2D__wrapper
Lfm:_UnityEventBase_DirtyPersistentCalls_m3176584979
hMh:_XsdBuilder_BuildNotation_System_m3704508863
qK:__GLOBAL__sub_I_runtime_graphics_billboard_0_cpp
Vfi:_DriveNotFoundException__ctor_m556726899
nnk:_List_1_RemoveAll_m1135879711_gshared
_Kp:_emscripten_glValidateProgram__wrapper
kEj:_PropertyDescriptorCollection__ctor_m2487959314
stb:__Z18ClearByDrawingQuad13GfxClearFlagsRK10ColorRGBAffjR17ShaderPassContext
Cbj:_DynamicPropertyCollection_FindProperty_m1233265924
U8:__ZN6prcoreL17RemapGenericFloatI14TexFormatRHalf15TexFormatRFloatEEvPKNS_9InnerInfoE
Bzb:__Z16ShouldUseShadowsb
BV:__ZN15DirectorManager21RebuildStageCallbacksEv
RNj:_GZipStream_BeginRead_m3633019595
Z7l:_TlsStream_SetLength_m1460039587
Ftb:__ZN19RuntimeSceneManager9LoadSceneERKN4core12basic_stringIcNS0_20StringStorageDefaultIcEEEES6_S6_RK9UnityGUIDiNS_11LoadingModeE
caa:__ZN7ApiGLES10DrawArraysE16GfxPrimitiveTypejjj
Mt:__ZN10SampleClip13LoadBaseSoundEv
igc:__ZN5physx2Gu22gjkRelativePenetrationINS0_17ShrunkConvexHullVES2_EEjRKT_RKT0_RKNS_6shdfnd3aos15PsMatTransformVERKNSA_6FloatVERNSA_5Vec3VESI_SI_RSE_PhSK_Rh
duf:_CryptoHandler_Get_m1494379603
w8d:_XmlTextReaderImpl_ThrowWithoutLineInfo_m3958072042
$Ce:_X509Helper2_Import_m3097420120
_C:__Z57AudioSource_CUSTOM_INTERNAL_CALL_ClearExtensionPropertiesP12Il2CppObjectRK12PropertyName
uQh:_UTF16Decoder_GetChars_m3195883427
S7m:__ZN15dense_hashtableINSt3__24pairIK10KeyWrapperIP12Il2CppObjectEN6il2cpp2gc9CachedCCWEEES5_NS7_5utils11PointerHashIS3_EEN14dense_hash_mapIS5_S9_SD_NS5_14EqualsComparerINS0_8equal_toIS4_EEEENS0_9allocatorISA_EEE9SelectKeyESI_SK_E15insert_noresizeERKSA_
Ysd:__ZN5physx2Sc19ParticlePacketShapeC2ERNS0_17ParticleSystemSimEjPNS_16PxvParticleShapeE
fqe:_GroupContent_Copy_m1037033493
Nah:_Socket_get_DualMode_m620903215
K3d:_XmlNodeReaderNavigator_MoveToAttribute_m1050244461
kHa:__ZN22DeviceMVPMatricesStateC2ER9GfxDevice
xJe:_Regex_IsMatch_m1286520424
TJc:__ZN5physx9NpPhysics18createTriangleMeshERNS_13PxInputStreamE
Zn:FUNCTION_TABLE_iiiiifiiiif
vn:FUNCTION_TABLE_iifii
oOa:__ZNSt3__26vectorI13dynamic_arrayI8Vector2fLj4EENS_9allocatorIS3_EEE6assignINS_11__wrap_iterIPS3_EEEENS_9enable_ifIXaasr21__is_forward_iteratorIT_EE5valuesr16is_constructibleIS3_NS_15iterator_traitsISC_E9referenceEEE5valueEvE4typeESC_SC_
qu:__GLOBAL__sub_I_runtime_video_0_cpp
K3g:_EmptyEnumerator_System_Collections_IEnumerator_get_Current_m1823962236
RVm:__ZN6il2cpp2vm10Reflection12HasAttributeEP9FieldInfoP11Il2CppClass
ema:__ZNSt3__26__treeIiNS_4lessIiEE13stl_allocatorIiL18MemLabelIdentifier1ELi16EEE7destroyEPNS_11__tree_nodeIiPvEE
tc:invoke_viiifi
b_i:_Number_FormatUInt64_m245621001
kxd:__ZN5physx6shdfnd5ArrayIPNS_7PxActorENS0_19ReflectionAllocatorIS3_EEE8recreateEj
fma:__ZNK11AssetBundle14GetPreloadDataEiR13dynamic_arrayIiLj4EE
Yjg:_EncryptedData_get_EncryptedContent_m2732115576
zKe:_RegexRunner_EnsureStorage_m4273110345
W1j:_NameValueCollection_GetValues_m4268450057
O9d:_XmlTextReaderImpl_get_IsDefault_m394253748
Bf:_JS_Sound_SetPosition
vDe:_X509SubjectKeyIdentifierExtension_FromHexChars_m2515150420
tDa:__ZN19RenderBufferManager13GetTempBufferEii17DepthBufferFormat19RenderTextureFormatj22RenderTextureReadWrite14VRTextureUsagei23RenderTextureMemoryless
Krj:_PrivateKeyInfo_Normalize_m1192796352
MFm:__ZL13GetSharedInstPK17Il2CppGenericInst
Olm:_WhereEnumerableIterator_1_MoveNext_m2092954763_gshared
HMh:_BuilderNamespaceManager_LookupNamespace_m4196034964
Shn:__ZN6il2cpp6icalls8mscorlib6System9Threading10WaitHandle18WaitAll_internal40EP11Il2CppArrayi
PBm:__ZNK15dense_hashtableINSt3__24pairIK10KeyWrapperIPKcEP11Il2CppClassEES5_N6il2cpp5utils11StringUtils12StringHasherIS4_EEN14dense_hash_mapIS5_S8_SE_NS5_14EqualsComparerINSB_13VmStringUtils21CaseSensitiveComparerEEENS0_9allocatorIS9_EEE9SelectKeyESJ_SL_E3endEv
Xfp:_Quaternion_Equals_m798965363_AdjustorThunk
B5h:_UInt64_Parse_m834741018
MGb:__Z17PrepareSceneNodesP11CullResults
olf:_FormatterServices_CheckSerializable_m1926309083
OSe:_Byte_System_IConvertible_ToUInt32_m3950610247
lMg:_InternalDecoderBestFitFallbackBuffer_GetNextChar_m3666955879
pNc:__ZNK5physx7NpCloth14getNbParticlesEv
uAh:_Array_InternalArray__ICollection_Add_TisResourceLocator_t2156390884_m399566521_gshared
ZUf:_GregorianCalendarHelper_IsValidYear_m2245988971
cFf:_Array_InternalArray__get_Item_TisNamespaceDeclaration_t3577631811_m3434823377_gshared
Ppc:__ZN5physx2Sc10NPhaseCore24releaseShapeInstancePairEPNS0_19ShapeInstancePairLLEjj
RYg:_Task_IsCompletedMethod_m3298576807
tFb:__Z24SetupActiveLightsContextR21ActiveLightingContextRK12ActiveLightsRK11CullResultsP14ShadowMapCacheRK10MinMaxAABB
rkd:__ZN5physx2GuL34fullContactsGenerationConvexConvexERKNS0_11ConvexHullVERS1_RKNS_6shdfnd3aos12PsTransformVES9_bbPNS0_17PersistentContactERjRNS0_13ContactBufferERNS0_25PersistentContactManifoldERNS6_5Vec3VERKNS6_6FloatVEb
ycf:_DBNull_System_IConvertible_ToUInt32_m2681284284
DUm:__ZNK15dense_hashtableINSt3__24pairIK10KeyWrapperIPK22Il2CppGenericParameterEPK24MonoGenericParameterInfoEES6_N6il2cpp5utils11PointerHashIS4_EEN14dense_hash_mapIS6_SA_SF_NS6_14EqualsComparerINS0_8equal_toIS5_EEEENS0_9allocatorISB_EEE9SelectKeyESK_SM_E3endEv
Xva:__ZN6Camera8TransferI24GenerateTypeTreeTransferEEvRT_
URi:_SHA1Managed_SHAExpand_m2143194243
Oa:invoke_iiiiiiif
Ia:invoke_iiiiiiii
fPj:_AutoWebProxyScriptEngine_IsWindows_m2035385363
pVk:_ObjectEqualityComparer_1_Equals_m987448272_gshared
hBe:_X509ChainElementCollection_Contains_m3599995067
MIb:__ZN8Renderer17PendingAddToSceneEv
MFc:__ZN5physx7NpActor18releaseConstraintsERNS_12PxRigidActorE
Xmc:__ZN5physx6shdfnd5ArrayINS_11PxDebugLineENS0_19ReflectionAllocatorIS2_EEE8recreateEj
hMp:b125
gMp:b124
jMp:b127
iMp:b126
lMp:b129
kMp:b128
CN:__Z21PostprocessStacktracePKcRN4core12basic_stringIcNS1_20StringStorageDefaultIcEEEE
Ezj:_SslClientStream_OnLocalPrivateKeySelection_m3649986106
d1g:_SR_GetString_m1708794520
QWa:__ZN18StreamedBinaryReadILb0EE21TransferSTLStyleArrayI13dynamic_arrayI16SplashScreenLogoLj4EEEEvRT_17TransferMetaFlags
EXc:__ZNK5physx14NpRigidDynamic25getContactReportThresholdEv
jDg:_Single_CompareTo_m2081476257
o2m:__ZN6il2cpp6icalls8mscorlib6System4Type27GetGenericParameterPositionEP20Il2CppReflectionType
Irh:_Array_InternalArray__ICollection_Remove_TisX509ChainStatus_t4278378721_m4127982424_gshared
F_b:__Z47Register_UnityEngine_Camera_get_allCamerasCountv
FNd:__ZN22BaseUnityConnectClient20StartEventDispatcherEv
Caa:__ZL25ProgramUniformMatrix4x3fvPK7ApiGLESjiihPKv
Aod:__Z22updateIslandsToProcessRKN5physx2Cm10BitMapBaseINS_6shdfnd9AllocatorEEEPKjRKNS_11NodeManagerERS4_
Kwb:__ZN12InputManager13InputEndFrameEv
QZe:_SyncHashtable__ctor_m2029869827
f_l:_IgnoreSection__cctor_m1005553135
cze:_XmlSchemaElement_get_IsNillable_m1382235314
aBd:__ZN8Collider30GetRelativePositionAndRotationERK9TransformR10Matrix4x4f
dcd:__ZN5physx35PxcSweepEstimateAnyShapeHeightfieldERKNS_11PxsCCDShapeES2_PKNS_12PxsRigidBodyES5_RKNS_11PxTransformES8_f
qnc:__ZN5physx3Cct13BoxControllerC2ERKNS_16PxControllerDescERNS_9PxPhysicsEPNS_7PxSceneE
Pop:___munmap
tQc:__ZN5physx2Sc9ClothCore22removeCollisionCapsuleEj
f4e:_Convert_ToInt64_m1722087499
tg:_localtime_r
Nxb:__ZN22RenderingCommandBuffer13GetAndCheckRTE24BuiltinRenderTextureTypeRKN9ShaderLab16FastPropertyNameEPKcPP13RenderTexture
Hlp:_PlayerControl__ctor_m2343782357
w3f:_Datatype_unsignedByte_get_ValueType_m4023076842
yg:_strftime
Uca:__ZN7Texture33SetStoredColorSpaceNoDirtyNoApplyE17TextureColorSpace
kS:__ZN12FileAccessorD2Ev
dAa:__ZN14VertexDataInfoC2Ev
zNf:_Exception_GetObjectData_m2653827630
ZXg:_Task_get_InternalCurrent_m2778287894
tpl:_InternalEnumerator_1_get_Current_m2415979394_gshared
vVi:_X509CertificateImplMono_GetPublicKey_m859468785
glb:__ZL17Transfer_GUIStyleI18StreamedBinaryReadILb1EELb1EEvRK29SerializationCommandArgumentsR31RuntimeSerializationCommandInfo
_Xf:_TextInfo_GetCaseInsensitiveHashCode_m3270054820
Ctj:_CipherSuite_CreateHashAlgorithm_m722595391
IIm:__ZN6il2cpp6icalls8mscorlib6SystemL9IsPrivateEPK12PropertyInfo
Y8g:_Datatype_anyURI__ctor_m2800452853
Avg:_UIPermission_set_Clipboard_m2145644125
jcd:__ZNK5physx18PxcConvexTriangles16getPolygonNormalEj
E3i:_CustomAttributeData_GetCustomAttributes_m3258419955
Zgm:_Matrix4x4_GetColumn_m83396621
YTj:_Dns_hostent_to_IPHostEntry_m2029197676
nfg:_AuthenticodeDeformatter_VerifyCounterSignature_m1893533540
SM:__ZN9shadertag10InitializeEv
Ozb:__ZN13BatchRenderer20RenderSingleWithPassER17ShaderPassContextPK18SharedMaterialDataP6ShaderPN9ShaderLab4PassEiPKNS7_10GrabPassesEjib15BatchBreakCause
EGd:__ZN5physx24NpPtrTableStorageManager8canReuseEjj
jPi:_RC2CryptoServiceProvider_GenerateIV_m3062066003
dNa:__ZN15QualitySettings14QualitySetting8TransferI24GenerateTypeTreeTransferEEvRT_
pCh:_Array_InternalArray__ICollection_CopyTo_TisParameterModifier_t1820634920_m4127516211_gshared
mHg:_DecoderReplacementFallback__ctor_m2344783488
O$i:_OutOfMemoryException__ctor_m239206850
u0c:__ZN5physx2Sc27ConstraintProjectionManager33processConstraintForGroupBuildingEPNS0_13ConstraintSimERNS0_20ScratchAllocatorListIS3_Lj64EEE
WNn:__Z121RuntimeInvoker_Int32_t2071877448_RuntimeObject_RuntimeObject_Int32_t2071877448_ByteU5BU5DU26_t790777611_Int32_t2071877448PFvvEPK10MethodInfoPvPS4_
UBf:_Array_UnsafeStore_TisRuntimeObject_m840173032_gshared
LLi:_Utils_ConvertByteArrayToInt_m2784549085
oxn:__Z88RuntimeInvoker_RuntimeObject_RuntimeObject_RuntimeObject_RuntimeObject_Int32_t2071877448PFvvEPK10MethodInfoPvPS4_
YLn:__Z114RuntimeInvoker_Int32_t2071877448_RuntimeObject_RuntimeObject_Int32_t2071877448_Int32_t2071877448_Int32_t2071877448PFvvEPK10MethodInfoPvPS4_
kwd:__ZN5physx20InternalTriangleMesh17allocateTrianglesEjb
S$j:_SystemCertificateValidator__cctor_m4072828367
bXb:__ZN22BlockMemoryCacheWriter14LockCacheBlockEjPPhS1_
RZf:_TimeSpanRawInfo_get_PositiveLocalized_m4226395634_AdjustorThunk
P5f:_DtdValidator_ProcessElement_m2021581749
z_c:__ZN5physx2Cm29ConstraintImmediateVisualizer19visualizeDoubleConeERKNS_11PxTransformEfb
nTn:__Z94RuntimeInvoker_ParsingError_t953959262_RuntimeObject_Int16_t4041245914_UriParserU26_t624495709PFvvEPK10MethodInfoPvPS4_
L6b:__Z22TransferField_NonArrayI8JSONRead27Converter_SimpleNativeClassI8GUIStyleEEvRK23StaticTransferFieldInfoR31RuntimeSerializationCommandInfoRT0_
Kac:__ZN5physx6shdfnd5ArrayINS_13PxExtendedBoxENS0_19ReflectionAllocatorIS2_EEE8recreateEj
Nhd:__ZN5physx20ProcessBPResultsTask11runInternalEv
Ztc:__ZN5physx6shdfnd5ArrayIPvNS0_19ReflectionAllocatorINS_2Cm5BlockIS2_Lj16EEEEEE4copyINS0_15InlineAllocatorILj256ES7_EEEEvRKNS1_IS2_T_EE
ZXd:_XmlLoader_LoadDocumentType_m2663740937
EVh:_ThreadHelper__cctor_m1327679494
eh:_llvm_eh_typeid_for
xPb:__Z13RegisterClassI10GameObjectEvv
sYk:_Collection_1_IsCompatibleObject_m23857476_gshared
ZKe:_RegexInterpreter_Operand_m3667075792
YOe:_Uri__ctor_m723586302
a1c:__ZN5physx7NpScene19getActiveTransformsERjh
FUd:_XmlReaderSection_CreateDefaultResolver_m1340494240
Qpc:__ZN5physx2Sc10NPhaseCore39pool_deleteParticleElementRbElementPairEPNS0_35ParticleElementRbElementInteractionEjj
DLk:_sockaddr_dl_t3955242742_marshal_pinvoke
mpi:_MissingMemberException__ctor_m4277447068
$F:__Z7ToUpperIN4core12basic_stringIcNS0_20StringStorageDefaultIcEEEEET_RKS5_
HBk:_StrongNameKeyPair_System_Runtime_Serialization_ISerializable_GetObjectData_m1693082120
vnb:__Z18Transfer_BlittableI18StreamedBinaryReadILb0EELb1E8Vector4fEvRK29SerializationCommandArgumentsR31RuntimeSerializationCommandInfo
xzh:_Array_InternalArray__ICollection_Add_TisEntry_t3688716734_m2947982604_gshared
Sai:_Int64_CompareTo_m1953686218
vbi:_Int64_System_IConvertible_ToInt16_m2022633688_AdjustorThunk
ckp:_Cover__cctor_m1712156803
Izd:__ZN5physx6shdfnd5ArrayINS_11RTreeNodeNQENS0_19ReflectionAllocatorIS2_EEE19resizeUninitializedEj
QOj:_AuthenticationModulesSection_get_AuthenticationModules_m3852393563
Lqc:__ZNK5physx2Sc16InteractionScene18getLLIslandManagerEv
a$d:_XmlElement_get_Attributes_m3671402762
ILi:_DSA_Create_m3450041777
yFa:__ZN8Material8TransferI14SafeBinaryReadEEvRT_
Ibd:__ZN5physx17PxcNpMemBlockPool34acquireExceptionalConstraintMemoryEj
_Ha:__ZN12CubemapArray17UploadToGfxDeviceEv
jal:__Z30il2cpp_codegen_resolve_pinvokeIPFjjP41TIME_DYNAMIC_ZONE_INFORMATION_t2883369749ELj36ELj31EET_RAT0__KcRAT1__S5_20Il2CppCallConvention13Il2CppCharSetib
H$i:_OrdinalComparer__ctor_m2952942058
Ucd:__ZN5physxL23PxcSweepConvexTrianglesERKNS_11PxsCCDShapeES2_RKNS_11PxTransformES5_S5_S5_fRNS_6PxVec3ES7_RNS_10PxcNpCacheERNS_18PxcNpThreadContextERKNS_2Cm23FastVertex2ShapeScalingERNS_2Gu9TriangleVEf
tLc:__ZNK5physx7NpShape16getPlaneGeometryERNS_15PxPlaneGeometryE
GJp:_emscripten_glGetUniformiv__wrapper
Szd:__ZN5physx27InternalTriangleMeshBuilder14fillRemapTableEv
iu:__ZN11AudioSource4StopEb
kyc:__ZN5physx6shdfnd8PoolBaseINS_13NpRigidStaticENS0_19ReflectionAllocatorIS2_EEE17releaseEmptySlabsEv
adb:__ZN14SafeBinaryRead21TransferSTLStyleArrayI13dynamic_arrayI10Matrix4x4fLj4EEEEvRT_17TransferMetaFlags
Mwa:__ZN15LODGroupManager26CollectAllLODGroupManagersERK16CoreCameraValuesR13dynamic_arrayIPS_Lj4EEb
kcf:_DateTimeResult_SetFailure_m493683545_AdjustorThunk
atb:__Z25GetSplashScreenBackgroundRK5RectTIfE
oml:_InternalEnumerator_1_System_Collections_IEnumerator_get_Current_m1679297177_gshared
D3j:_BaseNumberConverter_FromStringError_m896703023
qDk:_ResourceManager__ctor_m498829021
Ifa:__ZN18GlslGpuProgramGLESD2Ev
aLb:__ZN13RenderTexture14SetVolumeDepthEi
AHl:_Tuple_3_GetHashCode_m132921887_gshared
yFd:__ZThn116_NK5physx7profile8ZoneImplINS_28PxProfileNameProviderForwardEE10hasClientsEv
bld:__ZN5physx2Gu20pcmContactCapsuleBoxERKNS0_13GeometryUnionES3_RKNS_11PxTransformES6_RKfRNS0_5CacheERNS0_13ContactBufferE
p7b:__ZN10Matrix4x4f8TransferI8JSONReadEEvRT_
nwg:_PermissionSet__ctor_m2569419083
NIk:_AuthorizationState_Reset_m2998197623
YIf:_StackTrace__ctor_m772333217
Z$g:_Operator__cctor_m2203786867
zO:__ZN17PersistentManager18ReadObjectThreadedEi
U1:__ZN25TransformFeedbackSkinning31CleanupTransformFeedbackShadersEv
Bwa:__Z22scripting_object_unbox18ScriptingObjectPtr
bDk:_MissingManifestResourceException__ctor_m1317920336
CZf:_TimeSpanParse__cctor_m3845946459
dTk:_ObjectEqualityComparer_1_Equals_m2872873530_gshared
Uxe:_XmlSchemaComplexContentExtension_set_BaseTypeName_m1500836125
Zdf:_Decimal_System_IConvertible_ToInt16_m3159038792_AdjustorThunk
oxi:_Enumerator_System_Collections_IDictionaryEnumerator_get_Value_m3705393446_gshared
TOa:__ZN10VertexData8TransferI18StreamedBinaryReadILb0EEEEvRT_
_xc:__ZN5physx2Sc5Scene9addStaticERNS0_10StaticCoreEPKPvjj
GWh:_Timer_GetTimeMonotonic_m1741120680
Vrn:__ZN6il2cpp8metadata25Il2CppGenericClassCompare7CompareEPK18Il2CppGenericClassS4_
plg:_PKCS12_GetExistingParameters_m2413397265
Yyl:_Nullable_1_get_Value_m1743067844_gshared
WHl:_Tuple_4_Equals_m293337750_gshared
OYa:__ZN14PreloadManager16UpdatePreloadingEv
mBa:__ZN14SafeBinaryRead21TransferSTLStyleArrayI19StaticArrayTransferIiLi4EEEEvRT_17TransferMetaFlags
I7c:__ZN5physx2Sc5Scene9addShapesEPKPvjjRNS0_8RigidSimEPNS_12PxsRigidBodyERPNS0_8ShapeSimEPNS_9PxBounds3E
L4m:__ZNK15dense_hashtableINSt3__24pairIK10KeyWrapperINS1_IPKcS4_EEEiEES6_24NamespaceAndNamePairHashN14dense_hash_mapIS6_iS9_NS6_14EqualsComparerI26NamespaceAndNamePairEqualsEENS0_9allocatorIS8_EEE9SelectKeyESD_SF_E10test_emptyEj
Kbl:_RegistryKey_CreateMarkedForDeletionException_m2959634582
Nmn:__ZN6il2cpp6icalls8mscorlib6System10Reflection4Emit13ModuleBuilder10basic_initEP29Il2CppReflectionModuleBuilder
Jen:__ZN14dense_hash_mapI10KeyWrapperIPK19Il2CppGenericMethodEP10MethodInfoN6il2cpp8metadata23Il2CppGenericMethodHashENS4_14EqualsComparerINS8_26Il2CppGenericMethodCompareEEENSt3__29allocatorINSD_4pairIKS4_S6_EEEEEC2EjRKS9_RKSC_
p9d:_NodeData_SetNamedNode_m2372283377
x7h:_Version_AppendPositiveNumber_m305041698
Tjd:__ZN5physx23PxcPCMContactConvexMeshERKNS_2Gu13GeometryUnionES3_RKNS_11PxTransformES6_RKfRNS_10PxcNpCacheERNS0_13ContactBufferE
s8n:__Z94RuntimeInvoker_RuntimeObject_Double_t4078015681_Double_t4078015681_RuntimeObject_RuntimeObjectPFvvEPK10MethodInfoPvPS4_
DI:__ZNK21UnityDefaultAllocatorI17LowLevelAllocatorE8ContainsEPKv
Qtf:_AsymmetricAlgorithm_FromXmlString_m1538717734
K1e:_ConsoleDriver_TtySetup_m2722934590
o4m:_il2cpp_z_inflate_fast
cNa:__ZN24GenerateTypeTreeTransfer21TransferSTLStyleArrayINSt3__26vectorIN15QualitySettings14QualitySettingENS1_9allocatorIS4_EEEEEEvRT_17TransferMetaFlags
RTa:__ZNSt3__26vectorI14SubstanceInputNS_9allocatorIS1_EEE8__appendEj
aWe:_IListWrapper_Add_m1561705369
Vsi:_ArraySegment_1_System_Collections_Generic_IListU3CTU3E_get_Item_m2541481689_AdjustorThunk
UUa:__ZNSt3__26vectorI9InputAxisNS_9allocatorIS1_EEE6resizeEj
Vzb:__ZN13BatchRendererC2ER15RenderLoopStatsRK15RenderNodeQueuebbb
Fsg:_SecurityElement_IsValidAttributeValue_m483287146
U5a:__ZNK2UI13RectTransform22GetTypeVirtualInternalEv
kKg:_Encoding_get_Unicode_m1382741113
q6e:_DateTimeParse_HandleTimeZone_m3544601315
bkd:__ZN5physx2Gu33MultiplePersistentContactManifold24addManifoldContactPointsEPNS0_21MeshPersistentContactEjPPNS0_15PCMContactPatchEjRKNS_6shdfnd3aos6FloatVESB_h
hWg:_Task__ctor_m2563468577
hxg:_AllMembershipCondition_ToString_m3894000262
Hti:_ArraySegment_1_System_Collections_Generic_IListU3CTU3E_IndexOf_m3130654213_gshared
UUi:_X509CertificateImplApple_SecCertificateCopySubjectSummary_m1705199766
Jrj:_PrivateKeyInfo_RemoveLeadingZero_m3396807048
mGb:__ZN18DeferredRenderLoopD2Ev
vBf:_Array_swap_TisDouble_t4078015681_m3383122565_gshared
xia:__ZNK16TypeTreeIterator4NameEv
Ulf:_ObjectHolder_set_ValueTypeFixupPerformed_m3210221279
KR:__ZN15FileSystemEntry3SetEPKc
oag:_SchemaAttDef_System_Xml_IDtdAttributeInfo_get_Prefix_m3962090022
Wqd:__ZN5physx6shdfnd5ArrayIPNS_13PxcNpMemBlockENS0_19ReflectionAllocatorIS3_EEE6resizeEjRKS3_
sae:_XmlTextReaderImpl_OnEof_m2801067185
zxf:_Array_qsort_TisBoolean_t3825574718_m1029518450_gshared
Xv:__ZN20SoundChannelInstance15ParameterBuffer5ApplyEPN4FMOD7ChannelE
T2h:_TypeIdentifiers_WithoutEscape_m1377177423
UNh:_Parser_ParseChar_m775068027_AdjustorThunk
eFd:__ZN5physx7profile8ZoneImplINS_28PxProfileNameProviderForwardEE21setProfileZoneManagerEPNS_20PxProfileZoneManagerE
eOd:__ZN11UnityEngine15PlatformWrapper24GetRuntimePlatformStringEv
_i:_glIsEnabled
W_f:_Guid_ToString_m51661589_AdjustorThunk
Skc:__ZN5physx3Cct17CapsuleController15setFootPositionERKNS_14PxExtendedVec3E
oic:__ZN5physx2Gu33PCMCapsuleVsMeshContactGeneration13generateEEMTDERKNS_6shdfnd3aos5Vec3VES6_RKNS3_6FloatVES6_jS6_S6_PNS0_21MeshPersistentContactERj
Sbb:__Z25scripting_class_get_image17ScriptingClassPtr
cim:_PlayableAsset_Internal_CreatePlayable_m2166162235
wYa:__ZNSt3__26vectorIN4core12basic_stringIcNS1_20StringStorageDefaultIcEEEE13stl_allocatorIS5_L18MemLabelIdentifier13ELi16EEEC2INS_11__wrap_iterIPS5_EEEET_SE_RKS8_PNS_9enable_ifIXaasr21__is_forward_iteratorISE_EE5valuesr16is_constructibleIS5_NS_15iterator_traitsISE_E9referenceEEE5valueEvE4typeE
cj:_emscripten_glDrawElementsInstanced
Sgj:_MonoMethodMessage_GetArgName_m1514377162
Zbg:_SchemaCollectionCompiler_CleanupSimpleType_m858516665
u8l:_GeneralNames_get_IPAddresses_m1712556836
Mqj:_HMAC_Initialize_m3052649104
bdf:_Decimal_FCallAddSub_m2716413624
P5a:__ZN9Transform17MainThreadCleanupEv
pln:_GC_clear_hdr_marks
MLp:_emscripten_glCreateShader__wrapper
fak:_Enumerator_System_Collections_IEnumerator_Reset_m96379611_gshared
gGo:__ZL73CompilationRelaxationsAttribute_t238494011_CustomAttributesCacheGeneratorP21CustomAttributesCache
aue:_XmlBaseConverter_DecimalToUInt64_m412118568
rdl:_MSCompatUnicodeTable_GetTailoringInfo_m2792223347
g9j:_Enumerator_get_Current_m1908082014_AdjustorThunk
v1j:_NameObjectCollectionBase_get_Keys_m446053925
nj:_emscripten_glGetShaderiv
f4g:_NameTable_Grow_m2973870525
Xw:__ZN4FMOD6System10getVersionEPj
Rrd:__ZN5physx2Sc7BodySim10sleepCheckEffb
PSk:_ObjectComparer_1_Compare_m1552110319_gshared
_Jh:_XsdBuilder_ProcessAttribute_m3518624271
Gxh:_Array_InternalArray__IndexOf_TisSByte_t454417549_m1427585061_gshared
g3j:_ArrayConverter_ConvertTo_m1413480260
i7l:_X509Certificate_Parse_m1764345628
T4b:__ZN9JSONWrite8TransferIN4math12int2_storageEEEvRT_PKc17TransferMetaFlags
XXi:_KeyContainerPermission_IsUnrestricted_m2478546348
lLp:_emscripten_glCullFace__wrapper
kve:_XmlNumeric10Converter_ToString_m1709878749
J_:__ZN9GfxDevice21ReleaseSharedMeshDataEP14SharedMeshData
ZEi:_Enumerator_System_Collections_IEnumerator_Reset_m1708159448_gshared
hMj:_TypedElement_get_TypeName_m1790982264
JVa:__ZNSt3__27__sort5IRNS_6__lessINS_4pairIPKN5Unity4TypeE7Hash128EES8_EEPS8_EEjT0_SC_SC_SC_SC_T_
iWi:_EnvironmentPermission_IsEmpty_m770865100
VKn:__Z123RuntimeInvoker_RuntimeObject_RuntimeObject_Int32_t2071877448_Int32_t2071877448_RuntimeObject_RuntimeObject_SByte_t454417549PFvvEPK10MethodInfoPvPS4_
Kqh:_Array_InternalArray__ICollection_Remove_TisEntry_t4272951227_m1911824392_gshared
wkn:_GC_unreachable_finalize_mark_proc
njp:_WaitForSecondsRealtime_get_keepWaiting_m4138104467
rg:___syscall192
w4g:_Res_GetString_m2515920565
Uln:_maybe_finalize
gDf:_ThrowHelper_IfNullAndNullsAreIllegalThenThrow_TisTimeSpan_t3430258949_m3611052542_gshared
pBn:__Z50RuntimeInvoker_Void_t1841601450_Single_t2076509932PFvvEPK10MethodInfoPvPS4_
lqf:_RuntimeType_FilterApplyMethodBase_m3489698640
zjf:_ObjectIDGenerator__ctor_m278693416
jKa:__ZN8Material28UpdateHashesOnPropertyChangeEN9ShaderLab16FastPropertyNameE
trk:_SymbolType_GetProperties_m598653058
Gce:_XmlTextReaderImpl_PopXmlContext_m4011420409
Iwg:_PermissionSet_Intersect_m1732433896
A2f:_Datatype_QName_get_ListValueType_m1980926531
sXe:_CaseInsensitiveComparer_Compare_m1192858479
Kab:__Z18Transfer_BlittableI14SafeBinaryReadLb1E8Vector4fEvRK29SerializationCommandArgumentsR31RuntimeSerializationCommandInfo
V0:__ZN13GfxDeviceGLES20SetComputeBufferDataE15ComputeBufferIDPKvjj
_mj:_BinaryMethodCall_Write_m2892699187
Zy:__ZN11AudioSource12AddToManagerEv
pyg:_DefaultPolicies_get_Nothing_m2318328717
z4m:__ZN6il2cpp2vm5Image13ClassFromNameEPK11Il2CppImagePKcS6_
EBp:dynCall_vdddddd
O2a:__ZN24GenerateTypeTreeTransfer21TransferSTLStyleArrayINSt3__26vectorIN9ShaderLab14SerializedPassENS1_9allocatorIS4_EEEEEEvRT_17TransferMetaFlags
qN:__ZL32MarkLevelGameManagerDependenciesR27GarbageCollectorThreadState
a1:__ZNK13GfxDeviceGLES26HasActiveRandomWriteTargetEv
dYm:__GLOBAL__sub_I_Thread_cpp
VTf:_TaiwanCalendar_GetDefaultInstance_m1873345903
uGp:_glGetActiveUniformsiv__wrapper
P2j:_StringCollection_Insert_m1467620830
D8h:_GuidResult_SetFailure_m2794594131_AdjustorThunk
mac:__ZNK5physx3Cct10Controller16getInternalStateERNS_17PxControllerStateE
HP:__ZN13MonoBehaviour19SetupScriptingCacheE17ScriptingClassPtrP10MonoScript
fGk:_FtpWebRequest_DownloadData_m766254495
oOl:_EqualityComparer_1_System_Collections_IEqualityComparer_Equals_m3640442426_gshared
IIh:_XmlSchemaValidator_QNameString_m3663159848
XO:__ZN17PersistentManager29ReadAndActivateObjectThreadedEiRK26SerializedObjectIdentifierP14SerializedFilebb
jYe:_CompatibleComparer_Equals_m750118686
I6c:__ZN5physx10PxsContext15setScratchBlockEPvj
xSi:_SHA384Managed_Sigma_1_m3377328591
Xap:__ZL74UnityEventBase_t828812576_CustomAttributesCacheGenerator_m_PersistentCallsP21CustomAttributesCache
cW:__ZZN15DirectorManager15InitializeClassEvEN52PreLateUpdateDirectorUpdateAnimationBeginRegistrator7ForwardEv
Q2m:__ZN6il2cpp2vm13LivenessState18ShouldProcessValueEP12Il2CppObjectP11Il2CppClass
mTh:_TaskScheduler_PublishUnobservedTaskException_m1618384244
Elj:___BinaryParser_ReadObjectWithMapTyped_m942254985
npc:__ZN5physx2Cm27getDynamicGlobalPoseAlignedERKNS_11PxTransformES3_S3_RS1_
Ygm:_Matrix4x4_GetHashCode_m375571566
Ckg:_Uri_get_IsLoopback_m350861923
j2a:__ZNSt3__26vectorIN9ShaderLab14SerializedPassENS_9allocatorIS2_EEE8__appendEj
zxd:__ZN5physx6shdfnd5ArrayIPvNS0_19ReflectionAllocatorIN17PxcPoolMallocData10PoolData32EEEE15growAndPushBackERKS2_
A1a:__ZNSt3__26vectorIN9ShaderLab20SerializedSubProgram13BufferBindingENS_9allocatorIS3_EEEC2INS_11__wrap_iterIPS3_EEEET_SB_RKS5_PNS_9enable_ifIXaasr21__is_forward_iteratorISB_EE5valuesr16is_constructibleIS3_NS_15iterator_traitsISB_E9referenceEEE5valueEvE4typeE
tUb:__ZZL23RegisterLightPropertiesR22GenericPropertyBindingEN20Wrapper_LightColorb213GetFloatValueEPv
YNg:_StringBuilder_Append_m3194953358
TIp:_emscripten_glBlendColor__wrapper
IWl:_ConfigurationElement_SerializeElement_m4131562944
SJa:__ZN9Texture2D23VirtualRedirectTransferER18StreamedBinaryReadILb0EE
yKf:_Double_System_IConvertible_ToUInt16_m286326038_AdjustorThunk
dkj:_TypeInfo__ctor_m1475908211
maj:_MethodOnTypeBuilderInst_get_ContainsGenericParameters_m3990467731
Pzj:_SslServerStream_EndNegotiateHandshake_m3019120590
Dse:_XmlBaseConverter_ToInt32_m2601445907
oQ:__ZN16ScriptingManager27NativeTypeForScriptingClassE17ScriptingClassPtr
Yag:_SchemaCollectionCompiler_CompileGroup_m3122146982
tam:_X509CertificateEnumerator_System_Collections_IEnumerator_MoveNext_m1448966539
gnk:_List_1_IndexOf_m441311894_gshared
cvj:_TlsServerHelloDone__ctor_m2125611008
JXk:_Stack_1_System_Collections_ICollection_CopyTo_m2045830142_gshared
FPb:__Z13RegisterClassI5LightEvv
vHd:__ZN5physx2Gu20registerHeightFieldsEv
fvf:_DES_get_Key_m2584608215
lfd:__ZN5physx22concludeContactCoulombERKNS_23PxcSolverConstraintDescERNS_16PxcSolverContextE
al:_emscripten_set_canvas_size
OMj:_DeflateStream_Flush_m3971344454
GSc:__ZNK5physx15NpParticleFluid12getStiffnessEv
QYe:_Hashtable__ctor_m741952536
f3l:_Marshal_ReleaseInternal_m163406182
S1a:__ZNSt3__26vectorIN9ShaderLab20SerializedSubProgramENS_9allocatorIS2_EEE8__appendEj
lJ:__ZN20DynamicHeapAllocatorI17LowLevelAllocatorE8AllocateEji
OLd:__ZN11UnityEngine9Analytics15UserCustomEvent12ToJsonStringER9JSONWrite
Wah:_ServicePointManager_get_ServerCertValidationCallback_m977745064
uAb:__ZN20DynamicPropertySheet15SetVectorQueuedERKN9ShaderLab16FastPropertyNameERK8Vector4fN19ShaderPropertySheet8SetFlagsE
GQh:_XmlCharType_IsStartNCNameSingleChar_m2228921981
tCa:__ZN14RenderSettings23VirtualRedirectTransferER19StreamedBinaryWriteILb0EE
q3b:__ZL26Transfer_SimpleNativeClassI9JSONWrite10RectOffsetLb0EEvRK29SerializationCommandArgumentsR31RuntimeSerializationCommandInfo
Qkn:_GC_push_conditional
$Ld:__ZN21UnityAnalyticsManager23VirtualRedirectTransferER24GenerateTypeTreeTransfer
b5:__ZN17GenericDynamicVBO10AllocateVBEjR21DynamicVBOChunkHandle
VGk:_FtpWebResponse_get_Headers_m1164624792
Vei:_Path_GetPathRoot_m1269357080
rjd:__ZL27PxcTestFacesSepAxesBackfaceRKN5physx2Gu13PolygonalDataES3_RKNS_2Cm8Matrix34ES7_RKNS4_23FastVertex2ShapeScalingESA_S7_RKNS_6PxVec3ERfRSB_RjPjSG_fSD_
Eik:_List_1_System_Collections_IList_Insert_m3497683264_gshared
a6m:__ZN30dense_hashtable_const_iteratorI10KeyWrapperIP18Il2CppGenericClassES3_N6il2cpp8metadata22Il2CppGenericClassHashEN14dense_hash_setIS3_S6_NS3_14EqualsComparerINS5_25Il2CppGenericClassCompareEEENSt3__29allocatorIS3_EEE8IdentityESA_SD_EppEv
c3j:_StringDictionary_set_Item_m3594495450
pNm:__ZN6il2cpp2osL19StatToFileAttributeERKNSt3__212basic_stringIcNS1_11char_traitsIcEENS1_9allocatorIcEEEER4statPSA_
yl:_glMapBufferRange
KJa:__ZN9Texture2D8TransferI18StreamedBinaryReadILb0EEEEvRT_
oKl:_Dictionary_2_Remove_m1947153975_gshared
t$b:__Z31Input_CUSTOM_GetMouseButtonDowni
TNc:__ZNK5physx7NpCloth23getExternalAccelerationEv
_5e:_DateTimeParse_GetDateOfNDS_m265292806
Hra:__ZNK9Transform16GetLocalPositionEv
Bla:__ZN13LoadOperation19IntegrateTimeSlicedEi
Lgd:__ZN5physx16PxsBroadPhaseMBP9updatePPUEPNS_10PxBaseTaskE
Vsf:_SByte_System_IConvertible_ToInt16_m2746591444_AdjustorThunk
l1:__ZN13GfxDeviceGLES22DispatchComputeProgramE12ObjectHandleI18ComputeProgram_TagPvE15ComputeBufferIDj
och:_SafeSocketHandle_UnRegisterForBlockingSyscall_m3418232661
C3e:_Convert_ToInt32_m2297793940
l_a:__Z17TransformAABBSlowRK4AABBRK10Matrix4x4fRS_
zVm:__ZN13Il2CppHashMapINSt3__24pairIPK9FieldInfoP11Il2CppClassEEj17ReflectionMapHashIS7_ENS0_8equal_toIS7_EENS0_9allocatorINS1_IK10KeyWrapperIS7_EjEEEEEC2EjRKS9_RKSB_
B0a:__ZN9ShaderLab21SerializedShaderState8TransferI14SafeBinaryReadEEvRT_
zRi:_RSAPKCS1SignatureFormatter_SetKey_m2365816458
Xke:_SchemaElementDecl_get_IsNotationDeclared_m1183726514
c5i:_ByRefType_MakePointerType_m1908407954
PUc:__ZN5physx6shdfnd8PoolBaseINS_16NpParticleSystemENS0_19ReflectionAllocatorIS2_EEE12allocateSlabEv
ndg:_RuntimeMarshal_DecodeBlobSize_m927311023
lGa:__ZN15SerializeTraitsINSt3__24pairIN4core12basic_stringIcNS2_20StringStorageDefaultIcEEEES6_EEE8TransferI24GenerateTypeTreeTransferEEvRS7_RT_
rIp:b89
kIp:b88
TIm:__ZN6il2cpp6icalls8mscorlib6SystemL8IsPublicEPK9EventInfo
dIp:b81
cIp:b80
ida:__ZN7ApiGLES19CreateSparseTextureEjj14GraphicsFormatiiiiRiS1_S1_
_Q:__ZN18ResourceImageGroup7CleanupEv
hIp:b85
bsc:__ZN5physx2Gu36closestPtPointTetrahedronTesselationEPNS_6shdfnd3aos5Vec3VES4_S4_RjRS3_S6_
jIp:b87
Gjd:__ZN5physx25PxcPCMContactSphereConvexERKNS_2Gu13GeometryUnionES3_RKNS_11PxTransformES6_RKfRNS_10PxcNpCacheERNS0_13ContactBufferE
$7i:_GenericTypeParameterBuilder_get_DeclaringType_m1652924692
$Tb:__ZN13ProduceHelperI4MeshLb0EE7ProduceE18MemLabelIdentifier18ObjectCreationMode
Hrj:_PrivateKeyInfo_Decode_m1053025782
flg:_PKCS12_Decrypt_m2457743414
kLm:__Z56ves_icall_System_Threading_ThreadPool_ReportThreadStatusb
$Dl:_SparselyPopulatedArrayFragment_1_get_Item_m2316076924_gshared
mm:_glDeleteShader
g7f:_FacetsCompiler_CompileTotalDigitsFacet_m1855480163_AdjustorThunk
a9:__ZN6prcoreL17RemapGenericFloatI15TexFormatRGHalf16TexFormatRGFloatEEvPKNS_9InnerInfoE
vod:__ZN5physx16PxsIslandManager17cleanupEdgeEventsEv
LIc:__ZN5physx6shdfnd8PoolBaseINS_10NpMaterialENS0_19ReflectionAllocatorIS2_EEE15disposeElementsEv
Bil:_InternalEnumerator_1_get_Current_m1894741129_gshared
tBj:_TypeDescriptor_get_InterfaceType_m1539894436
eZb:__Z27scripting_add_internal_callPKcPKv
gKk:_LazyAsyncResult__ctor_m1085495249
KHg:_DecoderNLS__ctor_m3937441754
jVm:__ZN13Il2CppHashMapINSt3__24pairIPK9EventInfoP11Il2CppClassEEj17ReflectionMapHashIS7_ENS0_8equal_toIS7_EENS0_9allocatorINS1_IK10KeyWrapperIS7_EjEEEEEC2EjRKS9_RKSB_
$6m:__GLOBAL__sub_I_GarbageCollector_cpp
Fbc:__ZL21ContactReductionAllInRN5physx2Gu13ContactBufferEjjRKNS_7PxMat33EPKNS_6PxVec3EPKh
i8d:_XmlTextReader_get_LineNumber_m2626706892
Gam:_X509Store_CheckStore_m1027496478
gKj:_ListenerElementsCollection_InitializeDefaultInternal_m375652092
onh:_X509Certificate2ImplMono_GetCertHash_m907347488
hZl:_ProtectedConfigurationSection_InstantiateProvider_m1916220169
oEa:__ZN13RenderTexture8TransferI24GenerateTypeTreeTransferEEvRT_
Oyp:__ZNSt3__212basic_stringIcNS_11char_traitsIcEENS_9allocatorIcEEEC2ERKS5_jjRKS4_
V9m:__ZN23WorkerThreadStateHolderC2Ev
mFg:_String_Contains_m4017059963
M9e:_DateTimeParse_TryParse_m991964766
Pxp:__ZNSt3__26locale5__imp7installINS_7codecvtIDsc11__mbstate_tEEEEvPT_
xDh:_Array_InternalArray__Insert_TisKeyValuePair_2_t4275477795_m2017583275_gshared
Bpn:__ZN6il2cpp2vm9Parameter30GetDefaultParameterValueObjectEPK10MethodInfoPK13ParameterInfoPb
Iwf:_Array_InternalArray__set_Item_TisLabelData_t3712112744_m2253365137_gshared
HFh:_XmlSchemaObjectCollection_set_Item_m183355626
Zzg:_ZoneMembershipCondition_set_SecurityZone_m863145258
X9d:_XmlTextReaderImpl_GetIndexOfAttributeWithPrefix_m155543695
QGm:__ZN6il2cpp6icalls6System6System3Net7Sockets6Socket5CloseEiPi
wHi:_Dictionary_2_Add_m286245028_gshared
tdf:_Decimal_Parse_m2662862650
K5l:_Context_get_DefaultContext_m2211922324
B5f:_DtdValidator_Init_m1395928050
ATa:__ZN14SafeBinaryRead21TransferSTLStyleArrayINSt3__26vectorI14SubstanceInputNS1_9allocatorIS3_EEEEEEvRT_17TransferMetaFlags
Rgn:__ZN6il2cpp5utils11StringUtils15StringDuplicateEPKDsj
zRa:__ZN12BoneWeights48TransferI24GenerateTypeTreeTransferEEvRT_
Yrj:_RSAManaged_GetPaddedValue_m2972141669
_Ej:_PropertyDescriptorCollection__cctor_m299292564
P7m:__ZN6il2cpp2gcL10CleanupCCWEPvS1_
vsb:__Z19scripting_gc_enablev
Rvb:__ZZ23InitPlayerLoopCallbacksvEN41InitializationPlayerUpdateTimeRegistrator7ForwardEv
nGd:__ZN5physx7profile11EventBufferINS_24PxDefaultContextProviderENS_6shdfnd6MutexTINS0_26WrapperReflectionAllocatorIhEEEENS0_14ScopedLockImplIS7_EENS_24PxProfileNullEventFilterEE9stopEventEty
DMk:_Win32_FIXED_INFO_t1371335919_marshal_pinvoke_back
YQa:__ZN14SafeBinaryRead21TransferSTLStyleArrayI13dynamic_arrayI11ColorRGBA32Lj4EEEEvRT_17TransferMetaFlags
_wj:_TlsServerCertificate_RemoteValidation_m465839726
k8g:_Compiler_GetComplexType_m1009102127
GYl:_ConfigurationPropertyAttribute__ctor_m2756034538
nug:_SiteIdentityPermission_IsValid_m337880737
JXl:_ConfigurationElementCollection_OnDeserializeUnrecognizedElement_m1168261278
I$k:_ReadOnlyCollection_1_System_Collections_IEnumerable_GetEnumerator_m4018713246_gshared
xUf:_EncodingTable_MapCodePageDataItem_m2030517611
w4a:__ZN9ShaderLab7Program27CreateFromSerializedProgramERKNS_17SerializedProgramE10ShaderTypeiP16PropertyNamesSetPK6Shader
hcf:_DateTimeResult_Init_m1318519161_AdjustorThunk
Ecg:_RuntimeClassHandle_GetTypeFromClass_m2720406627
NTm:__ZN6il2cpp2gc19AppendOnlyGCHashMapINSt3__24pairIPK11Il2CppImageP11Il2CppClassEEP22Il2CppReflectionModule17ReflectionMapHashIS9_ENS2_8equal_toIS9_EEEC2Ev
rjo:__ZL73Enum_t2459695545_CustomAttributesCacheGenerator_Enum_ToString_m3754726711P21CustomAttributesCache
wO:__Z20GetPersistentManagerv
J5l:_Context_Finalize_m1386439645
bL:__ZN21SystemInfoStringCache16StaticInitializeEPv
N7l:_TlsStream__ctor_m4117943603
Pwf:_Array_InternalArray__set_Item_TisParameterModifier_t1820634920_m3126548327_gshared
Iqc:__ZN5physx2Sc7BodySim18internalWakeUpBaseEf
Edn:__ZN6il2cpp2gc16GarbageCollector23MakeDescriptorForObjectEPji
tAk:_ParameterModifier_t1820634920_marshal_pinvoke
Jpb:__ZNK13MonoBehaviour7GetNameEv
r$a:__ZN19ScriptingInvocation28AdjustArgumentsToMatchMethodEv
m6m:__ZN15dense_hashtableI10KeyWrapperIP18Il2CppGenericClassES3_N6il2cpp8metadata22Il2CppGenericClassHashEN14dense_hash_setIS3_S6_NS3_14EqualsComparerINS5_25Il2CppGenericClassCompareEEENSt3__29allocatorIS3_EEE8IdentityESA_SD_E6insertERKS3_
iup:__ZNKSt3__28time_getIwNS_19istreambuf_iteratorIwNS_11char_traitsIwEEEEE10__get_yearERiRS4_S4_RjRKNS_5ctypeIwEE
Bmm:_AesCryptoServiceProvider_get_Padding_m609922460
Lt:__Z15_CheckFMODError11FMOD_RESULTPKciS1_
pza:__Z20RenderMultipleMeshesRK15RenderNodeQueueRK18RenderMultipleData17ShaderChannelMask
l7d:_XmlTextEncoder_get_AttributeValue_m3169434864
GOm:__ZN6il2cpp2vm4Type19GetGenericParameterEPK10Il2CppType
ADk:_ResourceReader__ReadResources_m215566279
gsi:_InternalEnumerator_1_get_Current_m2826780083_gshared
AEl:_Task_1_StartNew_m2115868853_gshared
SPj:_ChunkStream_get_ChunkLeft_m3001057228
qrh:_Array_InternalArray__ICollection_Remove_TisCustomAttributeNamedArgument_t94157543_m2838387005_gshared
Qud:__ZN5physx13BigConvexData5VLoadERNS_13PxInputStreamE
Jd:_glBeginQuery
G1i:_Assembly_GetCustomAttributes_m95309865
Ndl:_U3CU3Ec__cctor_m3187612089
k$e:_SortedList_GetKey_m107993602
Cqi:_InternalEnumerator_1_System_Collections_IEnumerator_get_Current_m4267217660_AdjustorThunk
yBk:_RuntimeMethodInfo_GetObjectData_m585156611
S8c:__ZN5physx11NodeManager6resizeEj
nxb:__ZN6Camera12RenderStereoENS_10RenderFlagE8CullFlagPNS_24PerformEyeRenderFunctionE
oqj:_RC4__ctor_m1585026462
Y7a:__ZN20LocalFileSystemPosix10ToAbsoluteEPKc
jza:__ZN20TierGraphicsSettings8TransferI19StreamedBinaryWriteILb0EEEEvRT_
Hxh:_Array_InternalArray__IndexOf_TisX509ChainStatus_t4278378721_m1338369069_gshared
wK:__GLOBAL__sub_I_runtime_input_0_cpp
q2c:__ZNK5physx7NpScene28getSceneQueryStaticTimestampEv
Um:f0
Qqj:_KeyPairPersistence__ctor_m1857048652
PHo:__ZL42EventInfo_t_CustomAttributesCacheGeneratorP21CustomAttributesCache
dUh:_TaskToApm_End_m1655855787
eXi:_GacIdentityPermission_FromXml_m487064581
CDd:__ZNSt3__26vectorI9CollisionNS_9allocatorIS1_EEE21__push_back_slow_pathIKS1_EEvRT_
Lka:__ZN25ThreadsafeLinearAllocatorD2Ev
HYb:__ZL50GetAndClearChangedTransformsForMultilpleSystemsJobP45GetChangedTransformsForMultipleSystemsJobDatajPK23TransformAccessReadOnlyPKyj
rad:__ZN5physx2Sq10AABBPruner11preallocateEj
GZa:__Z21SendMessageToEveryoneRK17MessageIdentifier11MessageData
XOh:_XsdValidator_LoadSchema_m2375064976
fU:__ZN21BillboardBatchManager16StaticInitializeEPv
UVm:__ZN6il2cpp2vm10Reflection27GetMonoGenericParameterInfoEPK22Il2CppGenericParameter
uM:__ZN12_GLOBAL__N_138ArchiveRedirectFileSystemStaticDestroyEPv
XHa:__ZN12CubemapArray34UpdateFileTextureUploadInstructionEP26FileAssetUploadInstructionj
R$c:__ZN5physx2Sc19ShapeInstancePairLLC2ERNS0_8ShapeSimES3_RNS0_9ActorPairENS_7PxFlagsINS_10PxPairFlag4EnumEtEE
hda:__Z23CreateSparseTextureGLES9TextureIDii14GraphicsFormati
_Jp:_emscripten_glStencilFunc__wrapper
Q1f:_Datatype_nonNegativeInteger_get_TypeCode_m3527320375
zln:_GC_continue_reclaim
uci:_InvalidCastException__ctor_m2730571470
eBe:_X509ChainElementCollection_System_Collections_IEnumerable_GetEnumerator_m2559704689
Vlh:_PublicKey_get_Key_m126090744
uPe:_UriTypeConverter__ctor_m3743725527
Zma:__ZN17ArchiveFileSystem10AddStorageEP20ArchiveStorageReader
CQc:__ZN5physx2Sc9ClothCore16setStretchConfigENS_22PxClothFabricPhaseType4EnumERKNS_20PxClothStretchConfigE
h9e:_DateTimeFormat_Format_m1582627805
V2c:__ZN5physx15PxsParticleData13onOriginShiftERKNS_6PxVec3E
jzm:__ZN6il2cpp2vm5Class15GetEnumBaseTypeEP11Il2CppClass
ZWg:_AsyncCausalityTracer_TraceOperationCreation_m3376453187
_Ia:__ZNK9Texture2D16GetNpotTexelSizeEv
aDe:_X509Helper2_GetMonoCertificate_m856848072
PAe:_XmlSchemaMinInclusiveFacet__ctor_m3075511773
IId:__ZN13dynamic_arrayItLj2EE6insertEPtPKtS3_
_ve:_XmlSchemaGroupBase__ctor_m2369132284
g5:__ZN9GfxDevice22GetDefaultVertexBufferE26GfxDefaultVertexBufferTypej
sil:_InternalEnumerator_1_get_Current_m1364852572_AdjustorThunk
mIp:_glGetActiveUniform__wrapper
wop:_sscanf
$mc:__ZN5physx3Cct17CapsuleControllerC2ERKNS_16PxControllerDescERNS_9PxPhysicsEPNS_7PxSceneE
lRa:__ZN14SafeBinaryRead21TransferSTLStyleArrayINSt3__26vectorI17BlendShapeChannelNS1_9allocatorIS3_EEEEEEvRT_17TransferMetaFlags
vtb:__Z17BeginSplashScreenv
Bvp:__ZNSt3__212basic_stringIwNS_11char_traitsIwEENS_9allocatorIwEEE6appendIPwEENS_9enable_ifIXaasr21__is_forward_iteratorIT_EE5valuesr38__libcpp_string_gets_noexcept_iteratorIS9_EE5valueERS5_E4typeES9_S9_
A3a:__ZN9ShaderLab16SerializedShader8TransferI19StreamedBinaryWriteILb0EEEEvRT_
F9g:_Datatype_char_Compare_m3519785558
L0e:_Stack_Pop_m3788808882
GLj:_TraceListenerCollection_Remove_m3313713630
XMf:_Environment_get_IsMacOS_m3527377232
P9e:_DateTime_op_Equality_m1867073872
N4:__ZN18GfxFramebufferGLES18GetFramebufferNameERK20GfxRenderTargetSetup
M7g:_Compiler_GetMappingParticle_m3397526482
C8f:_NamespaceListNode_ConstructPos_m1907758040
VNm:__ZN6il2cpp2vm14TypeNameParser12ParseVersionERKNSt3__212basic_stringIcNS2_11char_traitsIcEENS2_9allocatorIcEEEERtSB_SB_SB_
$kj:___BinaryParser_ReadObjectWithMap_m2090167292
xV:__ZN13PlayableGraph27SchedulePlayableDestructionERK9HPlayable
QYg:_Task_get_IsCompleted_m669578966
kjc:__ZN5physx6shdfnd5ArrayINS_12PxDebugPointENS0_19ReflectionAllocatorIS2_EEE15growAndPushBackERKS2_
hSd:__Z13RegisterClassI20UnityConnectSettingsEvv
Klp:_UpdateManager_get_PlayerUpdater_m2087858960
VAh:_Array_InternalArray__ICollection_Add_TisNamespace_t1808381789_m25605740_gshared
Pbb:__Z22scripting_array_length17ScriptingArrayPtr
Asg:_SecurityElement_GetAttribute_m4288291176
T8e:_DateTimeParse_MatchWord_m3902556592
bce:_XmlTextReaderImpl_get_DtdParserProxy_EntityStackLength_m2270583290
WBd:__ZN8Collider13AwakeFromLoadE17AwakeFromLoadMode
Urh:_Array_InternalArray__ICollection_Remove_TisMap_t2552390023_m1306601165_gshared
jIa:__ZN14SafeBinaryRead20TransferTypelessDataEjPvi
TFo:__ZL66StringFreezingAttribute_t2691375565_CustomAttributesCacheGeneratorP21CustomAttributesCache
iIe:_RegexCompiler_BltFar_m4006134061
K_d:_XmlElement_CloneNode_m2544333692
qRf:_CultureInfo_internal_get_cultures_m2614088836
oA:__ZN13dynamic_arrayI12SoundChannelLj4EE9push_backERKS0_
Ica:__Z19GetActiveColorSpacev
RRf:_CultureInfo_get_UserDefaultUICulture_m1870150362
CPj:_ChunkStream__ctor_m2666552004
oUe:_Char_System_IConvertible_ToUInt32_m1557991717_AdjustorThunk
fZi:_NumberFormatter_RoundBits_m1545255255
OL:__Z6StrCmpPKcS0_
e5a:__Z21CheckGpuProgramUsable20ShaderGpuProgramType
Jym:__ZN30dense_hashtable_const_iteratorINSt3__24pairIK10KeyWrapperIPK22Il2CppGenericParameterEP11Il2CppClassEES6_N6il2cpp5utils11PointerHashIS4_EEN14dense_hash_mapIS6_S9_SE_NS6_14EqualsComparerINS0_8equal_toIS5_EEEENS0_9allocatorISA_EEE9SelectKeyESJ_SL_EppEv
kFc:__ZN5physx6shdfnd5ArrayIPvNS0_19ReflectionAllocatorINS_2Cm5BlockIhLj128EEEEEE4copyINS0_15InlineAllocatorILj256ES7_EEEEvRKNS1_IS2_T_EE
LPe:_Attribute_GetHashCode_m2653962112
Ofg:_X509Chain_get_TrustAnchors_m3673637552
UEb:__ZNK15SharedLightData24GetFinalShadowResolutionEv
RIc:__ZN5physx6shdfnd8PoolBaseINS_16NpConnectorArrayENS0_19ReflectionAllocatorIS2_EEE15disposeElementsEv
NWa:__ZN12AspectRatios8TransferI18StreamedBinaryReadILb0EEEEvRT_
WId:__ZN14PhysicsManager19CreatePvdConnectionEv
Kjl:_InternalEnumerator_1_System_Collections_IEnumerator_get_Current_m1994409205_gshared
dWb:__ZN10GameObject14CopyPropertiesERS_
g9l:_X509CertificateEnumerator_MoveNext_m4060814498
gHf:_Array_InternalArray__IReadOnlyList_get_Item_TisKeyframe_t1449471340_m764890515_gshared
RNa:__ZNK13ScreenManager12IsFullScreenEv
app:_rand
_Fp:_emscripten_glFramebufferRenderbuffer__wrapper
gGe:_RegexParser__ctor_m2189499351
_Hc:__ZNK5physx12NpConstraint9getActorsERPNS_12PxRigidActorES3_
hJk:_HttpWebResponse_get_ResponseUri_m1762364973
hdn:__ZN6il2cpp5utils9PathUtils7CombineIcEENSt3__212basic_stringIT_NS3_11char_traitsIS5_EENS3_9allocatorIS5_EEEERKNS0_10StringViewIS5_EERKSA_
h5o:__ZL67SourceElementsCollection_t1050626936_CustomAttributesCacheGeneratorP21CustomAttributesCache
kof:_SerializationInfo_GetInt32_m4039439501
txd:__ZN5physx6shdfnd8PoolBaseIN17PxcPoolMallocData10PoolData16ENS0_19ReflectionAllocatorIS3_EEE15disposeElementsEv
f9n:__ZL88TIME_DYNAMIC_ZONE_INFORMATION_t2883369749_CustomAttributesCacheGenerator_TimeZoneKeyNameP21CustomAttributesCache
tBd:__ZN9Rigidbody23UpdateInterpolationNodeEv
wrp:__ZNSt3__26locale2id5__getEv
BGg:_TermInfoReader_GetString_m148713352
yni:_SyncTextWriter_WriteLine_m1533988802
qHb:__Z22PrepareOptimizedPlanesPK5PlaneiPKN4math7_float4E
$H:__ZN11UnityEngine15CloudWebService17WebFileDownloaderINS0_20WebRequestRestClientENS0_23WebRequestRestHeaderMapEE10InitializeERKN4core12basic_stringIcNS5_20StringStorageDefaultIcEEEE
dU:__ZN17UniqueIDGenerator15CreatePureIndexEv
Kin:__ZN6il2cpp2vm3CCW9CreateCCWEP12Il2CppObject
Zr:__ZN11UnityEngine9Animation28GenericAnimationBindingCache15DidReloadDomainEv
hpg:_AppDomain_InternalGetProcessGuid_m1278588156
Fyk:_MonoMethod_MakeGenericMethod_m3628255919
Cgj:_MonoMethodMessage__ctor_m2634034578
K4l:_CrossAppDomainChannel_get_ChannelPriority_m3276663196
HWl:_ConfigurationElement_ResetModified_m933170487
T0c:__ZN5physx7NpScene8addActorERNS_7PxActorE
CXa:__ZNSt3__26vectorIN15ResourceManager10DependencyE13stl_allocatorIS2_L18MemLabelIdentifier52ELi16EEE6assignINS_11__wrap_iterIPS2_EEEENS_9enable_ifIXaasr21__is_forward_iteratorIT_EE5valuesr16is_constructibleIS2_NS_15iterator_traitsISC_E9referenceEEE5valueEvE4typeESC_SC_
Qeh:_SocketAsyncResult_Complete_m3032125426
ktn:__Z116RuntimeInvoker_Boolean_t3825574718_RuntimeObject_Int32_t2071877448_RuntimeObject_Int32_t2071877448_Int32_t2071877448PFvvEPK10MethodInfoPvPS4_
hag:_RangeContentValidator_ExpectedParticles_m1251067262
idi:_BinaryReader_ReadBoolean_m2892291883
b9e:_DateTime_ToFileTime_m1401286571_AdjustorThunk
yym:__ZN15dense_hashtableINSt3__24pairIK10KeyWrapperIPK22Il2CppGenericParameterEP11Il2CppClassEES6_N6il2cpp5utils11PointerHashIS4_EEN14dense_hash_mapIS6_S9_SE_NS6_14EqualsComparerINS0_8equal_toIS5_EEEENS0_9allocatorISA_EEE9SelectKeyESJ_SL_E14squash_deletedEv
Ugf:_ObjectReader_CreateReadObjectInfo_m3655328261
svl:_InternalEnumerator_1_System_Collections_IEnumerator_get_Current_m1537547841_gshared
Q7e:_DateTime_System_Runtime_Serialization_ISerializable_GetObjectData_m3063838665_AdjustorThunk
EUb:__ZZL23RegisterLightPropertiesR22GenericPropertyBindingEN18Wrapper_LightRange13SetFloatValueEPvf
Zwj:_TlsServerCertificate_validateCertificates_m1988583701
SCp:dynCall_viififi
vKj:_SourceElement_get_Name_m2862367819
XIj:_DiagnosticsConfiguration_get_IndentSize_m2823148493
rsg:_SecurityElement_get_Attributes_m3244705680
sce:_XmlTextReaderImpl_DtdParserProxy_OnSystemId_m1596356439
Vuf:_HopToThreadPoolAwaitable_GetAwaiter_m2856229444_AdjustorThunk
vta:__ZNK9Transform18TransformDirectionERK8Vector3f
mtd:__ZN5physx21PxsBodyTransformVault6updateEv
Ukf:_SerializationHeaderRecord_Read_m4211855730
nLp:_emscripten_glClearStencil__wrapper
o8g:_ContentValidator__ctor_m3711408011
ebc:__ZL29GeomMTDCallback_CapsuleConvexRN5physx6PxVec3ERfRKNS_10PxGeometryERKNS_11PxTransformES5_S8_
k8e:_DateTime_IsAmbiguousDaylightSavingTime_m3462643651_AdjustorThunk
d8g:_Compiler_CompileLocalAttributes_m422996348
YEm:__ZN15dense_hashtableINSt3__24pairIK10KeyWrapperIPK11Il2CppClassEPKcEES6_N6il2cpp5utils11PointerHashIS3_EEN14dense_hash_mapIS6_S9_SE_NS6_14EqualsComparerINS0_8equal_toIS5_EEEENS0_9allocatorISA_EEE9SelectKeyESJ_SL_E12resize_deltaEjj
Uzp:__ZNK10__cxxabiv120__si_class_type_info27has_unambiguous_public_baseEPNS_19__dynamic_cast_infoEPvi
PDp:_glTexSubImage3D__wrapper
f5:__Z30AddDefaultStreamsToMeshBuffersR9GfxDeviceR11MeshBuffersj17ShaderChannelMaskS3_
YL:__ZL16GetInterfaceImpl18UnityInterfaceGUID
OWf:_RegionInfo_construct_internal_region_from_name_m3316088619
Czm:__ZN6il2cpp2vmL17SetupFieldOffsetsENS0_15FieldLayoutKindEP11Il2CppClassjRKNSt3__26vectorIjNS4_9allocatorIjEEEE
I3h:_UInt16_Parse_m3560204090
Xgn:__ZN6il2cpp6icalls8mscorlib6System15MonoCustomAttrs27GetCustomAttributesInternalEP12Il2CppObjectP20Il2CppReflectionTypeb
OWe:_ReadOnlyArrayList_ToArray_m4108054600
PDk:_ResourceReader_GetValueForNameIndex_m711285602
M2:__Z24PluginsSetGraphicsDevicePvi18GfxDeviceEventType
zK:__GLOBAL__sub_I_runtime_math_random_0_cpp
Rwn:__Z88RuntimeInvoker_Boolean_t3825574718_TransitionTime_t3441274853_TransitionTime_t3441274853PFvvEPK10MethodInfoPvPS4_
rjh:_WebProxy_GetProxyAuto_m229067655
iTj:_CookieContainer__cctor_m1826135890
Gtb:__ZN14PreloadManager35WaitForAllAsyncOperationsToCompleteEv
jWc:__ZN5physx14NpRigidDynamicC2ERKNS_11PxTransformE
Tec:__Z27sweepCCTBox_HeightFieldGeomRKN5physx10PxGeometryERKNS_11PxTransformERKNS_2Gu3BoxERKNS_6PxVec3EfRNS_10PxSweepHitENS_7PxFlagsINS_9PxHitFlag4EnumEtEEf
yip:_Vector2_GetHashCode_m801363174
qv:__ZL31InitializeAudioScriptingClassesv
Sol:_InternalEnumerator_1_get_Current_m3939996428_AdjustorThunk
Dyb:__Z14SortGUIByDepthP10GUIElementS0_
nxi:_Enumerator_System_Collections_IDictionaryEnumerator_get_Key_m4126695840_AdjustorThunk
Qcf:_Decimal__ctor_m407612739_AdjustorThunk
uej:_LogicalCallContext__ctor_m3173272863
fxm:_Physics_Raycast_m1646062349
Oac:__ZN5physx3Cct9SweepTest18updateTouchedGeomsEPKNS0_30InternalCBData_FindTouchedGeomERKNS0_13UserObstaclesERKNS_17PxExtendedBounds3ERKNS_19PxControllerFiltersERKNS_6PxVec3E
bwm:_CustomEventData_AddChar_m2955651223
Spi:_MonoCustomAttrs__cctor_m2608447972
Lui:_ConcurrentDictionary_2_System_Collections_Generic_IDictionaryU3CTKeyU2CTValueU3E_Add_m348547761_gshared
uGd:_PxCloseExtensions
y8a:__ZNK20LocalFileSystemPosix21GetAvailableDiskSpaceEPKcRy
fL:__ZNSt3__26__treeIiNS_4lessIiEENS_9allocatorIiEEE7destroyEPNS_11__tree_nodeIiPvEE
pEj:_PropertyDescriptorCollection_InternalSort_m736852018
qmh:_X509Certificate2__ctor_m1095336775
DIe:_RegexCompiler_GenerateOneCode_m3401400535
Azk:_MonoProperty_GetGetMethod_m1100580870
Gpi:_MonoCustomAttrs_RetrieveAttributeUsageNoCache_m2407587183
O6a:__Z19scripting_array_new17ScriptingClassPtrjj
cA:__ZN11SoundHandle13CreateChannelEb
AKa:__ZN14SafeBinaryRead21TransferSTLStyleArrayI13dynamic_arrayI12LightmapDataLj4EEEEvRT_17TransferMetaFlags
Vpg:_ArgumentException__ctor_m3312963299
Z1a:__ZNSt3__26vectorIN9ShaderLab20SerializedSubProgram16TextureParameterENS_9allocatorIS3_EEE6assignIPS3_EENS_9enable_ifIXaasr21__is_forward_iteratorIT_EE5valuesr16is_constructibleIS3_NS_15iterator_traitsISA_E9referenceEEE5valueEvE4typeESA_SA_
CDm:__ZN13Il2CppHashMapIN6il2cpp5utils13dynamic_arrayIPK10Il2CppTypeLj4EEEPFvvENS0_8metadata19Il2CppSignatureHashENS9_22Il2CppSignatureCompareENSt3__29allocatorINSC_4pairIK10KeyWrapperIS6_ES8_EEEEEC2EjRKSA_RKSB_
gSi:_SHA256Managed_sigma_1_m2498954277
tUm:__ZN15dense_hashtableINSt3__24pairIK10KeyWrapperIPK22Il2CppGenericParameterEPK24MonoGenericParameterInfoEES6_N6il2cpp5utils11PointerHashIS4_EEN14dense_hash_mapIS6_SA_SF_NS6_14EqualsComparerINS0_8equal_toIS5_EEEENS0_9allocatorISB_EEE9SelectKeyESK_SM_E15set_deleted_keyERKSB_
OJh:_XsdBuilder__ctor_m3775111562
LOb:__ZN6prcoreL11inner_clearILj2EEEvPhjjj
tDi:_Enumerator_MoveNext_m820976778_AdjustorThunk
FPe:_Attribute_GetCustomAttributes_m3188023331
w9j:_Enumerator_System_Collections_IEnumerator_get_Current_m2853089017_AdjustorThunk
oQc:__ZNK5physx2Sc9ClothCore20getNbCollisionPlanesEv
bh:_emscripten_exit_fullscreen
svd:__ZNK5physx13GuMeshFactory17getNbHeightFieldsEv
a2l:_GCHandle_Free_m1639542352_AdjustorThunk
FVj:_FtpDataStream_BeginRead_m3442528438
abk:_Enumerator_System_Collections_IEnumerator_Reset_m2023954240_AdjustorThunk
R5g:_BaseProcessor_SendValidationEvent_m4242715233
R7b:__Z29Transfer_Blittable_ArrayFieldI8JSONRead11QuaternionfEvRT_R9ArrayInfoRK23StaticTransferFieldInfo
TCo:__ZL65SoapParameterAttribute_t2780084514_CustomAttributesCacheGeneratorP21CustomAttributesCache
Fad:__ZNK5physx2Gu12OBBAABBTestsILb1EEclENS_6shdfnd3aos5Vec3VES5_
GTb:__ZNK24RendererAnimationBinding15GenerateBindingERKN4core12basic_stringIcNS0_20StringStorageDefaultIcEEEEbRN11UnityEngine9Animation14GenericBindingE
$xa:__Z15GetFlareManagerv
lhp:_HitInfo_op_Implicit_m3551745410
s_e:_Queue_Clone_m1124962851
QDf:_Array_InternalArray__get_Item_TisKeyValuePair_2_t1483742713_m2122760261_gshared
Hmp:___toread
Orb:__ZNSt3__26vectorI10vector_mapIiiNS_4lessIiEE13stl_allocatorINS_4pairIiiEEL18MemLabelIdentifier38ELi16EEES4_IS9_LS7_38ELi16EEE26__swap_out_circular_bufferERNS_14__split_bufferIS9_RSA_EE
bUf:_DateTimeFormatInfoScanner_AddDateWords_m1778969177
kTn:__Z82RuntimeInvoker_RuntimeObject_Int32_t2071877448_Int16_t4041245914_Int32_t2071877448PFvvEPK10MethodInfoPvPS4_
XSm:__ZN15dense_hashtableINSt3__24pairIK10KeyWrapperINS1_IPK9EventInfoP11Il2CppClassEEEjEES9_17ReflectionMapHashIS8_EN14dense_hash_mapIS9_jSD_NS9_14EqualsComparerINS0_8equal_toIS8_EEEENS0_9allocatorISB_EEE9SelectKeyESI_SK_E12maybe_shrinkEv
Vvm:_UnityAnalyticsHandler_InternalCreate_m427483392
Yba:__ZN4gles20DestroyRenderSurfaceEP7ApiGLESP17RenderSurfaceGLES
cxi:_Enumerator_MoveNext_m1671207978_gshared
Lif:_ObjectReader_NextRectangleMap_m2179789702
v9j:_Enumerator_System_Collections_IEnumerator_get_Current_m2853089017_gshared
ken:__ZN6il2cpp2os6Thread4JoinEj
Xxp:__ZNSt3__26locale5__imp7installINS_7num_putIcNS_19ostreambuf_iteratorIcNS_11char_traitsIcEEEEEEEEvPT_
y8k:_ReadOnlyCollection_1_System_Collections_IEnumerable_GetEnumerator_m1025011433_gshared
EWh:_Timer_Change_m1589925050
hle:_SchemaElementDecl_GetAttDef_m3692193106
uZo:__ZL126XmlSchemaSimpleTypeUnion_t91327365_CustomAttributesCacheGenerator_XmlSchemaSimpleTypeUnion_t91327365____BaseTypes_PropertyInfoP21CustomAttributesCache
lja:__ZN17PersistentManager40GlobalToLocalSerializedFileIndexInternalERK26SerializedObjectIdentifier
aF:__ZN11UnityEngine15CloudWebService17SessionEventQueue14ParseEventDataERKN4core12basic_stringIcNS2_20StringStorageDefaultIcEEEE
blj:___BinaryParser_ReadMethodObject_m2155521955
KIe:_RegexCompiler_ReadyPushStack_m3578476918
xQ:__ZNK14dense_hash_mapIPKcPK4RTTIN11TypeManager23ConstCharPtrHashFunctorENS5_19ConstCharPtrEqualToE13stl_allocatorINSt3__24pairIKS1_S4_EEL18MemLabelIdentifier7ELi16EEE5beginEv
AHc:__ZN12GeomQueryAnyIN5physx10PxSweepHitEE7geomHitERKNS0_2Sq17SceneQueryManagerERKNS0_15MultiQueryInputERKNS3_9ShapeDataERKNS0_10PxGeometryERKNS0_11PxTransformENS0_7PxFlagsINS0_9PxHitFlag4EnumEtEEjPS1_fbPNS0_9PxBounds3E
d3:__ZN13TranslateGLES4InitERK12GraphicsCaps16GfxDeviceLevelGL
Rre:_XmlAtomicValue_get_ValueAsDouble_m2199427473
jdc:__ZN43CapsuleHeightfieldContactGenerationCallback7onEventEjPj
PCd:__ZThn4_N12MemoryStream4readEPvj
qof:_SerializationInfoEnumerator_Reset_m2206466680
Tyf:_Array_qsort_TisRegexOptions_t2418259727_m4207644620_gshared
ENk:_ServerCertValidationCallback__ctor_m230802396
TVk:_Enumerator__ctor_m677001007_gshared
YFp:_emscripten_glGetShaderPrecisionFormat__wrapper
PMd:__Z32CustomEventData_CUSTOM_AddUInt32P12Il2CppObjectP12Il2CppStringj
N1i:_Assembly_GetType_m2805031155
Cpn:__ZN6il2cpp5utils9Exception26FormatInvalidCastExceptionEPK11Il2CppClassS4_
PRb:__ZN13ProduceHelperI10TagManagerLb0EE7ProduceE18MemLabelIdentifier18ObjectCreationMode
Cue:_XmlDateTimeConverter_ToString_m4240374186
jqn:__ZN6il2cpp2os6Memory12AlignedAllocEjj
DNj:_GZipStream__ctor_m3019216668
BMl:_Dictionary_2_get_Item_m624719168_gshared
cjn:__ZN6il2cpp8metadataL7CompareEPK10Il2CppTypeS3_
Ddp:__ZL52Rigidbody_t4233889191_CustomAttributesCacheGeneratorP21CustomAttributesCache
Qrj:_RSAManaged__ctor_m1370411656
dVi:_X509CertificateImplApple_GetSubjectName_m3097245185
gnb:__Z18Transfer_BlittableI18StreamedBinaryReadILb0EELb1E10ColorRGBAfEvRK29SerializationCommandArgumentsR31RuntimeSerializationCommandInfo
lSe:_Byte_TryParse_m3806590295
kZb:__ZL27GetComponentsImplementationILb0ELi0EEbR10GameObjectbRK17CompareParametersRK39GetComponentsImplementation_ReturnValue
Yih:_WebHeaderCollection_GetObjectData_m3940120977
uqb:__ZN9Scripting36IsSystemCollectionsGenericDictionaryE17ScriptingClassPtr
KKj:_Switch__cctor_m1094090392
kGc:__ZN5physx12NpConstraint12actorDeletedEPNS_12PxRigidActorE
otp:__ZNKSt3__220__time_get_c_storageIcE3__xEv
yAh:_Array_InternalArray__ICollection_Add_TisInternalPrimitiveTypeE_t3020811655_m2425484145_gshared
ER:__ZL16ReadTypeTreeImplILb0EEbR8TypeTreeRK16TypeTreeIteratorRPKhS6_i
NSe:_Byte_System_IConvertible_ToInt32_m1032609763_AdjustorThunk
Ael:_SimpleCollator_CompareFlagPair_m1777501184
D$o:__ZL115ConfigurationSection_t2600766927_CustomAttributesCacheGenerator_ConfigurationSection_DeserializeSection_m1139223106P21CustomAttributesCache
Woc:__ZN5physx2Sc8ShapeSim18reinsertBroadPhaseEv
KCa:__ZNK22BuiltinResourceManager21GetResourceInstanceIDEPKN5Unity4TypeERKN4core12basic_stringIcNS4_20StringStorageDefaultIcEEEE
qnf:_SafeSerializationManager_System_Runtime_Serialization_ISerializable_GetObjectData_m3011023642
_te:_XmlBaseConverter_DecimalToInt32_m1869631194
gxn:__Z144RuntimeInvoker_Int32_t2071877448_RuntimeObject_RuntimeObject_RuntimeObject_RuntimeObject_RuntimeObject_RuntimeObject_RuntimeObject_RuntimeObjectPFvvEPK10MethodInfoPvPS4_
BEc:__ZN5physx2Sc5Scene11removeShapeERNS0_8ShapeSimEb
Zrn:__ZN6il2cpp6icalls8mscorlib6System7Runtime8Remoting8Contexts7Context15RegisterContextEP12Il2CppObject
IAb:__ZN28LightProbeProxyVolumeContext8CopyFromERKS_
dLm:__Z60ves_icall_System_Threading_ThreadPool_NotifyWorkItemCompletev
Zra:__ZN23TransformChangeDispatch32QueueTransformChangeIfHasChangedER18TransformHierarchy
dXh:_WaitHandle_WaitAny_internal_m2562309934
Zba:__ZN7ApiGLES18DeleteRenderbufferERj
Gsc:__ZN5physx6shdfnd5ArrayIPvNS0_15InlineAllocatorILj256ENS0_19ReflectionAllocatorINS_16NpConnectorArrayEEEEEE15growAndPushBackERKS2_
Daa:__ZL23ProgramUniformMatrix4fvPK7ApiGLESjiihPKv
jca:__ZN7ApiGLES13CreateTextureEjj14GraphicsFormatiiiii
iUb:__ZN13ProduceHelperI11LightProbesLb0EE7ProduceE18MemLabelIdentifier18ObjectCreationMode
qid:__ZN5physx14SingleAABBTaskC2Ev
H1a:__ZN9ShaderLab20SerializedSubProgram15MatrixParameter8TransferI14SafeBinaryReadEEvRT_
mZb:__ZL27GetComponentsImplementationILb0ELi1EEbR10GameObjectbRK17CompareParametersRK39GetComponentsImplementation_ReturnValue
j2:__ZN13RenderTexture7ReleaseEv
zAk:_Pointer_System_Runtime_Serialization_ISerializable_GetObjectData_m4103721774
o5b:__Z18Transfer_BlittableI8JSONReadLb1EN4math12int3_storageEEvRK29SerializationCommandArgumentsR31RuntimeSerializationCommandInfo
uSa:__ZN10MeshFilter23VirtualRedirectTransferER14SafeBinaryRead
YGf:_Array_InternalArray__IReadOnlyList_get_Item_TisXmlTypeCode_t58293802_m2731152689_gshared
NLh:_XsdBuilder_BuildAttributeGroup_Name_m1899143316
T2e:_Convert_ToByte_m1201588964
ESa:__ZN12MeshRenderer17MainThreadCleanupEv
VUf:_GregorianCalendar_ToFourDigitYear_m1664347424
nzm:__ZN6il2cpp2vmL10InitLockedEP11Il2CppClassRKNS_2os12FastAutoLockE
ufa:__ZN22CreateGpuProgramOutput12CreateParamsEv
Xag:_SchemaCollectionCompiler_CompileSubstitutionGroup_m1959774783
bDc:__ZNK5physx18NpArticulationLink11getChildrenEPPNS_18PxArticulationLinkEj
i4l:_ActivationServices_AllocateUninitializedClassInstance_m3410698501
tsg:_PublisherIdentityPermission_Cast_m2553252527
V2:__ZNK14GfxContextGLES13GetDefaultFBOEv
cLk:_IPAddressCollection_Contains_m273604859
xjn:_GC_promote_black_lists
sug:_SiteIdentityPermission_Intersect_m1786553301
Hrh:_Array_InternalArray__ICollection_Remove_TisSByte_t454417549_m2474211570_gshared
JMi:_HashAlgorithmName_t1682985260_marshal_pinvoke_back
Akk:_List_1_RemoveAll_m4219497792_gshared
bGf:_Array_InternalArray__IReadOnlyList_get_Item_TisInternalCodePageDataItem_t1742109366_m2517112882_gshared
Lqd:__Z15atomIntegrationfPKPN5physx11PxsBodyCoreEPKPNS_12PxsRigidBodyEjPKNS_2Cm13SpatialVectorEPNS_13PxcSolverBodyEPNS_17PxcSolverBodyDataEPS9_RjSH_
ZIi:_Dictionary_2_System_Collections_IDictionary_Remove_m4168212840_gshared
eMm:_il2cpp_class_is_enum
vYm:__ZN6il2cpp2vm6Thread49CheckCurrentThreadForInterruptAndThrowIfNecessaryEv
fva:__ZNSt3__23mapIN9ShaderLab16FastPropertyNameEN18UnityPropertySheet11UnityTexEnvENS_4lessIS2_EENS_9allocatorINS_4pairIKS2_S4_EEEEEixERS9_
nba:__ZNK13TranslateGLES25GetTextureTargetDimensionEj
Iwc:__ZN5physx11NpAggregate22removeActorAndReinsertERNS_7PxActorEb
lyd:__ZZL19ExtractHullPolygonsRjRN5physx2Gu9ContainerERKNS0_17ConvexHullBuilderEPS2_S3_EN5Local9FloodFillES3_PKNS0_11AdjTriangleEjPb
xpj:_ModulusRing_Multiply_m3113924743
xN:__ZN9Scripting12LogExceptionE21ScriptingExceptionPtriPKcb
Y9f:_Preprocessor_GetParentSchema_m551371976
dj:_emscripten_glVertexAttrib4f
C2k:_ReadOnlyCollection_1_System_Collections_IEnumerable_GetEnumerator_m531171980_gshared
mLe:_RegexRunner_IsBoundary_m1473648497
SRa:__ZN10Matrix4x4f8TransferI19StreamedBinaryWriteILb0EEEEvRT_
B_l:_PropertyInformationCollection_GetEnumerator_m2342156100
nXd:_XmlDocument_CloneNode_m3521203409
jye:_XmlSchemaComplexType_SetAttributeWildcard_m809646719
To:FUNCTION_TABLE_vf
qzc:__ZN5physx14NpArticulation26setMaxProjectionIterationsEj
qmc:__ZN5physx3Cct15ObstacleContext14removeObstacleEj
gXh:_WaitHandle__ctor_m1256161634
p1h:_Type_GetMethod_m1930231379
x0:__ZN9GfxDevice18SetGlobalDepthBiasEff
Nip:_Vector3_get_normalized_m1057036856
J0f:_DatatypeImplementation_Compare_m4228143089
rj:_emscripten_glGetPointerv
zHe:_RegexCharClass_AddDigit_m980847912
cgp:_Ray_get_origin_m1676163607
u_d:_XmlDownloadManager_GetNonFileStreamAsync_m3329548055
mtb:__Z26ApplyMaterialPassWithCacheRK18SharedMaterialDataR17ShaderPassContextP6ShaderPN9ShaderLab4PassEibPKNS6_10GrabPassesEPNS6_11SubProgramsEPK22DeviceRenderStateBlock
$Ed:__ZN5physx7profile8ZoneImplINS_28PxProfileNameProviderForwardEE17handleBufferFlushEPKhj
e9f:_Parser_LoadAttributeNode_m3731814113
xcj:_Lease_set_SponsorshipTimeout_m1892549099
jqm:__ZL24UnresolvedVirtualCall_91P12Il2CppObjectS0_S0_iS0_S0_S0_PK10MethodInfo
htp:__ZNKSt3__28time_getIcNS_19istreambuf_iteratorIcNS_11char_traitsIcEEEEE11do_get_yearES4_S4_RNS_8ios_baseERjP2tm
Fwc:__ZN5physx2Sc5ActorC2ERNS0_16InteractionSceneEhNS0_14IslandNodeInfo4TypeE
R8e:_DateTimeParse_GetTimeZoneName_m1220782145
hpn:__ZNSt3__26__treeINS_12__value_typeINS_12basic_stringIcNS_11char_traitsIcEENS_9allocatorIcEEEEPFvvEEENS_19__map_value_compareIS7_SA_NS_4lessIS7_EELb1EEENS5_ISA_EEE16__construct_nodeIJRKNS_21piecewise_construct_tENS_5tupleIJOS7_EEENSL_IJEEEEEENS_10unique_ptrINS_11__tree_nodeISA_PvEENS_22__tree_node_destructorINS5_ISS_EEEEEEDpOT_
GJj:_EventLog_Dispose_m2616880507
uwm:_CustomEventData_InternalDestroy_m3784703600
POi:_RandomNumberGenerator_Create_m2275686895
E3m:__ZN30dense_hashtable_const_iteratorINSt3__24pairIK10KeyWrapperIP14Il2CppIUnknownEjEES5_N6il2cpp5utils11PointerHashIS3_EEN14dense_hash_mapIS5_jSB_NS5_14EqualsComparerINS0_8equal_toIS4_EEEENS0_9allocatorIS7_EEE9SelectKeyESG_SI_EppEv
nRc:__ZN5physx15NpActorTemplateINS_7PxClothEED2Ev
H8i:_ILGenerator_target_len_m1964456727
l7e:_DateTime_Add_m2721963937
SPc:__ZN5physx2Sc9ClothCore16setRestPositionsEPKNS_6PxVec4E
wAp:__ZNSt8bad_castC2Ev
Qza:__Z27ConvertSubMeshesToTrianglesR13dynamic_arrayI7SubMeshLj4EERS_ItLj2EE
Rmh:_X509Certificate2Collection__ctor_m819526826
LQi:_RSACryptoServiceProvider_GetHashNameFromOID_m1617433214
b1h:_Type_MakeArrayType_m63838788
wng:___DTString_MatchLongestWords_m670456305_AdjustorThunk
Yu:__ZN12AudioManager5ResetEv
pqj:_ARC4Managed_Finalize_m4206406046
yqj:_KeyBuilder_Key_m3814433741
Wpg:_ArgumentException__ctor_m158205422
Gsg:_SecurityElement_Unescape_m1089723634
lzg:_FirstMatchCodeGroup_CopyNoChildren_m1764349030
m9:__ZN6prcoreL17RemapGenericFloatI17TexFormatRGBAHalf15TexFormatRGHalfEEvPKNS_9InnerInfoE
krh:_Array_InternalArray__ICollection_Remove_TisHeaderVariantInfo_t2058796272_m2267970270_gshared
$mf:_OptionalFieldAttribute__ctor_m1631641277
a7e:_DateTime__ctor_m3153923094
edn:__ZN6il2cpp6icalls8mscorlib6System11Environment20GetWindowsFolderPathEi
uqh:_Array_InternalArray__ICollection_Remove_TisXPathNode_t3118381855_m2146645897_gshared
bNe:_UriHelper_IsReservedUnreservedOrHash_m375934092
O4a:__ZN9ShaderLab20SerializedSubProgram15AddTextureParamEPKcii16TextureDimension
wjo:__ZL72Enum_t2459695545_CustomAttributesCacheGenerator_Enum_ToObject_m275924358P21CustomAttributesCache
pvo:__ZL99FileIOPermission_t3702443043_CustomAttributesCacheGenerator_FileIOPermission_GetHashCode_m540449549P21CustomAttributesCache
afc:__ZNK5physx2Gu15HeightFieldUtil12traceSegmentI24ConvexVsHeightfieldSweepLb0ELb0ELb1EEEvRKNS_6PxVec3ES6_PT_PS5_
j7f:_FacetsCompiler_CheckValue_m2836626566_AdjustorThunk
Wud:__ZNK5physx12PxConvexMesh19getConcreteTypeNameEv
KYf:_TimeSpanParse_Parse_m1825338314
GSa:__ZNK12MeshRenderer22GetTypeVirtualInternalEv
cYi:_KeyContainerPermissionAccessEntryCollection_IndexOf_m417606575
Bfc:__ZN5physx2Gu19gjkLocalPenetrationINS0_9TriangleVENS0_17ShrunkConvexHullVEEEjRKT_RKT0_RKNS_6shdfnd3aos6FloatVERNSB_5Vec3VESG_SG_RSC_PhSI_Rhb
sTh:_TaskExceptionHolder_MarkAsUnhandled_m919241615
g_b:__Z32Behaviour_Get_Custom_PropEnabledP12Il2CppObject
nRh:_XmlAttributeCollection_get_ItemOf_m177692376
hhc:__ZN5physx2Gu15GJKLocalRayCastERNS0_9TriangleVERNS0_4BoxVERKNS_6shdfnd3aos6FloatVERKNS6_5Vec3VESC_RS7_RSA_SE_fb
Uoc:__ZN5physx2Sc13ShapeIterator4initERKNS0_8ActorSimE
zFa:__ZN14SafeBinaryRead19TransferSTLStyleMapINSt3__23mapIN4core12basic_stringIcNS3_20StringStorageDefaultIcEEEES7_NS1_4lessIS7_EE13stl_allocatorINS1_4pairIKS7_S7_EEL18MemLabelIdentifier1ELi16EEEEEEvRT_17TransferMetaFlags
a1h:_Type_MakeByRefType_m1323101575
gF:__ZN11UnityEngine15CloudWebService16SessionContainer21PrepareDataErrorEventERN4core12basic_stringIcNS2_20StringStorageDefaultIcEEEE
sOb:__ZN12TLSAllocatorI14StackAllocatorEC2EPKc
mMk:_Win32NetworkInterface2_GetIfEntry_m3799443605
njb:__Z19TransferField_ArrayI19StreamedBinaryWriteILb0EE27Converter_SimpleNativeClassI8GUIStyleEEvRK23StaticTransferFieldInfoR31RuntimeSerializationCommandInfoRT0_
SKc:__ZN5physx14NpArticulationC2Ev
bIp:_emscripten_glCopyTexSubImage2D__wrapper
V7m:__ZN15dense_hashtableINSt3__24pairIK10KeyWrapperIP12Il2CppObjectEN6il2cpp2gc9CachedCCWEEES5_NS7_5utils11PointerHashIS3_EEN14dense_hash_mapIS5_S9_SD_NS5_14EqualsComparerINS0_8equal_toIS4_EEEENS0_9allocatorISA_EEE9SelectKeyESI_SK_E11set_deletedER30dense_hashtable_const_iteratorISA_S5_SD_SM_SI_SK_E
MIg:_DecoderReplacementFallbackBuffer_InternalFallback_m3574261033
Rjj:_RemotingServices_RegisterInternalChannels_m1827304423
c5b:__Z35Transfer_Blittable_FixedBufferFieldI8JSONReadiEvRK29SerializationCommandArgumentsR31RuntimeSerializationCommandInfo
sgh:_WebRequest_Create_m274268363
VKh:_XsdBuilder_BuildAttribute_Type_m1031980508
_kp:_Map_Uncover_m2947067628
Dmn:__ZN6il2cpp2vm6Random19TryGetUnsignedInt32EPPvPjjj
gUn:__Z77RuntimeInvoker_RuntimeObject_Int32_t2071877448_RuntimeObject_SByte_t454417549PFvvEPK10MethodInfoPvPS4_
qUh:_ThreadPool_UnsafeQueueCustomWorkItem_m806194118
pc:invoke_viiffi
f1l:_TypeDependencyAttribute__ctor_m427336407
XRi:_Utils_DWORDToBigEndian_m2058289376
RLb:__ZN13sorted_vectorINSt3__24pairIN4core12basic_stringIcNS2_20StringStorageDefaultIcEEEEPK17MessageIdentifierEEN10vector_mapIS6_S9_NS0_4lessIS6_EENS0_9allocatorISA_EEE13value_compareESF_E10insert_oneERKSA_
dPn:__Z119RuntimeInvoker_Void_t1841601450_RuntimeObject_RuntimeObject_RuntimeObject_RuntimeObject_RuntimeObject_Int32_t2071877448PFvvEPK10MethodInfoPvPS4_
dBk:_RuntimeConstructorInfo_GetObjectData_m2960303470
e_m:__ZTv0_n12_NSt3__218basic_stringstreamIcNS_11char_traitsIcEENS_9allocatorIcEEED1Ev
DLe:_RegexNode__ctor_m3450637480
ZWj:_CFNetwork_CFNetworkCopySystemProxySettings_m1446309482
z2a:__Z14resize_trimmedINSt3__26vectorIN9ShaderLab18SerializedPropertyENS0_9allocatorIS3_EEEEEvRT_j
LGo:__ZL67UnsafeValueTypeAttribute_t1767622487_CustomAttributesCacheGeneratorP21CustomAttributesCache
e0c:__ZN5physx6shdfnd8PoolBaseINS_2Sc9ActorPairENS0_19ReflectionAllocatorIS3_EEE12allocateSlabEv
eTe:_Byte_System_IConvertible_ToDateTime_m1583041031
FRj:_WebRequestModuleElement_get_Properties_m808512222
KOa:__ZN10VertexData8TransferI24GenerateTypeTreeTransferEEvRT_
ybg:_SchemaCollectionCompiler_CompileBaseMemberTypes_m2130492194
Hen:__ZN13Il2CppHashMapIPK19Il2CppGenericMethodP10MethodInfoN6il2cpp8metadata23Il2CppGenericMethodHashENS6_26Il2CppGenericMethodCompareENSt3__29allocatorINS9_4pairIK10KeyWrapperIS2_ES4_EEEEEC2EjRKS7_RKS8_
NGb:__ZL10CullLightsRK22SceneCullingParametersR11CullResults
Arg:_Array_IndexOf_m2819632474
_zg:_StrongNameMembershipCondition__ctor_m1991913659
sxi:_Enumerator_MoveNext_m2770956757_gshared
h1c:__ZN5physx7NpScene21setDominanceGroupPairEhhRKNS_20PxDominanceGroupPairE
FOb:__Z40GetTemporaryCachePathApplicationSpecificv
E_:__ZN9GfxDevice16EndAsyncJobFrameEv
zen:__Z15poll_event_waitPFviiPvES_
D6e:_Convert_ToBase64String_m1936815455
Ppf:_RuntimeType_GetFields_native_m3301143729
jl:___syscall3
ml:___syscall6
ol:___syscall4
fG:__ZN11UnityEngine15CloudWebService20WebRequestRestClient17GetResponseStatusEv
jYj:_DnsHeader_get_RCode_m3627868907
$Pe:_BadImageFormatException__ctor_m3033778262
YLg:_EncodingCharBuffer_get_BytesUsed_m1961903496
fBf:_Array_SortImpl_TisUInt64_t2909196914_m3279331031_gshared
t9a:__ZNSt3__26__treeINS_12__value_typeIN4core12basic_stringIcNS2_20StringStorageDefaultIcEEEEPN16MemoryFileSystem4NodeEEENS_19__map_value_compareIS6_SA_NS_4lessIS6_EELb1EEE13stl_allocatorISA_L18MemLabelIdentifier55ELi16EEE7destroyEPNS_11__tree_nodeISA_PvEE
F0f:_Datatype_hexBinary_get_ListValueType_m1489953231
O7m:__ZN6il2cpp2vm3RCW14QueryInterfaceILb1EEEP14Il2CppIUnknownP15Il2CppComObjectRK10Il2CppGuid
v8b:__ZN27PerformanceReportingManager23VirtualRedirectTransferER14SafeBinaryRead
bDj:_EventDescriptorCollection_System_Collections_IList_Add_m3160558838
UNj:_GZipStream_BeginWrite_m2614829976
R_:__ZN9GfxDevice27UpdateComputeSkinPoseBufferE15ComputeBufferIDP12SkinMeshInfo
sCi:_KeyCollection_GetEnumerator_m2354136082_gshared
Dl:_emscripten_glShaderBinary
ebj:_OpCode_Equals_m3738130494
q8a:__ZNK20LocalFileSystemPosix6ExistsERK13FileEntryData
Luc:__ZN5physx35NpArticulationJointGetBodiesFromScbERNS_3Scb17ArticulationJointERPNS0_4BodyES5_
AJf:_DivideByZeroException__ctor_m280382972
pud:__ZNK5physx2Sc15ClothFabricCore16getTetherLengthsEPfj
pup:__ZNKSt3__210__time_put8__do_putEPcRS1_PK2tmcc
pBg:_SecureString_GetBuffer_m3412662779
Mlb:__ZN17AnimationCurveTplIfE8TransferI18StreamedBinaryReadILb1EEEEvRT_
yWn:__Z59RuntimeInvoker_Void_t1841601450_Win32_MIB_IFROW_t4215928996PFvvEPK10MethodInfoPvPS4_
Gbf:_DateTimeOffset_GetHashCode_m3312197462_AdjustorThunk
zPd:__ZN18UnityConnectClientD2Ev
Q8i:_ILGenerator_Emit_m2714420963
uLm:_il2cpp_set_data_dir
CNn:__Z151RuntimeInvoker_Boolean_t3825574718_Int32_t2071877448_RuntimeObject_Int32_t2071877448_Int32_t2071877448_RuntimeObject_Int32_t2071877448_SByte_t454417549PFvvEPK10MethodInfoPvPS4_
Y5c:__ZN5physx2Sc13ConstraintSim8getForceERNS_6PxVec3ES3_
_Pk:_List_1_System_Collections_ICollection_CopyTo_m1781999869_gshared
QNe:_Uri_get_IsUnc_m2111738174
ulp:_MouseOverMaterialSwap_OnPointerExit_m221798950
png:___DTString_MatchSpecifiedWords_m3633051038
nOh:_XsdDuration_TryToTimeSpan_m508266601
$qj:_KeyPairPersistence_Load_m1225975073
Qac:__ZN5physx15PxGeometryQuery18computePenetrationERNS_6PxVec3ERfRKNS_10PxGeometryERKNS_11PxTransformES6_S9_
rtl:_InternalEnumerator_1_System_Collections_IEnumerator_get_Current_m1877866433_AdjustorThunk
Ksk:_TypeBuilder_IsValueTypeImpl_m1499671481
DOd:__ZN11UnityEngine15PlatformWrapper30GetGraphicsDriverLibraryStringEv
S$k:_ReadOnlyCollection_1_System_Collections_IList_Contains_m933086541_gshared
CJd:__ZN5Unity12PhysicsQueryC2Ev
Arj:_EncryptedPrivateKeyInfo_Decode_m1706190306
U$f:_Datatype_duration_get_FacetsChecker_m3841308654
hnb:__Z18Transfer_BlittableI18StreamedBinaryReadILb0EELb0E4AABBEvRK29SerializationCommandArgumentsR31RuntimeSerializationCommandInfo
bom:_AudioListener_ClearExtensionProperties_m2267088681
tod:__ZN5physx10PxsContext13updateIslandsEfPNS_10PxBaseTaskE
Bhf:_ObjectReader_SetMethodCall_m2993974829
L3d:_XmlNodeReaderNavigator_CheckIndexCondition_m2322819888
r3e:_Convert_ToUInt16_m1665900934
ETe:_Char_ToString_m2259128647
Jwl:_InternalEnumerator_1_System_Collections_IEnumerator_get_Current_m2417091700_AdjustorThunk
Wwb:__Z14DrawGUITextureRK5RectTIfEP7Texture11ColorRGBA32P8Materiali
kqj:_ASN1Convert_ToInt32_m2482104422
hii:_FileStream__cctor_m972346232
wOj:_IPv4AddressHelper_Parse_m1848032016
qEa:__ZN15TextureSettings8TransferI24GenerateTypeTreeTransferEEvRT_
aFe:_MatchCollection_GetEnumerator_m3516985966
N4b:__ZN9JSONWrite8TransferI4AABBEEvRT_PKc17TransferMetaFlags
tKg:_UTF7Encoding__ctor_m2365939916
Hoa:__ZN25MultiBlocksMemoryFileData9SetLengthEy
qxf:_Array_InternalArray__set_Item_TisState_t563545493_m3049205978_gshared
cge:_XmlValidatingReaderImpl_ParseDtdFromParserContext_m1901598209
wrd:__ZNK18ScBeforeSolverTask7getNameEv
xzg:_MembershipConditionHelper__cctor_m2929159173
c3h:_TypeInitializationException__ctor_m2993591639
Ged:__ZN5physx14solve1D4_BlockEPKNS_23PxcSolverConstraintDescEjRNS_16PxcSolverContextE
X0b:__ZN5Unity9rapidjson13GenericReaderINS0_4UTF8IcEES3_13JSONAllocatorE9ParseTrueILj0ENS0_19GenericStringStreamIS3_EENS0_15GenericDocumentIS3_S4_S4_EEEEvRT0_RT1_
sTn:__Z103RuntimeInvoker_Check_t363272550_RuntimeObject_UInt16U26_t3314555461_Int16_t4041245914_Int16_t4041245914PFvvEPK10MethodInfoPvPS4_
Lm:_emscripten_glUniform2iv
cEc:__ZN5physx2Sc8ShapeSim17onTransformChangeEv
nbc:__ZL33GeomMTDCallback_ConvexHeightFieldRN5physx6PxVec3ERfRKNS_10PxGeometryERKNS_11PxTransformES5_S8_
zvi:_Comparer_1_CreateComparer_m964710621_gshared
KQj:_DefaultProxySectionInternal_GetDefaultProxy_UsingOldMonoCode_m2076098506
otg:_String_nativeCompareOrdinalEx_m2017317785
CCb:__Z30AddDefaultStreamsToMeshBuffersR9GfxDeviceR11MeshBuffersRK16DrawBuffersRange17ShaderChannelMaskS6_
lOg:_StringBuilder_AppendFormat_m1684825084
tzg:_Hash_GetObjectData_m315532943
Cba:__ZN7ApiGLES17DeleteFramebufferERN2gl6HandleILNS0_10ObjectTypeE9EEES3_
xea:__ZN15UniformTFMethod13MapBoneBufferEj
Kuj:_RecordProtocol_SendAlert_m2816808523
Njd:__ZN5physx26PxcPCMContactCapsuleConvexERKNS_2Gu13GeometryUnionES3_RKNS_11PxTransformES6_RKfRNS_10PxcNpCacheERNS0_13ContactBufferE
E2l:_Marshal_copy_from_unmanaged_m98320635
dQg:_Decoder_get_HasState_m2042115426
ZVj:__Z30il2cpp_codegen_resolve_pinvokeIPFviELj25ELj8EET_RAT0__KcRAT1__S3_20Il2CppCallConvention13Il2CppCharSetib
gsb:__Z9SetupArgviPPKc
Mlp:_PlayerControl_OnDisable_m17019492
ATm:__ZN6il2cpp2vm10Reflection7IsFieldEP12Il2CppObject
$Vj:__Z30il2cpp_codegen_resolve_pinvokeIPFiPciELj25ELj7EET_RAT0__KcRAT1__S4_20Il2CppCallConvention13Il2CppCharSetib
lzk:_MonoParameterInfo__ctor_m1712424775
Dxh:_Array_InternalArray__IndexOf_TisGCHandle_t3409268066_m2265684215_gshared
Jxc:__ZN5physx10PxsContext17addParticleSystemEPNS_15PxsParticleDataERKNS_26PxvParticleSystemParameterEb
Fvc:__ZN5physx3Scb5Scene13addRigidNoSimINS0_4BodyELb1ELb1EEEvRT_RNS0_13ObjectTrackerE
QHa:__ZN12CubemapArray23VirtualRedirectTransferER24GenerateTypeTreeTransfer
iS:__ZN12FileAccessor4OpenER15FileSystemEntry14FilePermission16FileAutoBehavior
Fpe:_XdrBuilder_ParseMaxOccurs_m831291688
ynm:_AudioSource_get_spatializeInternal_m4243931620
M7l:_TlsStream_get_Length_m1562309511
zgc:__ZL19sweepBoxVsTrianglesjPKN5physx10PxTriangleERKNS_2Gu3BoxERKNS_6PxVec3EfRNS_10PxSweepHitENS_7PxFlagsINS_9PxHitFlag4EnumEtEEbPKj
zde:_NodeData_get_ValueBuffered_m96029250
nR:__ZN15dense_hashtableINSt3__24pairIKiP4RTTIEEiN11TypeManager27HashFunctorPersistentTypeIDEN14dense_hash_mapIiS4_S7_NS0_8equal_toIiEE13stl_allocatorIS5_L18MemLabelIdentifier7ELi16EEE9SelectKeyESA_SD_E12maybe_shrinkEv
ZYi:_NumberFormatter_AppendNonNegativeNumber_m629862866
HEd:__ZN9Rigidbody18AddForceAtPositionERK8Vector3fS2_i
yah:_WebConnectionGroup_FindIdleConnection_m3371117434
Mwf:_Array_InternalArray__set_Item_TisMonoResource_t3127387157_m732733855_gshared
jvm:_UnityEvent_1_Invoke_m1599856953_gshared
qNd:__ZN22BaseUnityConnectClientD0Ev
LIk:_HttpWebRequest_CheckFinalStatus_m3438683118
uge:_XmlValidatingReaderImpl_set_SchemaTypeObject_m55140609
C:tempValue
Glj:___BinaryParser_ReadObjectWithMap_m1355507397
Adl:_MSCompatUnicodeTable_ToKanaTypeInsensitive_m908833112
H9h:_Int16_System_IConvertible_ToSingle_m3277935657
$N:__Z29scripting_class_from_fullnamePKcS0_S0_
$Yg:_Task_Dispose_m1598097392
wbc:__ZN5physx2Gu29ConvexVsMeshContactGeneration20generateLastContactsEv
C8d:_XmlTextReaderImpl_get_Name_m3464630043
IQl:_GenericComparer_1_Compare_m2317189868_gshared
Gtp:__ZNSt3__220__get_up_to_n_digitsIcNS_19istreambuf_iteratorIcNS_11char_traitsIcEEEEEEiRT0_S5_RjRKNS_5ctypeIT_EEi
jcl:_UnixRegistryApi_GetValueKind_m70884842
tA:__ZN11AudioSource19CreateOpenALRolloffEfff
wSi:_SHA384Managed_SHA384Expand_m1910126009
TSc:__ZN5physx2Sc17ParticleSystemSim16getParticleStateEv
Cqd:__ZN5physx6shdfnd5ArrayINS_25PxsCompoundContactManagerENS0_19ReflectionAllocatorIS2_EEE8recreateEj
n3n:__Z87RuntimeInvoker_Void_t1841601450_Int32_t2071877448_Win32_IP_ADAPTER_ADDRESSES_t680756680PFvvEPK10MethodInfoPvPS4_
RDm:__ZN15dense_hashtableINSt3__24pairIK10KeyWrapperIN6il2cpp5utils13dynamic_arrayIPK10Il2CppTypeLj4EEEEPFvvEEESA_NS3_8metadata19Il2CppSignatureHashEN14dense_hash_mapISA_SD_SG_NSA_14EqualsComparerINSF_22Il2CppSignatureCompareEEENS0_9allocatorISE_EEE9SelectKeyESK_SM_E9set_valueEPSE_RKSE_
EHe:_RegexParser_EmptyOptionsStack_m176956034
nfm:_UnityEventBase_FindMethod_m2780816114
h_g:_XPathDocumentNavigator_Clone_m2090512569
kKk:_LazyAsyncResult_LazilyCreateEvent_m4124832180
Cd:_glReadBuffer
TRi:_Utils_DWORDFromBigEndian_m4062209169
$1k:_ReadOnlyCollection_1_System_Collections_ICollection_get_SyncRoot_m1676628761_gshared
yhd:__ZN5physx14PxsAABBManagerC2ERNS_2Cm13EventProfilerERNS_19PxcScratchAllocatorE
dB:__ZN11AudioModule22CreateAudioClipFromWWWEP10IWWWStreamPKcbbi
hNg:_StringBuilder_set_Length_m3039225444
jQh:_Ucs4Encoding1234_get_EncodingName_m3736087407
AXg:_AwaitTaskContinuation_UnsafeScheduleAction_m1435247783
ixh:_Array_InternalArray__IndexOf_TisRecognizedAttribute_t3930529114_m3772605877_gshared
PZi:_Number_FormatInt32_m3900982637
wVg:_QueueUserWorkItemCallback__ctor_m213775691
R6e:_CultureAwareComparer_GetHashCode_m3681260951
$Im:__ZN15dense_hashtableINSt3__24pairIK10KeyWrapperIPK9EventInfoEP11Il2CppClassEES6_N6il2cpp6icalls8mscorlib6System19Il2CppEventInfoHashEN14dense_hash_mapIS6_S9_SF_NS6_14EqualsComparerINSE_22Il2CppEventInfoCompareEEENS0_9allocatorISA_EEE9SelectKeyESJ_SL_E3endEv
NOb:__ZN6prcoreL11inner_clearILj4EEEvPhjjj
kGb:__ZNK26RenderDeferredObjectSorterclERK16RenderObjectDataS2_
IOf:_CultureData_GetNFIValues_m3514126741
WDb:__ZN15SHConstantCacheC2ER13BatchRendererR15RenderLoopStats
oJj:_DiagnosticsConfigurationHandler_ValidateAttribute_m267344658
Jln:_GC_initialize_offsets
wV:__ZNK8Playable6HandleEv
fyg:_DefaultPolicies_BuildFullTrust_m1392093839
IDb:__Z30SetupBakedOcclusionForGeometrybRK26SharedLightmapSettingsDataRK15LightmapIndicesR17ShaderPassContext
mhh:_WebConnection_BeginWrite_m1695738720
u_l:_InternalConfigurationHost_IsDefinitionAllowed_m2472316359
kQ:__ZN14MessageHandler28MessageIDToMessageIdentifierEi
xHk:_HttpRequestCreator_Create_m3607509610
ePa:__ZNK11SpriteAtlas20GetRuntimeRenderDataEPK6Sprite
Jnn:__ZN6il2cpp2vm10WaitHandle19NewManualResetEventEb
$Bn:__Z73RuntimeInvoker_RuntimeObject_Int64_t909078037_RuntimeObject_RuntimeObjectPFvvEPK10MethodInfoPvPS4_
eCg:_SecurityManager__cctor_m3929275401
fIk:_HttpWebRequest_get_UnsafeAuthenticatedConnectionSharing_m2150911897
u7h:_Version_GetHashCode_m880841176
jom:_AudioExtensionManager_GetReadyToPlay_m3272224102
Wd:emscriptenWebGLGetUniform
Vo:FUNCTION_TABLE_iiiiiiiiiii
DXh:_WaitOrTimerCallback_BeginInvoke_m1090956637
Dic:__ZN5physx2Gu19sweepCapsuleCapsuleERKNS0_7CapsuleES3_RKNS_6PxVec3EfRfRS4_S8_jRt
b6j:_Enumerator__ctor_m1586864815_AdjustorThunk
sIb:__ZL10CleanUpJobP20CullingGroupsJobData
qGl:_FromAsyncTrimPromise_1__cctor_m3521850378_gshared
ATe:_Char_CompareTo_m3044885427_AdjustorThunk
vmm:_AesCryptoServiceProvider_set_Key_m1857031513
GEg:_String_Join_m1966872927
P3j:_BrowsableAttribute__ctor_m1194948749
Pud:__ZN5physx13BigConvexData4LoadERNS_13PxInputStreamE
Nwb:__ZN13RenderManager15BatchModeUpdateEv
mOa:__ZN14SafeBinaryRead21TransferSTLStyleArrayI13dynamic_arrayI8Vector2fLj4EEEEvRT_17TransferMetaFlags
X_h:_TimeZoneInfo_IsDaylightSavingTime_m85822748
kja:__ZN17PersistentManager51InstanceIDToLocalSerializedObjectIdentifierInternalEiR31LocalSerializedObjectIdentifier
acl:_UnixRegistryApi_CreateSubKey_m1581476804
HNj:_GZipStream_get_CanSeek_m153606340
OEc:__ZN5physx2Sc8ActorSim24postDominanceGroupChangeEv
Cnf:_SerializationEntry__ctor_m1945920964_AdjustorThunk
me:_glVertexAttribIPointer
O1d:_XmlNamespaceManager_PopScope_m2180989617
AZh:_AdjustmentRule_IsEndDateMarkerForEndOfYear_m3346121805
LEh:_Array_InternalArray__Insert_TisVirtualAttribute_t2854289803_m4075404381_gshared
YKj:_SwitchLevelAttribute__ctor_m1438812652
GFc:__ZN5physx2Cm8PtrTable5clearERNS0_22PtrTableStorageManagerE
YZm:__ZNSt3__215basic_stringbufIcNS_11char_traitsIcEENS_9allocatorIcEEE7seekoffExNS_8ios_base7seekdirEj
uoh:_Array_InternalArray__ICollection_Contains_TisTableRange_t2011406615_m605506746_gshared
qYl:_ConfigurationPermission_FromXml_m1615470072
F4e:_Decimal_op_Explicit_m729046406
dWm:__ZN15dense_hashtableINSt3__24pairIK10KeyWrapperIPK22Il2CppGenericParameterEPK24MonoGenericParameterInfoEES6_N6il2cpp5utils11PointerHashIS4_EEN14dense_hash_mapIS6_SA_SF_NS6_14EqualsComparerINS0_8equal_toIS5_EEEENS0_9allocatorISB_EEE9SelectKeyESK_SM_E15insert_noresizeERKSB_
nmc:__ZN5physx3Cct15ObstacleContext7releaseEv
ked:__ZN5physx27solveFrictionBlockWriteBackEPKNS_23PxcSolverConstraintDescEjRNS_16PxcSolverContextEPNS_25PxcThresholdStreamElementEjPi
Ztf:_CryptographicUnexpectedOperationException__ctor_m3552441227
xAb:__ZN14qsort_internal5QSortIP15RODataDepthPassi17ROSorterDepthPassEEvT_S4_T0_T1_
aem:_CullingGroup_SendEvents_m386073533
oEe:_GroupCollection_GetGroup_m1237801943
c7m:__ZN14dense_hash_mapI10KeyWrapperIP12Il2CppObjectEN6il2cpp2gc9CachedCCWENS4_5utils11PointerHashIS1_EENS3_14EqualsComparerINSt3__28equal_toIS2_EEEENSB_9allocatorINSB_4pairIKS3_S6_EEEEEC2EjRKS9_RKSE_
_5h:_UInt64_System_IConvertible_ToDouble_m2828923873
Kch:_Socket_BeginSend_m2442178957
pAd:__ZN5physx6shdfnd10Foundation19AlignCheckAllocator8allocateEjPKcS4_i
I6d:_XmlRegisteredNonCachedStream_Write_m1092076737
yYh:_TimeSpan_CompareTo_m4183101766_AdjustorThunk
Jyp:__ZNKSt3__221__basic_string_commonILb1EE20__throw_length_errorEv
TNg:_StringBuilder_Insert_m1733097906
yak:_Enumerator_MoveNext_m2019024253_AdjustorThunk
Bj:_JS_SystemInfo_GetMemory
eRk:_List_1_System_Collections_IList_Insert_m2503532433_gshared
gAj:_SslStreamBase_get_HashStrength_m480059173
pca:__ZN18GfxFramebufferGLES13ReadbackImageER14ImageReferenceiiiiii
z1b:__ZN5Unity9rapidjson6WriterI16TempBufferWriterNS0_4UTF8IcEES4_13JSONAllocatorE11WriteStringEPKcj
k7j:_Enumerator__ctor_m3029487006_AdjustorThunk
kyp:__ZNSt3__26locale5__imp7installINS_8messagesIwEEEEvPT_
R7:__ZN6prcoreL12RemapGenericI17TexFormatARGB888815TexFormatRGB565EEvPKNS_9InnerInfoE
iw:__ZN4FMOD7Channel19setReverbPropertiesEPK29FMOD_REVERB_CHANNELPROPERTIES
KP:__ZN13MonoBehaviour22GetScriptFullClassNameEv
Jqd:__ZN5physx6shdfnd4sortIPNS_15PxsContactPatchENS_27SortBoundsPredicateManifoldENS0_19ReflectionAllocatorIS3_EEEEvPT_jRKT0_RKT1_j
ari:_InternalEnumerator_1_get_Current_m2910701268_gshared
Yah:_ServicePointManager_FindServicePoint_m3137356168
f_f:_TimeSpanResult_t782244817_marshal_pinvoke_back
dqb:__ZN13MonoBehaviour9CallAwakeEv
$Ng:_StringBuilder_Append_m3541816491
cDa:__ZN20SphericalHarmonicsL211AddWeightedERKS_f
sfb:__Z19TransferField_ArrayI17RemapPPtrTransfer27Converter_SimpleNativeClassI8GUIStyleEEvRK23StaticTransferFieldInfoR31RuntimeSerializationCommandInfoRT0_
j4e:_Convert_ToUInt64_m345450801
Lzl:_Predicate_1_BeginInvoke_m2559992383_gshared
f2b:__ZN9JSONWrite8TransferI10ColorRGBAfEEvRT_PKc17TransferMetaFlags
Ilc:__ZN5physx3Cct26CharacterControllerManager16createControllerERKNS_16PxControllerDescE
Jbm:_AttrListImpl__ctor_m2493267160
eQ:__Z25scripting_method_get_name18ScriptingMethodPtr
kRh:_XmlAttribute_get_BaseURI_m916085959
Ldb:__Z19TransferField_ArrayI14SafeBinaryRead16Converter_StringEvRK23StaticTransferFieldInfoR31RuntimeSerializationCommandInfoRT0_
r7f:_FacetsCompiler__cctor_m3660070498
ybk:_Enumerator_System_Collections_IEnumerator_Reset_m334979145_AdjustorThunk
lth:_Array_QSortArrange_TisUInt16_t986882611_m2974174467_gshared
spp:_rename
Lln:_GC_exit_check
yXi:_IsolatedStoragePermission__ctor_m491345231
sYi:_NotSupportedException__ctor_m3232764727
VGj:_TypeConverterAttribute_Equals_m2330345916
PEl:_Task_1__ctor_m1030422093_gshared
Qtp:__ZNKSt3__220__time_get_c_storageIwE7__weeksEv
Ysl:_InternalEnumerator_1_System_Collections_IEnumerator_get_Current_m1038263751_gshared
E9e:_DateTime_ToString_m1117481977
Bii:_MemoryStream__ctor_m153052217
cHj:_TypeDescriptionProvider_GetTypeDescriptor_m4015807399
eMb:__ZNSt3__26vectorINS_4pairIN4core12basic_stringIcNS2_20StringStorageDefaultIcEEEES6_EE13stl_allocatorIS7_L18MemLabelIdentifier38ELi16EEE6insertENS_11__wrap_iterIPKS7_EERSD_
Noh:_Array_InternalArray__ICollection_Contains_TisEntry_t3655379380_m2690852224_gshared
V2d:_XmlNodeReader_get_NodeType_m1582573794
iWd:_XmlLinkedNode__ctor_m1176905295
c8i:_GenericTypeParameterBuilder_GetGenericArguments_m277381309
sbh:_SimpleAsyncResult_DoCallback_internal_m87373959
xf:_emscripten_glStencilOpSeparate
PFg:_String_Concat_m2000667605
Nhi:_Stream_BlockingBeginWrite_m2913653423
dCf:_AsyncTaskMethodBuilder_AwaitUnsafeOnCompleted_TisConfiguredTaskAwaiter_t4260217988_TisU3CWriteAsyncInternalU3Ed__37_t1508048495_m3887933255_gshared
g0e:_SyncSortedList_GetKeyList_m4130086287
egn:__ZN6il2cpp2vm6String8NewUtf16EPKDsi
Tbn:__ZN6il2cpp2os10ThreadImpl12QueueUserAPCEPFvPvES2_
Dyp:__ZNSt3__211__call_onceERVmPvPFvS2_E
pPd:__ZN22BaseUnityConnectClient10QueueEventERN11UnityEngine15CloudWebService17CloudServiceEventEPKcjb
r_i:_Number_MatchChars_m3816506012
WHk:_HttpWebRequest_set_Method_m1117396597
iic:__ZNK5physx2Gu15HeightFieldUtil12traceSegmentI25CapsuleTraceSegmentReportLb0ELb0ELb1EEEvRKNS_6PxVec3ES6_PT_PS5_
PKm:__Z17worker_try_unparkv
Eze:_XmlSchemaException__ctor_m714289565
Mid:__ZN5physx10PxsContext23prepareCMDiscreteUpdateEPNS_10PxBaseTaskE
gQe:_BitConverter_ToInt64_m1329623425
BRb:__ZN8RendererC2E12RendererType18MemLabelIdentifier18ObjectCreationMode
hFc:__ZN5physx6shdfnd5ArrayIPvNS0_19ReflectionAllocatorINS_2Cm5BlockIhLj256EEEEEE4copyINS0_15InlineAllocatorILj256ES7_EEEEvRKNS1_IS2_T_EE
l6m:__ZN14dense_hash_setI10KeyWrapperIP18Il2CppGenericClassEN6il2cpp8metadata22Il2CppGenericClassHashENS3_14EqualsComparerINS5_25Il2CppGenericClassCompareEEENSt3__29allocatorIS3_EEE6insertERKS3_
Qf:_emscripten_glGetError
YTm:__ZN15dense_hashtableINSt3__24pairIK10KeyWrapperIPK14Il2CppAssemblyEPK22Il2CppMonoAssemblyNameEES6_N6il2cpp5utils11PointerHashIS4_EEN14dense_hash_mapIS6_SA_SF_NS6_14EqualsComparerINS0_8equal_toIS5_EEEENS0_9allocatorISB_EEE9SelectKeyESK_SM_E14squash_deletedEv
Vw:__Z14FMOD_FILE_SeekPvjS_
I9n:__ZL56AppDomainSetup_t611332832_CustomAttributesCacheGeneratorP21CustomAttributesCache
_dj:_MethodCall_get_Properties_m1893707917
NIc:__ZN5physx6shdfnd8PoolBaseINS_11NpAggregateENS0_19ReflectionAllocatorIS2_EEE15disposeElementsEv
t2f:_Datatype_positiveInteger__cctor_m241105531
_Vl:_ElementMap__ctor_m2348370310
VMd:__Z56Register_UnityEngine_Analytics_CustomEventData_AddStringv
FEk:_Win32Resource_get_ResourceType_m958784328
vJb:__ZNK13RenderTexture32CalculateNeedsInvertedProjectionEv
bmc:__ZN5physx2Gu17RadixSortBuffered4SortEPKfj
Yf:emscriptenWebGLGet
xS:__Z19CanReplaceComponentRN5Unity9ComponentEPKNS_4TypeEPN4core12basic_stringIcNS5_20StringStorageDefaultIcEEEE
_Rg:_CancellationTokenSource_InternalRegister_m1927496147
KSb:__ZN12CubemapArray11InitTextureEiii13TextureFormatb
h8:__ZN6prcoreL18BlitIntegerToFloatERK14ImageReferenceRS0_
Y6d:_XmlSignificantWhitespace_CloneNode_m3066899678
yYb:__Z17GetSceneBuildInfoRKN4core12basic_stringIcNS_20StringStorageDefaultIcEEEEiR14SceneBuildInfo
qAi:_Enumerator_System_Collections_IEnumerator_Reset_m174516854_gshared
Wnp:_exp2f
g6k:_ReadOnlyCollection_1_System_Collections_ICollection_CopyTo_m3636505861_gshared
uYl:_ConfigurationPermission_IsSubsetOf_m1751013986
Cmh:_X509Certificate2_get_SignatureAlgorithm_m3069898012
Cee:_XmlTextWriter_AutoCompleteAll_m1448738509
Taj:_ModuleBuilderTokenGenerator_GetToken_m1429572107
b8h:_CFHelpers_CFRetain_m4015979986
mDb:__ZL24AssignProjectorQueuesJobP30AssignProjectorQueuesJobHeader
b8g:_Compiler_CompileComplexContentExtension_m714190922
Xul:_InternalEnumerator_1_get_Current_m466738280_gshared
fYh:_TimeSpan_get_Hours_m3804628138
Iyk:_MonoMethod_GetGenericArguments_m1043327523
Ywk:_MonoCMethod_InternalInvoke_m1592653849
kFe:_Regex__ctor_m3250610064
XDm:__ZN15dense_hashtableINSt3__24pairIK10KeyWrapperIN6il2cpp5utils13dynamic_arrayIPK10Il2CppTypeLj4EEEEPFvvEEESA_NS3_8metadata19Il2CppSignatureHashEN14dense_hash_mapISA_SD_SG_NSA_14EqualsComparerINSF_22Il2CppSignatureCompareEEENS0_9allocatorISE_EEE9SelectKeyESK_SM_E4swapERSP_
QVh:_ThreadPool_RegisterWaitForSingleObject_m3133782998
BLj:_TraceUtils_VerifyAttributes_m3781000068
L4a:__ZN9ShaderLab20SerializedSubProgram14SetConstBufferEPKci
Zpg:_ArgumentNullException__ctor_m911049464
pQi:_RSA_DerivedClassMustOverride_m3289290978
LJd:__ZN13PhysicsModule17SetRigidBodyStateER9RigidbodyRKN8IPhysics14RigidBodyStateE
eln:_GC_printf
K_g:_XPathNode_get_Document_m309570694_AdjustorThunk
YFe:_RegexCharClass_ParseRecursive_m2451478917
OJ:__Z40DebugStringToFilePostprocessedStacktraceRK21DebugStringToFileData
O9c:__ZN5physx2Sq12BucketPruner11shiftOriginERKNS_6PxVec3E
T6b:__Z29Transfer_Blittable_ArrayFieldI8JSONReadjEvRT_R9ArrayInfoRK23StaticTransferFieldInfo
LGi:_ValueCollection_GetEnumerator_m379930731_gshared
gvc:__ZN5physx6shdfnd5ArrayIPNS_2Sc16ArticulationCoreENS0_19ReflectionAllocatorIS4_EEE15growAndPushBackERKS4_
kul:_InternalEnumerator_1_get_Current_m314017974_AdjustorThunk
Hg:__setLetterbox
bLn:__Z94RuntimeInvoker_Void_t1841601450_RuntimeObject_SByte_t454417549_RuntimeObject_Int32_t2071877448PFvvEPK10MethodInfoPvPS4_
ipd:__ZN5physx19normalizePartitionsERNS_6shdfnd5ArrayIjNS0_19ReflectionAllocatorIjEEEEPNS_23PxcSolverConstraintDescEPKNS_13PxcSolverBodyEjjS5_
Dcg:_RuntimeClassHandle_GetHashCode_m505384228_AdjustorThunk
S8e:_DateTimeParse_TryParseQuoteString_m4067948436
GRf:_CultureInfo_get_EnglishName_m1797390079
TVi:_PermissionBuilder__cctor_m4211719202
Fgf:__ZN21InterfaceFuncInvoker3IP12Il2CppObjectP6Type_t28StreamingContext_t1417235061PS1_E6InvokeEjP11Il2CppClassS1_S3_S4_S5_
alp:_Map_IsFlagged_m4091685121
qRa:__ZNSt3__26vectorI17BlendShapeChannelNS_9allocatorIS1_EEE6assignINS_11__wrap_iterIPS1_EEEENS_9enable_ifIXaasr21__is_forward_iteratorIT_EE5valuesr16is_constructibleIS1_NS_15iterator_traitsISA_E9referenceEEE5valueEvE4typeESA_SA_
Dub:__Z12SetGfxDeviceP9GfxDevice
TAk:_RtFieldInfo_CheckConsistency_m1685123040
Qkh:_AsnEncodedData_ToString_m724151831
gOb:__ZN11TimeManager11GetRealtimeEv
ggg:_KeyPairPersistence_get_Filename_m152060602
hJh:_XmlUntypedConverter_ToDateTimeOffset_m2360957157
Pqc:__ZN5physx2Sc16InteractionScene25removeFromActiveActorListERNS0_5ActorE
NGm:__ZN6il2cpp6icalls6System6System3Net7Sockets6Socket4BindEiP19Il2CppSocketAddressPi
nx:__ZN29AudioEffectInternalDefinitionC2EP26UnityAudioEffectDefinitionb
ixk:_MonoMethodInfo_GetDeclaringType_m4186531677
mxi:_Enumerator_System_Collections_IDictionaryEnumerator_get_Key_m4126695840_gshared
knc:__ZN5physx3Ext21InertiaTensorComputer6rotateERKNS_7PxMat33E
xye:_XmlSchemaComplexType_get_LocalElements_m3406378866
x5h:_UInt64_ToString_m2892887310
ZOm:__ZNSt3__2plIcNS_11char_traitsIcEENS_9allocatorIcEEEENS_12basic_stringIT_T0_T1_EERKS9_PKS6_
xkl:_InternalEnumerator_1_System_Collections_IEnumerator_get_Current_m1022229408_AdjustorThunk
ntl:_InternalEnumerator_1_get_Current_m1643772188_gshared
W1e:_ConsoleKeyInfo_Equals_m462812356_AdjustorThunk
nod:__ZN5physx22PxcDiscreteNarrowPhaseERNS_18PxcNpThreadContextERNS_13PxcNpWorkUnitE
TMl:_Dictionary_2_Resize_m3691588283_gshared
Q6:_stbir_resize
$rh:_Array_InternalArray__ICollection_Remove_TisVirtualAttribute_t2854289803_m3738473553_gshared
Oen:__ZN15dense_hashtableINSt3__24pairIK10KeyWrapperIPK19Il2CppGenericMethodEP10MethodInfoEES6_N6il2cpp8metadata23Il2CppGenericMethodHashEN14dense_hash_mapIS6_S9_SD_NS6_14EqualsComparerINSC_26Il2CppGenericMethodCompareEEENS0_9allocatorISA_EEE9SelectKeyESH_SJ_EC2ERKSM_j
nyg:_DefaultPolicies_get_Execution_m3690761490
ese:_XmlBaseConverter_ToBoolean_m2757976660
gPe:_UriBuilder_get_Uri_m1365242951
Mjd:__ZN5physx23PxcPCMContactCapsuleBoxERKNS_2Gu13GeometryUnionES3_RKNS_11PxTransformES6_RKfRNS_10PxcNpCacheERNS0_13ContactBufferE
wXd:_XmlDocument_get_DocumentType_m3596136406
Noa:__Z37ReadDirectoryInfo_UnityWebAndUnityRawR12FileAccessorRKN20ArchiveStorageHeader6HeaderERNS1_13DirectoryInfoE
QM:__ZNSt3__26__treeINS_12__value_typeIPKciEENS_19__map_value_compareIS3_S4_15compare_tstringIS3_ELb1EEENS_9allocatorIS4_EEE7destroyEPNS_11__tree_nodeIS4_PvEE
cXg:_AwaitTaskContinuation__ctor_m2283942602
Naj:_ModuleBuilder_ResolveMethod_m1549523811
VQj:_HttpWebRequestElement_get_Properties_m1620527254
Kxp:__ZNSt3__26locale5__imp7installINS_5ctypeIcEEEEvPT_
IMj:_DeflateStreamNative_ReadZStream_m4174527818
VPd:__ZN13dynamic_arrayIN4core12basic_stringIcNS0_20StringStorageDefaultIcEEEELj4EE6assignEPKS4_S7_
gna:__ZN15dense_hashtableINSt3__24pairIKN4core12basic_stringIcNS2_20StringStorageDefaultIcEEEEP20ArchiveStorageReaderEES6_20StringHash32FunctionIS6_EN14dense_hash_mapIS6_S9_SC_NS0_8equal_toIS6_EE13stl_allocatorISA_L18MemLabelIdentifier55ELi16EEE9SelectKeyESF_SI_E5clearEv
X$n:__Z109RuntimeInvoker_Int32_t2071877448_RuntimeObject_DateTimeOffset_t1362988906_Int32_t2071877448_Int32_t2071877448PFvvEPK10MethodInfoPvPS4_
S3m:__ZN6il2cpp2vm12ReboxIfBoxedEP14Il2CppIUnknownP11Il2CppClass
Grb:__ZN25PathNamePersistentManagerD2Ev
yO:__ZN17PersistentManager48IntegrateObjectAndUnlockIntegrationMutexInternalEi
vrj:_PKCS1_CreateFromOid_m2086388228
RY:__ZZ29InitializeSortingGroupManagerPvEN44PostLateUpdateSortingGroupsUpdateRegistrator7ForwardEv
Hkl:_InternalEnumerator_1_System_Collections_IEnumerator_get_Current_m671356740_AdjustorThunk
Sp:__ZN6Object12SetHideFlagsENS_9HideFlagsE
cEd:__ZN9Rigidbody23VirtualRedirectTransferER14SafeBinaryRead
$Fp:_emscripten_glGetFramebufferAttachmentParameteriv__wrapper
lxb:__ZN13RendererScene15InitializeUmbraEv
pAf:_Array_Sort_TisUInt64_t2909196914_m3734038263_gshared
YAa:__Z28CalculateGlobalMatrixInverse23TransformAccessReadOnly
Lcf:_Decimal__ctor_m569480123
qnp:___ctype_toupper_loc
NPg:_UTF7Encoding_GetCharCount_m2589913583
NBk:_TargetInvocationException__ctor_m964131608
fTc:__ZNK5physx15PxsParticleData15getWorldBoundsVEv
mCd:__ZN15CapsuleCollider13AwakeFromLoadE17AwakeFromLoadMode
VJm:_AnalyticsSessionInfo_CallSessionStateChanged_m2293069762
z2g:_DtdParser_ScanNameExpected_m2764844612
Ivg:_UIPermission_IsUnrestricted_m3807039400
gjc:__ZN12_GLOBAL__N_124HfTrianglesEntityReport27onEventEjPj
Mqf:_RuntimeTypeHandle_GetAssembly_m2468124673
EYh:_TimeSpan_Equals_m4102942751_AdjustorThunk
BIh:_XmlSchemaValidationException__ctor_m3535019702
gEc:__ZN5physx17PxsContactManager16resetCachedStateEv
EYf:_FormatLiterals_get_MinuteSecondSep_m2293599088_AdjustorThunk
SSd:__ZN12HeaderHelper14SetUnvalidatedERKN4core12basic_stringIcNS0_20StringStorageDefaultIcEEEES6_b
ot:__ZN4FMOD6SoundI7releaseEv
oIk:_HttpWebRequest_EndGetResponse_m2310834408
cYc:__ZN5physx20NpRigidActorTemplateINS_14PxRigidDynamicEE15setActorSimFlagEb
bwp:__ZNKSt3__27codecvtIDic11__mbstate_tE5do_inERS1_PKcS5_RS5_PDiS7_RS7_
yMj:_InvariantComparer_Compare_m2858797001
r4g:_ReadContentAsBinaryHelper_MoveToNextContentNode_m373347940
ppa:__ZN10MemoryFile9SetLengthEy
D3h:_UInt16_ToString_m2038947049_AdjustorThunk
xhb:__ZN5RectTIiE8TransferI24GenerateTypeTreeTransferEEvRT_
Glc:__ZNK5physx3Cct26CharacterControllerManager16getNbControllersEv
Fqb:__Z28scripting_class_is_interface17ScriptingClassPtr
_h:_glTexStorage2D
noi:_LocalDataStoreMgr_ValidateSlot_m1221361714
xYj:_DnsPacket_WriteUInt16_m147641688
Z0f:_Datatype_int__ctor_m1010091834
hOi:_U3CU3Ec_U3C_ctorU3Eb__2_3_m744006585
bFa:__ZNK9ShaderLab10SubProgram14EnsureCompiledEv
Pmf:_ObjectManager_RecordFixup_m3572285566
Kke:_SchemaElementDecl_System_Xml_IDtdAttributeListInfo_LookupAttribute_m2211538490
rGd:__ZN5physx7profile10DataBufferINS_6shdfnd6MutexTINS0_26WrapperReflectionAllocatorIhEEEENS0_14ScopedLockImplIS6_EEE17handleBufferFlushEPKhj
WP:__Z18BuildScriptClassId17ScriptingClassPtr
inl:_InternalEnumerator_1_get_Current_m4279678504_AdjustorThunk
Qnj:___BinaryWriter_WriteAssembly_m3791377533
Enp:_fmodl
bEe:_ExclusiveReference_Get_m3402132937
hoa:__ZL31DeleteLastPathNameComponentImplRKN4core12basic_stringIcNS_20StringStorageDefaultIcEEEEPKc
uPb:__Z13RegisterClassI18DelayedCallManagerEvv
DPd:__ZN18UnityConnectClient15GetCloudServiceEv
bdb:__Z29Transfer_Blittable_ArrayFieldI14SafeBinaryRead5RectTIiEEvRT_R9ArrayInfoRK23StaticTransferFieldInfo
Vrd:__ZN5physx20PxsConstraintProjectEPKNS_13PxsConstraintEbf
NLc:__ZN5physx7NpShape7setFlagENS_11PxShapeFlag4EnumEb
KGm:__ZN6il2cpp2os19SocketHandleWrapperD2Ev
zqb:__ZL28SerializationCommandGroupForRK31TransferFunctionScriptingTraits17ScriptingClassPtr17ScriptingFieldPtrRK20CoreScriptingClasses
qsa:__ZN10TagManager32RegisterDefaultTagsAndLayerMasksEv
MSf:_DateTimeFormatInfo_get_UnclonedShortTimePatterns_m2918634910
Snd:__ZN5physx2Sc35ParticleElementRbElementInteraction12onDeactivateEj
fzm:__ZN6il2cpp2vm5Class20GetBoundedArrayClassEP11Il2CppClassjb
WWg:_SynchronizationLockException__ctor_m549086841
bNd:__Z56Register_UnityEngine_Analytics_CustomEventData_AddUInt32v
BVe:_ArrayList_InsertRange_m1478230997
MVi:_NamedPermissionSet_GetHashCode_m55865882
c3:__ZN4gles8InitCapsEP7ApiGLESP12GraphicsCapsR16GfxDeviceLevelGL
R8f:_Numeric10FacetsChecker_CheckValueFacets_m287844321
i7:__ZN6prcore14BlitImageFloatERK14ImageReferenceRS0_NS0_8BlitModeE
W3o:__ZL97Socket_t3821512045_CustomAttributesCacheGenerator_Socket_t3821512045____SupportsIPv4_PropertyInfoP21CustomAttributesCache
zya:__Z24CalculateVertexLightDataRK15SharedLightDataR14GfxVertexLight
fbk:_Enumerator_MoveNextRare_m627598676_gshared
Ii:_glEnable
b$a:__ZN15dense_hashtableINSt3__24pairIKiiEEi21InstanceIDHashFunctorN14dense_hash_mapIiiS4_NS0_8equal_toIiEE13stl_allocatorIS3_L18MemLabelIdentifier1ELi16EEE9SelectKeyES7_SA_E12maybe_shrinkEv
t1l:_ComCompatibleVersionAttribute__ctor_m406675643
ZEa:__ZNK9ShaderLab7Program28BeginReadUnsupportedVariantsEv
Wyb:__ZNK25CameraStackRenderingState21GetImageEffectTextureEb
fnp:___towrite
Uof:_RuntimeMethodHandle__ctor_m2437574937_AdjustorThunk
oYa:__ZNSt3__26vectorIN30RuntimeInitializeOnLoadManager9ClassInfoE13stl_allocatorIS2_L18MemLabelIdentifier13ELi16EEE7reserveEj
y5c:__ZN5physx2Sq8AABBTreeC2Ev
s2b:__Z35Transfer_Blittable_FixedBufferFieldI9JSONWriteiEvRK29SerializationCommandArgumentsR31RuntimeSerializationCommandInfo
c4h:_UInt16_System_IConvertible_ToInt64_m2835280558_AdjustorThunk
sGn:__Z95RuntimeInvoker_Void_t1841601450_Int32_t2071877448_RuntimeObject_RuntimeObject_Int32_t2071877448PFvvEPK10MethodInfoPvPS4_
k9e:_DateTimeFormat_ParseRepeatPattern_m2709337529
WUm:__ZN14dense_hash_mapI10KeyWrapperINSt3__24pairIPK10MethodInfoP11Il2CppClassEEEj17ReflectionMapHashIS8_ENS9_14EqualsComparerINS1_8equal_toIS8_EEEENS1_9allocatorINS2_IKS9_jEEEEEC2EjRKSB_RKSF_
B5k:_ReadOnlyCollection_1_System_Collections_ICollection_get_SyncRoot_m3224010903_gshared
vBl:_AsyncTaskMethodBuilder_1_GetTaskForResult_m1442674425_gshared
dOd:__ZN11UnityEngine7Connect15DeviceInfoEvent16CollectExtraInfoEv
din:__ZN6il2cpp2os11Environment22SetEnvironmentVariableERKNSt3__212basic_stringIcNS2_11char_traitsIcEENS2_9allocatorIcEEEESA_
WZg:_Task__cctor_m838841393
Xud:__ZN5physx2Gu10ConvexMeshD2Ev
FOg:_UnicodeEncoding_GetChars_m3765282346
kHl:_Tuple_2_Equals_m248290730_gshared
PTm:__ZN6il2cpp2gc19AppendOnlyGCHashMapIPK10Il2CppTypeP20Il2CppReflectionTypeNS_8metadata14Il2CppTypeHashENS7_26Il2CppTypeEqualityComparerEEC2Ev
zcj:_Lease_Unregister_m3231982373
zwl:_InternalEnumerator_1_System_Collections_IEnumerator_get_Current_m771161214_AdjustorThunk
kqa:__ZN20ArchiveStorageReader10InitializeER15FileSystemEntryyb
Xon:__ZN6il2cpp5utils7Runtime10SetDataDirEPKc
Btf:_Aes_Create_m3450546319
M4e:_Convert_ToDouble_m4236754739
D6h:_UnitySerializationHolder_MakeElementTypes_m858790638
qMf:_EnumResult_Init_m3428816480_AdjustorThunk
hGp:_emscripten_glScissor__wrapper
boo:__ZL48Stack_t1043988394_CustomAttributesCacheGeneratorP21CustomAttributesCache
Zo:FUNCTION_TABLE_viifi
EBg:_StringMaker_CompareStringAndChars_m3848346844
s$h:_AdjustmentRule_get_DaylightTransitionEnd_m64205179
_oc:__ZNK5physx2Sc8ShapeSim10getBodySimEv
SIk:_HttpWebRequest_U3CSetWriteStreamU3Eb__261_0_m2105467703
uxk:_MonoEvent_GetAddMethod_m4289563120
$rf:_RuntimeType_CreateInstanceDefaultCtor_m966155858
seo:__ZL37Type_t_CustomAttributesCacheGeneratorP21CustomAttributesCache
xrp:__ZNKSt3__26locale5__imp9use_facetEl
FLg:_DefaultEncoder_GetByteCount_m421523473
ENm:__ZN6il2cpp2vm14TypeNameParser5ParseEb
h0o:__ZL107ProviderSettings_t873049714_CustomAttributesCacheGenerator_ProviderSettings_t873049714____Type_PropertyInfoP21CustomAttributesCache
Rln:_GC_check_finalizer_nested
lFc:__ZN5physx6shdfnd5ArrayIPvNS0_19ReflectionAllocatorINS_2Cm5BlockIhLj128EEEEEE15growAndPushBackERKS2_
fSd:__ZN23UnityPurchasingSettingsC2Ev
UJf:_Double_ToString_m1864290157
XSa:__ZNK9Transform13GetWorldScaleEv
LFk:_FtpWebRequest_set_State_m2980238653
s5o:__ZL126SystemDiagnosticsSection_t2222033606_CustomAttributesCacheGenerator_SystemDiagnosticsSection_t2222033606____Trace_PropertyInfoP21CustomAttributesCache
tMc:__ZN5physx14NpShapeManager15setupSceneQueryERNS_2Sq17SceneQueryManagerERKNS_12PxRigidActorERKNS_7NpShapeE
wJb:__ZL10RenderFaceR9GfxDeviceR18MaterialStateCacheP13RenderTextureiif
dip:_SpriteAtlasManager__cctor_m453260161
cQg:_Decoder_Reset_m2950677675
Frf:_RuntimeType_get_IsGenericTypeDefinition_m2435077166
nGk:_ProtocolViolationException__ctor_m1819718492
W6:__ZL37stbir__resample_horizontal_downsampleP11stbir__infoiPf
w$a:__ZNK5Unity9Component38MarkGameObjectAndComponentDependenciesER27GarbageCollectorThreadState
YK:__ZL16OutOfMemoryErrorjj18MemLabelIdentifieriPKc
fFg:_String__ctor_m757966614
Ywc:__ZNK5physx2Sc9ClothCore23getExternalAccelerationEv
Luj:_RecordProtocol_SendRecord_m132002114
vQ:__ZNK11TypeManager15ClassNameToRTTIEPKcb
PJm:__ZN6il2cpp6icalls8mscorlib6SystemL18GetNestedTypesImplINS_5utils10functional10TrueFilterEEEP11Il2CppArrayP20Il2CppReflectionTypeiRKT_
Vgc:__ZN5physx2Gu13coarseCullingERKNS_6PxVec3ES3_ffRKNS_10PxTriangleE
QHi:_Dictionary_2_TryGetValue_m2200444535_gshared
Ynb:__Z18Transfer_BlittableI18StreamedBinaryReadILb0EELb1EdEvRK29SerializationCommandArgumentsR31RuntimeSerializationCommandInfo
q3k:_ReadOnlyCollection_1_IsCompatibleObject_m357838305_gshared
AHp:_emscripten_glVertexAttrib2fv__wrapper
YWd:_XmlDocument_CheckName_m41187224
bJf:_Guid__ctor_m2599802704
_gi:_FileStream_get_CanRead_m4148920720
sod:__ZN5physx2Sc5Scene29processNarrowPhaseTouchEventsEv
a6:__ZN4crnd12symbol_codec32decode_receive_static_data_modelERNS_25static_huffman_data_modelE
EOb:__ZN18ScriptingArguments8AddFloatEf
tUl:_Configuration_FindLocationConfiguration_m4081437406
C5f:_DtdValidator_Push_m3200054408
RPj:_ChunkStream_get_DataAvailable_m3336621215
myp:__ZNSt3__26vectorIPNS_6locale5facetENS_15__sso_allocatorIS3_Lj28EEEE6resizeEj
VNd:__ZN11UnityEngine15PlatformWrapper16GetVRRenderScaleEv
$yc:__ZN5physx6shdfnd5ArrayIPvNS0_15InlineAllocatorILj256ENS0_19ReflectionAllocatorINS_18NpArticulationLinkEEEEEE15growAndPushBackERKS2_
s3b:__Z18Transfer_BlittableI9JSONWriteLb0EaEvRK29SerializationCommandArgumentsR31RuntimeSerializationCommandInfo
CE:__ZN11UnityEngine15CloudWebService14DataDispatcher34OnSessionContainerArchivedAndReadyERNS0_16SessionContainerE
EWf:_NumberFormatInfo_GetFormat_m3247563525
tmc:__ZNK5physx3Cct15ObstacleContext11getObstacleEj
pQj:_ConnectionManagementData_Add_m4176616933
z0a:__ZN14SafeBinaryRead19TransferSTLStyleMapINSt3__23mapIN4core12basic_stringIcNS3_20StringStorageDefaultIcEEEEiNS1_4lessIS7_EENS1_9allocatorINS1_4pairIKS7_iEEEEEEEEvRT_17TransferMetaFlags
i2i:_Assembly_Resolve_m2614621802
dMi:_DSAParameters_t1872138834_marshal_pinvoke
Y2d:_XmlNodeReader_get_LocalName_m449703579
Pji:_Stream_get_WriteTimeout_m2175815680
ncl:_UnsafeNativeMethods_GetFileMUIPath_m1744689881
JSm:__ZN6il2cpp2vm10Reflection14GetEventObjectEP11Il2CppClassPK9EventInfo
Qyg:_Publisher__ctor_m3549979789
S7l:_TlsStream_Write_m2271546135
Dam:_X509StoreManager_get_LocalMachine_m2451390246
nEk:_ResourceSet_GetObjectInternal_m2886697439
q0l:_TaskAwaiter_ValidateEnd_m4057275037
PMg:_Latin1Encoding_GetString_m3553289597
Y8c:__ZN5physx13IslandManager6resizeEj
K7b:__ZN8JSONRead8TransferI9BoundsIntEEvRT_PKc17TransferMetaFlagsb
Pa:invoke_viidi
lae:_XmlTextReaderImpl_OpenUrl_m4135983991
r6m:__ZN15dense_hashtableI10KeyWrapperIP18Il2CppGenericClassES3_N6il2cpp8metadata22Il2CppGenericClassHashEN14dense_hash_setIS3_S6_NS3_14EqualsComparerINS5_25Il2CppGenericClassCompareEEENSt3__29allocatorIS3_EEE8IdentityESA_SD_E12maybe_shrinkEv
yQb:__ZN9TextAssetC2E18MemLabelIdentifier18ObjectCreationMode
O_g:_XPathNode_get_LinePosition_m4133633654_AdjustorThunk
Ttc:__ZN5physx6shdfnd8PoolBaseINS_2Cm5BlockIPvLj16EEENS0_19ReflectionAllocatorIS5_EEE17releaseEmptySlabsEv
hlk:_List_1_System_Collections_ICollection_CopyTo_m2020941110_gshared
Ov:__ZN9AudioClip7CleanupEv
cYj:_DnsHeader_set_IsQuery_m1962840289
U9g:_ServicePoint_KeepAliveSetup_m3738716897
PEg:_String_IsNullOrWhiteSpace_m1155663751
dnc:__ZL20updateMassAndInertiabRN5physx11PxRigidBodyEPKfjPKNS_6PxVec3Eb
l6b:__Z18Transfer_BlittableI8JSONReadLb0EdEvRK29SerializationCommandArgumentsR31RuntimeSerializationCommandInfo
BGd:__ZN5physx24NpPtrTableStorageManagerC2Ev
qXk:_Enumerator_get_Current_m922470910_gshared
Jtg:_RegistryPermission_KeyIsSubsetOf_m3631046285
one:_StringFacetsChecker_CheckValueFacets_m2241437937
XZ:__ZNK9GfxDevice13GetViewMatrixEv
prk:_SymbolType_GetFields_m211599535
P1c:__ZN5physx7NpScene15flushSimulationEb
HKc:__ZN5physx6shdfnd8PoolBaseINS_10NpMaterialENS0_19ReflectionAllocatorIS2_EEE12allocateSlabEv
xR:__ZN8TypeTree8BlobReadERPKhS1_ib
qUg:_InternalThread_Thread_free_internal_m3059820987
Byd:__ZN5physx18ReducedVertexCloudC2EPKNS_6PxVec3Ej
VYa:__ZN18LoadSceneOperation23GetAllowSceneActivationEv
yva:__ZN6CameraD0Ev
n1e:_ConsoleCancelEventArgs__ctor_m4153882707
lfj:_MethodCall__ctor_m1484980061
sgl:_ModulusRing_Multiply_m386339435
VW:__ZN31CanvasBatchIntermediateRenderer16StaticInitializeEPv
cYa:__ZN14SafeBinaryRead21TransferSTLStyleArrayINSt3__26vectorIi13stl_allocatorIiL18MemLabelIdentifier13ELi16EEEEEEvRT_17TransferMetaFlags
c5e:_Decimal_op_Implicit_m4246329390
wKb:__ZN10GameObjectC2E18MemLabelIdentifier18ObjectCreationMode
j0j:_ListDictionary_GetEnumerator_m1511032609
Ork:_TypeBuilder_get_FullName_m1626507516
$ue:_XmlNumeric10Converter_ToDecimal_m1190993860
Pkf:_SerializationInfo__ctor_m4016423422
SKd:__Z48Rigidbody_CUSTOM_INTERNAL_CALL_AddExplosionForceP12Il2CppObjectfRK8Vector3fffi
jaa:__ZL18ProgramUniform1uivPK7ApiGLESjiihPKv
USb:__ZN14Texture2DArray13RebuildMipMapEv
ZCg:_Tokenizer_GetStringToken_m2051129683
cbb:__Z18Transfer_BlittableI14SafeBinaryReadLb1EaEvRK29SerializationCommandArgumentsR31RuntimeSerializationCommandInfo
ZIk:_AuthorizationState_get_IsCompleted_m362634372_AdjustorThunk
M4a:__ZN9ShaderLab20SerializedSubProgram14AddVectorParamEPKcii15ShaderParamTypei
K9d:_XmlTextReaderImpl_get_Depth_m112606836
jFk:_WriteDelegate_BeginInvoke_m1454071783
cmi:_StringWriter_Write_m2596694237
MDh:_Array_InternalArray__Insert_TisHS_t1739780518_m1668651438_gshared
Mzg:_SystemException__ctor_m2688248668
Irf:_RuntimeType_get_GenericParameterPosition_m1342057697
Mlg:_PKCS12_RemoveCertificate_m1590055870
Osb:__ZN13ScreenManager18SetAllowCursorLockEb
WF:__ZN11UnityEngine15CloudWebService10RestClientINS0_23WebRequestRestHeaderMapEE16SetRequestHeaderERKN4core12basic_stringIcNS4_20StringStorageDefaultIcEEEESA_
hYa:__ZN30RuntimeInitializeOnLoadManager15ClassMethodInfo8TransferI14SafeBinaryReadEEvRT_
Bbe:_XmlTextReaderImpl_ReadAttributeValue_m2185273005
MQg:_UTF8Encoding_GetChars_m520563998
uC:__ZL22InitializeModule_Audiov
B9c:__ZN5physx2Sq11PruningPoolD0Ev
Z8a:__ZN16MemoryFileSystem8IsLockedERK13FileEntryData
thd:__ZN3MBP15removeBoxPrunerEj
U$m:__ZN6il2cpp6icalls8mscorlib6System2IO6MonoIO5WriteEiP11Il2CppArrayiiPi
dYj:_DnsHeader_get_OpCode_m625039971
pl:_emscripten_glBindRenderbuffer
nkh:_DesignerWebRequestCreate_Create_m826084447
F5e:_DateTimeParse_DateTimeOffsetTimeZonePostProcessing_m4232279387
Gln:_GC_dirty_init
wrg:_Array_Copy_m1969461849
kSg:_CancellationToken_Equals_m3900063290_AdjustorThunk
z5m:__ZN6il2cpp2vm5Image33GetCachedMemoryMappedResourceFileEP24Il2CppReflectionAssembly
Z8m:__ZN6il2cpp2vm5Field14GetValueObjectEP9FieldInfoP12Il2CppObject
gJg:_EncoderExceptionFallback_GetHashCode_m2071009120
bwn:__Z115RuntimeInvoker_TimeSpan_t3430258949_DateTime_t693205669_RuntimeObject_BooleanU26_t3168250738_BooleanU26_t3168250738PFvvEPK10MethodInfoPvPS4_
FSf:_DateTimeFormatInfo_get_AllLongDatePatterns_m2865068184
YGe:_RegexNode_StripEnation_m1598326258
BFj:_ReferenceComparer_Compare_m1621937694
tec:__ZL15SweepBoxCapsulePKN5physx3Cct9SweepTestEPKNS0_11SweptVolumeEPKNS0_11TouchedGeomERKNS_14PxExtendedVec3ERKNS_6PxVec3ERNS0_12SweptContactE
MU:__ZN6Object17FindObjectsOfTypeEPKN5Unity4TypeER13dynamic_arrayIPS_Lj4EEb
QSg:_CancellationTokenRegistration_GetHashCode_m927118037_AdjustorThunk
JVi:_NamedPermissionSet_FromXml_m489048261
tth:_Array_QSortArrange_TisUInt64_t2909196914_TisRuntimeObject_m3114034519_gshared
Zpb:__ZN13MonoBehaviour17RemoveFromManagerEv
pIf:_XmlListConverter_ToArray_TisUInt32_t2149682021_m1831410587_gshared
Zsd:__ZN5physx2Sc19ParticlePacketShapeD2Ev
uNa:__ZL11DecodeValuePPKcS0_
Guk:_FieldInfo_SetValueDirect_m1857239302
Ovg:_UrlIdentityPermission_Copy_m2964323524
bJ:__ZN13MemoryManagerC2Ev
i9d:_XmlTextReaderImpl_PushInternalEntity_m3232801104
Gda:__ZN12SkinMeshInfo10DeallocateEPS_
Epa:__ZN20ArchiveStorageReader28AcquireAndPrefillUnusedBlockEjPNS_11CacheResultE
OSb:__Z12NHxRoughnessIA4_tEvP9Texture2DPT_iiii
gV:__ZN18AsyncUploadManagerD2Ev
B6a:__ZN9Transform5ResetEv
Jgf:_FormatterServices_GetSerializableMembers_m2557955275
Nhb:__Z22TransferField_NonArrayI24GenerateTypeTreeTransfer16Converter_StringEvRK23StaticTransferFieldInfoR31RuntimeSerializationCommandInfoRT0_
rAi:_Enumerator_System_Collections_IEnumerator_Reset_m174516854_AdjustorThunk
VEk:_AsyncMethodBuilderCore_PostBoxInitialization_m2714853869_AdjustorThunk
Hsb:__Z17MainLoopKeepalivePv
Kwc:__ZN5physx7NpScene16addActorInternalERNS_7PxActorE
_Ni:_HMACSHA512__ctor_m1667460019
itk:_TypeBuilderInstantiation_InflateType_m799626073
Vmp:_printf_core
IKn:__Z136RuntimeInvoker_IntPtr_t_RuntimeObject_Int32_t2071877448_Int32_t2071877448_Int32_t2071877448_Int32_t2071877448_MonoIOErrorU26_t1029615899PFvvEPK10MethodInfoPvPS4_
EHb:__Z14CalcHullBoundsPK8Vector3fPKhhRK5PlaneRK10Matrix4x4fR10MinMaxAABB
e0o:__ZL140ProtectedConfigurationSection_t3541826375_CustomAttributesCacheGenerator_ProtectedConfigurationSection_t3541826375____Providers_PropertyInfoP21CustomAttributesCache
Rbg:_SchemaCollectionCompiler_GetComplexType_m4165276588
qAb:__Z19SetupLODFadeKeywordR17ShaderPassContexti
jda:__ZL25CheckCopyTextureArgumentsRK7ApiGLESP11GLESTextureS3_
uNj:_DeflateStreamNative_Finalize_m2579083797
G$h:_TimeZoneInfo_TryGetTimeZoneByRegistryKey_m2912315591
yZa:__ZN13dynamic_arrayI26EnlightenSystemInformationLj8EE6insertEPS0_PKS0_S4_
fhb:__ZN8GUIStyle8TransferI24GenerateTypeTreeTransferEEvRT_
Rsh:_Array_QSortArrange_TisInt64_t909078037_m4026437715_gshared
lYi:_MulticastNotSupportedException__ctor_m2164514827
daf:_DateTime_System_IConvertible_ToChar_m2489529194_AdjustorThunk
VMl:_Dictionary_2_TryGetValue_m4275927083_gshared
khb:__Z29Transfer_Blittable_ArrayFieldI24GenerateTypeTreeTransferyEvRT_R9ArrayInfoRK23StaticTransferFieldInfo
y3j:_AttributeCollection__cctor_m2801958540
M2e:_Decimal_ToInt32_m2037874519
zw:__ZN4FMOD7SystemI9playSoundE17FMOD_CHANNELINDEXPNS_5SoundEbPPNS_7ChannelE
KJd:__ZN13PhysicsModule31GetColliderComponentsInChildrenERK10GameObjectbbR13dynamic_arrayIPN5Unity9ComponentELj4EE
rUa:__ZN19StreamedBinaryWriteILb0EE21TransferSTLStyleArrayINSt3__26vectorI17SubstanceEnumItemNS2_9allocatorIS4_EEEEEEvRT_17TransferMetaFlags
kUg:_Interlocked_Decrement_m70525859
Y8d:_XmlTextReaderImpl_Throw_m395333686
BNm:__ZN6il2cpp2os4File4ReadEPNS0_10FileHandleEPciPi
$u:__ZN12AudioManager23VirtualRedirectTransferER18StreamedBinaryReadILb0EE
eVl:_Configuration_GetSectionXml_m1792995434
Npp:_realloc
PZd:_XmlDocument_get_Encoding_m3112642704
VCp:dynCall_viif
Sxk:_MonoField_get_DeclaringType_m1591666235
Umj:___BinaryWriter_WriteUInt32_m1252594391
Srd:__ZN5physx2Sc24ConstraintProjectionTree11projectPoseERNS0_19ConstraintGroupNodeE
Seb:__ZL26Transfer_SimpleNativeClassI17RemapPPtrTransfer8GradientLb0EEvRK29SerializationCommandArgumentsR31RuntimeSerializationCommandInfo
YQl:_GenericComparer_1_Compare_m3799851379_gshared
SJd:__ZN13PhysicsModule29GetColliderMaterialInstanceIDER8Collider
XXk:_Collection_1_Contains_m225961061_gshared
EG:__ZN13UploadHandlerD2Ev
MVo:__ZL102XmlSchemaAll_t1805755215_CustomAttributesCacheGenerator_XmlSchemaAll_t1805755215____Items_PropertyInfoP21CustomAttributesCache
Nc:_emscripten_glBlendFuncSeparate
Ade:_NodeData_System_IComparable_CompareTo_m2428226847
HN:__Z20scripting_string_newPKc
ZGk:_FtpWebResponse_CheckDisposed_m1532914452
J_h:_TimeZoneInfo_CreateAdjustmentRulesFromTimeZoneInformation_m1075239538
Xei:_Directory_GetCurrentDirectory_m44486537
K4m:__ZNK24NamespaceAndNamePairHashclERKNSt3__24pairIPKcS3_EE
y7j:_Enumerator_MoveNext_m4102275309_gshared
DJi:_Dictionary_2_Resize_m1092877474_gshared
Q1b:__ZN9JSONWrite12AppendToNodeEPN5Unity9rapidjson12GenericValueINS1_4UTF8IcEE13JSONAllocatorEEPKcRS6_
TMf:_Environment_get_Is64BitProcess_m298139871
fNe:_Uri_CheckAuthorityHelperHandleDnsIri_m2515373427
Pkh:_AsnEncodedData_Default_m4197142414
fWi:_EnvironmentPermission_IsSubsetOf_m1252378883
Svm:__ZN6il2cpp6icalls8mscorlib6System7Decimal13FCallTruncateEP13Il2CppDecimal
Tvd:__ZThn8_N5physx2Gu11HeightFieldD1Ev
PAc:__ZNK5physx19PxArticulationJoint19getConcreteTypeNameEv
gu:__ZN17AudioCustomFilterD2Ev
azg:_FileCodeGroup_Copy_m2713630122
xwe:_XmlSchemaAny__ctor_m3272281344
Vba:__ZN18GfxFramebufferGLES18ReleaseFramebufferEP17RenderSurfaceBaseP14GfxContextGLES
Q5l:_Context_GetDynamicPropertyCollection_m1987747444
Fmh:_X509Certificate2_get_Version_m1927399907
CVb:__ZN13ProduceHelperI6CameraLb0EE7ProduceE18MemLabelIdentifier18ObjectCreationMode
aI:__ZN19CloudServiceHandler34HandleSaveFileWebRequestPlayerLoopEv
sTg:_ExecutionContext_set_isFlowSuppressed_m427007348
Qt:__Z31GetParentSampleClipFromInstancePN11SoundHandle8InstanceE
ZQb:__ZNK28RectTransformPropertyBinding13GetFloatValueERKN11UnityEngine9Animation10BoundCurveE
TJb:__ZN6Camera22StandaloneCustomRenderENS_10RenderFlagEP6ShaderRKN4core12basic_stringIcNS3_20StringStorageDefaultIcEEEEPNS_21PerformRenderFunctionE
zXa:__ZNSt3__26vectorI4PPtrI6ObjectE13stl_allocatorIS3_L18MemLabelIdentifier52ELi16EEE6assignINS_11__wrap_iterIPS3_EEEENS_9enable_ifIXaasr21__is_forward_iteratorIT_EE5valuesr16is_constructibleIS3_NS_15iterator_traitsISD_E9referenceEEE5valueEvE4typeESD_SD_
wZc:__ZL22addOrRemoveRigidObjectILb0ELb0ELb0ELb1EN5physx3Scb11RigidStaticEEvRNS0_2Sc5SceneERT3_b
Brn:__ZN6il2cpp2os16ThreadLocalValue8GetValueEPPv
jFm:__ZN6il2cpp2vm13MetadataCache14GetGenericInstEPKPK10Il2CppTypej
xC:__ZN13AudioListener17ReadExtensionNameEi
v4l:_ChannelInfo__ctor_m2502026239
od:_glUniform1uiv
Q_l:_ProviderCollection_get_Count_m1651598797
dsc:__ZNK5physx2Gu19SupportMapLocalImplINS0_11ConvexHullVEE18doWarmStartSupportEiRNS_6shdfnd3aos5Vec3VE
duc:__ZN5physx6shdfnd4sortIPvNS0_4LessIS2_EENS0_19ReflectionAllocatorINS_2Cm5BlockIS2_Lj8EEEEEEEvPT_jRKT0_RKT1_j
oKc:__ZNK5physx9NpPhysics11getNbShapesEv
Ip:setThrew
GSb:__ZL21BuildEmptyCubeTexturePKci11ColorRGBA3217TextureColorSpace
C0a:__ZN14SafeBinaryRead21TransferSTLStyleArrayINSt3__26vectorIN9ShaderLab20SerializedSubProgramENS1_9allocatorIS4_EEEEEEvRT_17TransferMetaFlags
m7g:_Compiler_CompileIdentityConstraint_m379138531
k5b:__Z15Transfer_StringI8JSONReadLb1EEvRK29SerializationCommandArgumentsR31RuntimeSerializationCommandInfo
E8:__ZN6prcoreL17RemapGenericFloatI17TexFormatRGBFloat15TexFormatRGHalfEEvPKNS_9InnerInfoE
IBb:__Z25DoForwardShaderRenderLoopR17RenderLoopContextR13dynamic_arrayI16RenderObjectDataLj4EERK11CullResultsbbbN6Camera10RenderFlagE
hlg:_PKCS12_GetSymmetricAlgorithm_m1812022677
tQg:_UTF8Encoding_GetByteCount_m2372933408
oCf:_AsyncTaskMethodBuilder_1_Start_TisU3CWaitUntilCountOrTimeoutAsyncU3Ed__31_t2134975265_m1051177646_gshared
JHg:_ASCIIEncoding_GetDecoder_m3693600923
pJk:_HttpWebResponse_System_IDisposable_Dispose_m3100301154
xqj:_ARC4Managed_GenerateKey_m716135508
g3g:_DtdParser_EatSystemKeyword_m2758396562
hie:_XmlSchemaAnyAttribute_BuildNamespaceListV1Compat_m3874896722
ldc:__ZN5physx2Gu20intersectTriangleBoxERKNS_6PxVec3ES3_S3_S3_S3_
lLm:__Z57ves_icall_System_Threading_ThreadPool_RequestWorkerThreadv
jJc:__ZN5physx10NpMaterial8setFlagsENS_7PxFlagsINS_14PxMaterialFlag4EnumEtEE
CI:__ZN13BaseAllocator13TryDeallocateEPv
l_l:_IgnoreSection_SerializeSection_m1724288736
hrg:_Array_CreateInstance_m1054139389
Rdm:_CSSMeasureFunc_BeginInvoke_m4183811749
qxa:__ZNSt3__26vectorIN12FlareManager10FlareEntryENS_9allocatorIS2_EEE21__push_back_slow_pathIKS2_EEvRT_
ggf:_MemberReference_Read_m107841933
gRi:_SHA1_Create_m4086509717
Ofn:__ZN6il2cpp6icalls8mscorlib6System17RuntimeTypeHandle23type_is_assignable_fromEP20Il2CppReflectionTypeS5_
aUi:_X509Certificate_get_IsValid_m1241018479
Eyk:_MonoMethodInfo_GetMethodInfo_m3298558752
Iu:__ZN13AudioListener17RemoveFromManagerEv
Kd:_glAttachShader
R$h:_TransitionTime_op_Inequality_m2726312532
VEd:__ZN5physx6shdfnd8internal8HashBaseINS0_4PairIKtPKcEEtNS0_4HashItEENS1_11HashMapBaseItS6_S9_NS_7profile26WrapperReflectionAllocatorIS6_EEE6GetKeyESD_Lb1EE6createERS4_Rb
Pta:__ZNK6Camera19GetProjectionMatrixEv
I2c:__ZNK5physx7NpScene24getWakeCounterResetValueEv
mYj:_DnsHeader_get_QuestionCount_m4000178986
X1e:_ConsoleKeyInfo_Equals_m167905607_AdjustorThunk
lqd:__ZNK5physx16PxsSolverEndTask7getNameEv
TIf:_StackTrace__ctor_m2404985356
Ywh:_Array_InternalArray__IndexOf_TisDS_t769197341_m420538354_gshared
_jd:__ZN5physx2Gu32PCMConvexVsMeshContactGeneration20generateLastContactsEv
DP:__Z38PreallocateObjectFromPersistentManagerib
Dzg:_NetCodeGroup_Resolve_m71716657
uaf:_DateTime_System_IConvertible_ToSingle_m3927769066
Cvp:__ZNSt3__211__money_getIwE13__gather_infoEbRKNS_6localeERNS_10money_base7patternERwS8_RNS_12basic_stringIcNS_11char_traitsIcEENS_9allocatorIcEEEERNS9_IwNSA_IwEENSC_IwEEEESJ_SJ_Ri
tJc:__ZThn12_N5physx10NpMaterialD0Ev
XIa:__ZNK9Texture2D20GetUnscaledTextureIDEv
z6o:__ZL66TypeDescriptorComObject_t2250835238_CustomAttributesCacheGeneratorP21CustomAttributesCache
Sgf:_ObjectReader_GetType_m4192278259
A2e:_Convert_ToSByte_m883113940
Czd:__ZN5physx6shdfnd4sortIjNS_19SortBoundsPredicateENS0_19ReflectionAllocatorIjEEEEvPT_jRKT0_RKT1_j
GUg:_ManualResetEventSlim_get_WaitHandle_m2968083808
TLc:__ZN5physx7NpShape14onRefCountZeroEv
zzf:_Array_Sort_TisBoolean_t3825574718_m2555015387_gshared
$qf:_RuntimeType_IsContextfulImpl_m774791549
wLn:__Z81RuntimeInvoker_Void_t1841601450_RuntimeObject_Int16_t4041245914_Int32_t2071877448PFvvEPK10MethodInfoPvPS4_
eyh:_Array_InternalArray__IndexOf_TisContactPoint_t1376425630_m3651364246_gshared
$ph:_Array_InternalArray__ICollection_Contains_TisXmlSchemaObjectEntry_t2510586510_m1644602695_gshared
jWn:__Z146RuntimeInvoker_Int32_t2071877448_IntPtr_t_RuntimeObject_Int32_t2071877448_Int32_t2071877448_Int32_t2071877448_Int32U26_t455636984_SByte_t454417549PFvvEPK10MethodInfoPvPS4_
$yd:__ZL15TestContainmentRKN5physx6PxVec3EPKfjPKNS_2Gu15HullPolygonDataE
v8h:_CFRange__ctor_m2744645256_AdjustorThunk
ypf:_RuntimeType_GetMethodsByName_native_m297513071
kZf:_TimeSpanRawInfo_FullDMatch_m433011100
aJa:__ZNK9Texture2D26CanReuploadDataToGfxDeviceEv
OZg:_Task_ContinueWith_m1310667952
Lkg:_Uri_GetHashCode_m1909511864
LZa:__Z29ClearRepeatingLogMessageStatev
awd:__ZN5physx2Gu11HeightField12loadFromDescERKNS_17PxHeightFieldDescEb
zU:__ZN21EnlightenSceneMappingaSERKS_
YTg:_Reader_IsDefaultFTContext_m1727359543_AdjustorThunk
Mli:_StreamWriter__cctor_m1332667003
w3l:_SafeHandle_DangerousReleaseInternal_m1708289644
WDg:_Single_System_IConvertible_ToUInt32_m2447833283
tPh:_XmlElementAttribute__ctor_m18315227
Pha:__ZN7ApiGLESD2Ev
o_j:_SystemCertificateValidator_CreateX509Chain_m1514637186
Kra:__ZN9Transform47ClearTransformHierarchyAndApplyToSerializedDataEv
etl:_InternalEnumerator_1_get_Current_m4083613828_AdjustorThunk
O$c:__ZN5physx6shdfnd8PoolBaseINS_2Gu30LargePersistentContactManifoldENS0_19ReflectionAllocatorIS3_EEE12allocateSlabEv
z6b:__ZN8JSONRead21TransferSTLStyleArrayINSt3__26vectorI8MonoPPtr13stl_allocatorIS3_L18MemLabelIdentifier1ELi16EEEEEEvRT_17TransferMetaFlags
wPi:_RijndaelManaged_GenerateKey_m3366247933
Eva:__ZN6Camera23VirtualRedirectTransferER19StreamedBinaryWriteILb0EE
mDp:dynCall_fidi
OPm:__ZN15dense_hashtableINSt3__24pairIK10KeyWrapperINS1_IPK9FieldInfoP11Il2CppClassEEEjEES9_17ReflectionMapHashIS8_EN14dense_hash_mapIS9_jSD_NS9_14EqualsComparerINS0_8equal_toIS8_EEEENS0_9allocatorISB_EEE9SelectKeyESI_SK_E12resize_deltaEjj
cod:__ZN5physx20getVertexEdgeIndicesERKNS_2Gu11HeightFieldEjjjPNS_8EdgeDataE
U4c:__ZN5physx6shdfnd5ArrayIPNS_2Sc8BodyCoreENS0_19ReflectionAllocatorIS4_EEE6resizeEjRKS4_
Jlc:__ZN5physx3Cct26CharacterControllerManager16createControllerERNS_9PxPhysicsEPNS_7PxSceneERKNS_16PxControllerDescE
AQi:_RSACryptoServiceProvider_Common_m3652682932
jhf:_ObjectMapInfo_isCompatible_m2599822686
eMp:b122
Gua:__ZN15dense_hashtableINSt3__24pairIKN9ShaderLab7Program23ShaderKeywordSetAndHashEPKNS2_10SubProgramEEES4_NS3_24ShaderKeywordHashFunctorEN14dense_hash_mapIS4_S8_SA_NS0_8equal_toIS4_EE13stl_allocatorIS9_L18MemLabelIdentifier67ELi16EEE9SelectKeyESD_SG_E15insert_noresizeERKS9_
bUa:__ZN14SubstanceInput8TransferI24GenerateTypeTreeTransferEEvRT_
z6d:_XmlRegisteredNonCachedStream_BeginRead_m1081636321
LHk:_HttpWebRequest_get_ClientCertificates_m211130650
Ae:_SDL_FreeRW
$7c:__ZN5physx6shdfnd8PoolBaseINS_2Cm5BlockIhLj128EEENS0_19ReflectionAllocatorIS4_EEE15disposeElementsEv
B4i:_ModuleBuilder_CreateGlobalType_m2419987093
HRi:_SHA1Internal_FillBuff_m891541953
fye:_XmlSchemaComplexType__ctor_m1080919982
yWj:_CFNetwork_GetProxiesForAutoConfigurationScript_m3182664809
dUc:__ZN5physx3Scb14ParticleSystem14setRestOffsetsEjRKNS_16PxStrideIteratorIKjEERKNS2_IKfEE
l6g:_BaseValidator_SendValidationEvent_m2460678999
m_e:_LowLevelComparer__cctor_m3634803186
iA:__ZN20SoundChannelInstance8getDelayE14FMOD_DELAYTYPEPjS1_
xal:_KeyHandler_get_MachineStore_m617211204
LWd:_XmlReaderSettings_ReadSettingsFromRegistry_m50321882
PQi:_RSACryptoServiceProvider_Encrypt_m1159692509
N3f:_Datatype_unsignedLong_Compare_m1753334391
fLe:_RegexInterpreter_Backwardnext_m40975642
w:tempBigInt
Ie:_emscripten_glVertexAttrib1fv
h1a:__ZNSt3__26vectorIN9ShaderLab20SerializedSubProgram12UAVParameterENS_9allocatorIS3_EEE7reserveEj
Zzp:__ZSt11__terminatePFvvE
I3c:__ZN5physx13NpVolumeCacheC2EPNS_2Sq17SceneQueryManagerEjj
$uc:__ZThn24_N5physx2Sc20ArticulationJointSimD1Ev
Nsh:_Array_QSortArrange_TisInt32_t2071877448_m2646575778_gshared
Zw:__ZN12AudioManager14systemCallbackEP11FMOD_SYSTEM24FMOD_SYSTEM_CALLBACKTYPEPvS3_
qYm:__ZN6il2cpp2vm6Thread10InitializeEP12Il2CppThreadP12Il2CppDomain
oMh:_XsdBuilder_InitSelector_m3010522516
eUc:__ZN5physx2Sc18ParticleSystemCore14setRestOffsetsEjRKNS_16PxStrideIteratorIKjEERKNS2_IKfEE
Cdc:__ZN5physx2Gu16testPolyDataAxisERKNS0_8CapsuleVERKNS0_13PolygonalDataEPNS0_12SupportLocalERKNS_6shdfnd3aos6FloatVERSB_RNSA_5Vec3VE
WCa:__ZN16ReflectionProbes16UpdateSampleDataEv
MEh:_Array_InternalArray__Insert_TisParsingState_t1278724163_m2614239353_gshared
Sxc:__ZN5physx2Sc17ParticleSystemSimD0Ev
tTa:__ZN18ProceduralMaterial23VirtualRedirectTransferER17RemapPPtrTransfer
C3l:_SafeHandle_Finalize_m1839546519
_0d:_XmlNamedNodeMap_FindNodeOffset_m2281491201
Jel:_SimpleCollator_IndexOfOrdinal_m2442853114
bsa:__ZN14BatchAllocator6CommitE18MemLabelIdentifier
PNi:_Utils__ProduceLegacyHmacValues_m1382935307
GCe:_X509EnhancedKeyUsageExtension_Decode_m3866320499
rZi:_NumberFormatter_AppendIntegerStringWithGroupSeparator_m1401773574
_Nm:__ZNK6il2cpp2vm14TypeNameParser10NextWillBeEcb
ef:_JS_Sound_Play
_bd:__ZN5physx6shdfnd5slerpEfRKNS_6PxQuatES3_
iqn:__ZN6il2cpp6icalls8mscorlib4Mono13Globalization7Unicode13Normalization27load_normalization_resourceEPiS6_S6_S6_S6_S6_
Lsp:__ZNSt3__219__libcpp_asprintf_lEPPcP15__locale_structPKcz
iNn:__Z181RuntimeInvoker_Void_t1841601450_RuntimeObject_Int32_t2071877448_Int32_t2071877448_RuntimeObject_Int32_t2071877448_Int32_t2071877448_RuntimeObject_Int32_t2071877448_Int32_t2071877448PFvvEPK10MethodInfoPvPS4_
d0a:__ZN9ShaderLab16SerializedShader8TransferI14SafeBinaryReadEEvRT_
yTb:__ZN19ShaderPropertySheet16SetVectorIndexedEN9ShaderLab16FastPropertyNameEifRK8Vector4fNS_8SetFlagsE
Oq:__ZN14SafeBinaryRead21TransferSTLStyleArrayIN4core12basic_stringIcNS1_20StringStorageDefaultIcEEEEEEvRT_17TransferMetaFlags
Bjj:_RemotingConfiguration_RegisterWellKnownServiceType_m2491506630
eeh:_Socket_Disconnect_m1402453862
yEo:__ZL55_TypeBuilder_t2783404358_CustomAttributesCacheGeneratorP21CustomAttributesCache
FWm:__ZN15dense_hashtableINSt3__24pairIK10KeyWrapperINS1_IP11Il2CppClassjEEES4_EES6_N6il2cpp8metadata14ArrayClassHashEN14dense_hash_mapIS6_S4_SB_NS6_14EqualsComparerINSA_17ArrayClassCompareEEENS0_9allocatorIS8_EEE9SelectKeyESF_SH_E9copy_fromERKSK_j
YIi:_Dictionary_2_System_Collections_IDictionary_GetEnumerator_m2259454738_gshared
JH:__ZN11UnityEngine15CloudWebService14DataDispatcher4StopEv
uOf:_JapaneseCalendar_EraNames_m2526014648
j1a:__ZNSt3__26vectorIN9ShaderLab20SerializedSubProgram12UAVParameterENS_9allocatorIS3_EEE8__appendEj
mKj:_PerfCounterSection_get_Properties_m2899922994
NAj:_TypeConverter_ConvertFrom_m3174062747
uhj:_TrackingServices_NotifyMarshaledObject_m3597547668
SYf:_TimeSpanRawInfo_ProcessToken_m1592764576
Uma:__ZN17ScriptingGCHandle7AcquireE18ScriptingObjectPtr25ScriptingGCHandleWeakness
Caj:_ModuleBuilder_getToken_m111203084
o5i:_ConstructorBuilder_not_supported_m3687319507
RBl:_ConditionalWeakTable_2__ctor_m3945060102_gshared
JWl:_ConfigurationProperty_ConvertToString_m137757750
c_h:_TimeZoneInfo_TZif_GetZoneAbbreviation_m3150850552
UPi:_RIPEMD160Managed_MDTransform_m2051237836
htk:_TypeBuilderInstantiation_InflateType_m3073955193
Rgk:_List_1_RemoveAll_m1131472556_gshared
ZDg:_Single_System_IConvertible_ToInt64_m3555853323_AdjustorThunk
vDo:__ZL61Context_t502196753_CustomAttributesCacheGenerator_local_slotsP21CustomAttributesCache
oSf:_DateTimeFormatInfo_internalGetAbbreviatedMonthNames_m1814647955
Kyh:_TaskFactory_1_FromAsyncTrim_TisRuntimeObject_TisRuntimeObject_m1205811994_gshared
E6:__Z21HasAlphaTextureFormat13TextureFormat
MB:__ZN12AudioManager6UpdateEv
x6:__ZN14ImageReference9BlitImageERKS_NS_8BlitModeE
ywg:_PermissionSet_CasOnlyDemand_m4066014621
jjf:_ObjectReader_RegisterObject_m4098046951
UQi:_RSAEncryptionPadding_Equals_m2718101767
Ccc:__ZNK5physx2Gu16SupportLocalImplINS0_11ConvexHullVEE9doSupportERKNS_6shdfnd3aos5Vec3VERNS5_6FloatVESA_
Sqb:__ZN23CachedSerializationDataD2Ev
TIb:__ZNK25CameraStackRenderingState31CalculateStereoCameraTargetTypeEv
xCa:__ZN14RenderSettings23VirtualRedirectTransferER14SafeBinaryRead
kCg:_SecurityManager_ResolveIdentityPermissions_m1481575524
pVd:_XmlConvert_ToBoolean_m1218506242
$bn:__ZN6il2cpp2os10ThreadImpl15CurrentThreadIdEv
qXi:_HostProtectionPermission_Intersect_m2022349535
Cnm:_AudioExtensionManager_WriteExtensionProperties_m4015275001
Zlm:_Nullable_1_get_Value_m3600185652_gshared
zra:__Z17IsObjectAvailablei
AUa:__ZN12InputManagerD0Ev
Oki:_U3CU3Ec_U3Cget_AsyncWaitHandleU3Eb__12_0_m2422421757
Apn:__ZN6il2cpp6icalls8mscorlib6System11Diagnostics10StackTrace9get_traceEP15Il2CppExceptionib
UKp:_glDeleteSync__wrapper
BOg:_UnicodeEncoding_GetBytes_m1337660232
wEc:__ZN5physx2Sc9RigidCore20removeShapeFromSceneERNS0_9ShapeCoreEb
REd:__ZN5physx6shdfnd8internal8HashBaseINS0_4PairIKPKcjEES5_NS0_4HashIS5_EENS1_11HashMapBaseIS5_jS9_NS_7profile26WrapperReflectionAllocatorIjEEE6GetKeyESD_Lb1EE15reserveInternalEj
VWh:_Volatile_Read_m691241342
uie:_XmlSchemaException_CreateMessage_m974845933
QJe:_RegexCharClass_IsECMAWordChar_m3027135773
Spp:_posix_memalign
PTb:__ZN13ProduceHelperI12MeshRendererLb0EE7ProduceE18MemLabelIdentifier18ObjectCreationMode
xzd:__ZN5physx11RTreeCooker18buildFromTrianglesERNS_2Gu5RTreeEPKNS_6PxVec3EjPKtPKjjRNS_6shdfnd5ArrayIjNSB_19ReflectionAllocatorIjEEEEPNS0_13RemapCallbackEfNS_17PxMeshCookingHint4EnumE
oBe:_X509ChainImpl_Finalize_m1855493920
e3j:_StringDictionary_GetEnumerator_m2202077700
Q6f:_FacetsCompiler_ParseFacetValue_m1538097815
z9e:_DateTime_ToLongTimeString_m2023388196_AdjustorThunk
GP:__ZNK15MonoScriptCache7ReleaseEv
Azm:__ZN6il2cpp2vm5Class13HasReferencesEP11Il2CppClass
Eld:__ZN5physx9PxTaskMgrC2EPNS_15PxCpuDispatcherEPNS_15PxGpuDispatcherEPNS_15PxSpuDispatcherE
ug:_glBindTexture
Qnp:_snprintf
zHp:_emscripten_glVertexAttrib1fv__wrapper
i$a:__Z36scripting_liveness_calculation_begin17ScriptingClassPtriPFvPP12Il2CppObjectiPvES3_PFvvES7_
CYj:_DnsPacket_ReadName_m1993749079
vfa:__ZN16UniformCacheGLES6CreateERK20GpuProgramParameters
l5h:_UInt64_CompareTo_m3513742483
gyh:_Array_InternalArray__IndexOf_TisPlayableBinding_t2498078091_m398853908_gshared
fLg:_Encoding_GetString_m1894033578
_yl:_Nullable_1_Equals_m3860982732_gshared
ZFp:_emscripten_glGetProgramInfoLog__wrapper
QQ:__ZN17PersistentManager23DestroyFromFileInternalEi
iZl:_ProviderSettings_get_Type_m525859805
IGg:_TermInfoDriver_AddToBuffer_m3582367680
Tdf:_Decimal_System_IConvertible_ToChar_m2425091200_AdjustorThunk
XBb:__Z19SetupMotionMatricesR6CameraR18RPDataMotionVector
RLf:_Enum_ToString_m2112979707
$8n:__Z92RuntimeInvoker_RuntimeObject_Scene_t1684909666_Scene_t1684909666_RuntimeObject_RuntimeObjectPFvvEPK10MethodInfoPvPS4_
ZNh:_XsdDuration__ctor_m3979164466_AdjustorThunk
Mgj:_MonoMethodMessage_get_MethodName_m3580519713
Tuj:_RecordProtocol_encryptRecordFragment_m1241873183
Mbd:__ZN5physx19PxsMaterialCombiner24combineIsotropicFrictionERKNS_15PxsMaterialDataES3_
d3j:_StringDictionary_Add_m4083181659
FMj:_DeflateStream__ctor_m450635905
cte:_XmlBaseConverter_ChangeType_m3814664514
Fgh:_WebRequest_get_PrefixList_m1613234376
_vk:_MethodInfo_CreateDelegate_m1666794722
xQg:_UTF8Encoding_GetBytes_m4170182058
NVi:_PermissionBuilder_Create_m2085370112
TSg:_CancellationTokenSource_NotifyCancellation_m3745403233
Pwo:__ZL99CryptoStream_t3531341937_CustomAttributesCacheGenerator_CryptoStream_WriteAsyncInternal_m3859937209P21CustomAttributesCache
Sua:__ZN22CreateGpuProgramOutputC2Ev
Z3f:_Datatype_untypedAtomicType_CreateValueConverter_m50785369
tqe:_XdrValidator_ProcessInlineSchema_m3519483029
Hrf:_RuntimeType_get_IsGenericParameter_m2448599096
$1g:_DtdParser_ParseComment_m4127509714
Son:__ZN6il2cpp2os21ConditionVariableImpl9TimedWaitEPNS0_13FastMutexImplEj
b0f:_Datatype_ENTITY_get_TypeCode_m431887104
Hbf:_DateTimeOffset_Parse_m181945946
kCe:_X509ChainImplMono_get_CertificateAuthorities_m2681658125
MQf:_CultureData_MonthDay_m735790340
Xse:_XmlBaseConverter_ToString_m1610637154
Fxd:__ZN5physx7Cooking16cookTriangleMeshERKNS_18PxTriangleMeshDescERNS_14PxOutputStreamE
EId:__ZN14CompletionTask4InitEPN5physx7PxSceneE
Tvc:__ZN5physx2Sc7ElementD0Ev
cAd:__ZN5physx6shdfnd10Foundation7releaseEv
TLj:_TraceSection__cctor_m2961939940
Hc:invoke_vidi
O$g:_Function__cctor_m1895070917
Xqe:_XmlAnyConverter_ToBoolean_m4063143686
Qgn:__ZN6il2cpp5utils11StringUtils15StringDuplicateEPKc
mKb:__Z15CanAddComponentR10GameObjectPKN5Unity4TypeE
hua:__ZNK9ShaderLab21ShaderRasterStateDesc16ToGfxRasterStateEPK19ShaderPropertySheetS3_R14GfxRasterState
avf:_CspParameters__ctor_m2480441577
Mrn:__ZN6il2cpp2os9EventImplC2Ebb
Gbj:_DynamicPropertyCollection_NotifyMessage_m840388347
blp:_Map_OnCoverRightClicked_m833144493
Y7n:__Z37RuntimeInvoker_Enumerator_t3879574782PFvvEPK10MethodInfoPvPS4_
YWn:__Z98RuntimeInvoker_RuntimeObject_RuntimeObject_RayU26_t3651946800_Single_t2076509932_Int32_t2071877448PFvvEPK10MethodInfoPvPS4_
fKh:_XsdBuilder_ProcessCData_m2887383632
$3j:_CharConverter_ConvertFrom_m3420092019
nM:__Z20IsMatrixBuiltinParamPKcPi
jCn:__Z122RuntimeInvoker_Void_t1841601450_RuntimeObject_Int32_t2071877448_NumberBufferU26_t1544552882_RuntimeObject_SByte_t454417549PFvvEPK10MethodInfoPvPS4_
C0h:_Type_GetType_m260400695
fTb:__ZN8Renderer19PostInitializeClassEv
Yqk:_SymbolType_MakeByRefType_m544388395
m0m:__ZN6il2cpp2vm9Exception22RaiseOverflowExceptionEv
iIl:_Tuple_4_System_Collections_IStructuralEquatable_Equals_m1873162208_gshared
Mil:_InternalEnumerator_1_get_Current_m1943362081_AdjustorThunk
qNe:_Uri_PrivateParseMinimal_m221624716
vsp:__ZNKSt3__27num_getIwNS_19istreambuf_iteratorIwNS_11char_traitsIwEEEEE15__do_get_signedIxEES4_S4_S4_RNS_8ios_baseERjRT_
fnn:__ZN6il2cpp6icalls8mscorlib6System8Delegate23CreateDelegate_internalEP20Il2CppReflectionTypeP12Il2CppObjectP22Il2CppReflectionMethodb
Ycf:_Decimal_System_Runtime_Serialization_IDeserializationCallback_OnDeserialization_m1617409306
FDk:_ResourceReader_ReadUnalignedI4_m3457906474
umi:_U3CU3Ec_U3C_cctorU3Eb__22_1_m3390676264
ATi:_TailStream_Read_m2023538180
lqb:__ZN18DelayedCallManager18CancelCallDelayed2E4PPtrI6ObjectEPF15CallObjectStatePS1_PvES7_
zle:_SchemaEntity_get_BaseURI_m2970105815
WVh:_ThreadPool_NotifyWorkItemComplete_m3480628571
Oka:__ZN25ThreadsafeLinearAllocator10ReallocateEPvji
tab:__Z18Transfer_BlittableI14SafeBinaryReadLb1E11QuaternionfEvRK29SerializationCommandArgumentsR31RuntimeSerializationCommandInfo
bCc:__ZNK5physx18PxArticulationLink8isKindOfEPKc
a8f:_LeafRangeNode_get_Min_m564033315
OY:__ZN18SpriteAtlasManagerD0Ev
Grl:_InternalEnumerator_1_get_Current_m4010463147_AdjustorThunk
q$f:_Datatype_dayTimeDuration_TryParseValue_m1692347671
P2c:__ZN5physx13NpVolumeCache13onOriginShiftERKNS_6PxVec3E
PId:__Z25CreatePxMeshFromUnityMeshP4MeshbbRK10Matrix4x4f13TransformTypef
rmn:_GC_disable
iRa:__ZN10Matrix4x4f8TransferI14SafeBinaryReadEEvRT_
Eo:FUNCTION_TABLE_vifiiiiiiiiiiiiiiiiii
aoi:_UnmanagedMemoryStream_ReadByte_m2501145010
HPi:_RijndaelManagedTransform_Dec_m3815383295
rUm:__ZN14dense_hash_mapI10KeyWrapperIPK22Il2CppGenericParameterEPK24MonoGenericParameterInfoN6il2cpp5utils11PointerHashIS2_EENS4_14EqualsComparerINSt3__28equal_toIS3_EEEENSD_9allocatorINSD_4pairIKS4_S7_EEEEE15set_deleted_keyERSJ_
Zge:_XPathException__ctor_m3230282264
ZXf:_TextInfo_GetHashCodeOrdinalIgnoreCase_m1952695184
m1l:_ExceptionDispatchInfo__ctor_m187981287
ZPf:_CompareInfo_CreateSortKey_m526197471
XWn:__Z81RuntimeInvoker_RuntimeObject_Ray_t2469606224_Single_t2076509932_Int32_t2071877448PFvvEPK10MethodInfoPvPS4_
udm:_Color_ToString_m55788918_AdjustorThunk
W3:__ZN7ApiGLES18ClearBufferSubDataEjN2gl12BufferTargetEll
t_b:__Z37Camera_Get_Custom_PropAllCamerasCountv
ZPa:__ZN14Texture2DArray8TransferI18StreamedBinaryReadILb0EEEEvRT_
Fbi:_Int64_System_IConvertible_ToSingle_m1678482180
xFc:__ZN5physx15NpActorTemplateINS_18PxArticulationLinkEED2Ev
cGb:__Z18ApplyOcclusionMaskR19ProbeOcclusionCacheRK17LightProbeContextRK10RenderNodeb
Lhi:_FileStreamAsyncResult__ctor_m1096228032
__l:_ProviderSettingsCollection_GetElementKey_m2598146650
jb:invoke_fiiii
tcf:_DBNull_System_IConvertible_ToSByte_m1228193074
sZh:_TimeZoneInfo_ConvertTime_m2282214989
p5o:__ZL103SwitchElement_t4125397718_CustomAttributesCacheGenerator_SwitchElement_t4125397718____Name_PropertyInfoP21CustomAttributesCache
xKe:_RegexInterpreter_SetOperator_m2684422645
GId:__Z19ExtractDataFromMeshR4MeshR13dynamic_arrayI8Vector3fLj4EERS1_ItLj2EES6_
w9d:_XmlTextReaderImpl_Throw_m1967164990
Bum:_UnityAction_1_Invoke_m3979091955_gshared
B6m:__ZN6il2cpp6icalls8mscorlib6System11RuntimeType8get_NameEP27Il2CppReflectionRuntimeType
Pdn:__ZN6il2cpp2vm12AssemblyName22FillNativeAssemblyNameERK18Il2CppAssemblyNameP22Il2CppMonoAssemblyName
Xwp:__ZNKSt3__25ctypeIcE9do_narrowEPKcS3_cPc
jvg:_SecurityElement__ctor_m1988489885
GUe:_Char_CheckNumber_m3925890193
e_f:_TimeSpanResult_t782244817_marshal_pinvoke
BWi:_FileIOPermission_ThrowInvalidFlag_m3641784676
Xhn:__ZN6il2cpp2vm8Profiler12GCHeapResizeEx
sDp:dynCall_viiifi
xba:__ZN18GfxFramebufferGLES20ActiveContextChangedEPP17RenderSurfaceBaseS2_
dBg:_ZoneMembershipCondition_ToString_m336783421
rHh:_XmlSchemaSimpleType_Clone_m1118797942
bki:_U3CU3Ec_U3CBeginReadInternalU3Eb__39_0_m781288898
kba:__Z19PluginsRenderMarkeri
zMg:_InternalEncoderBestFitFallbackBuffer_MovePrevious_m3219890190
vbn:__ZN6il2cpp2os7Console20InternalKeyAvailableEi
e9l:_X509CertificateEnumerator_get_Current_m3129374511
QOc:__ZNK5physx7NpCloth25getNbSelfCollisionIndicesEv
fFo:__ZL57DispIdAttribute_t607560947_CustomAttributesCacheGeneratorP21CustomAttributesCache
ou:__ZN12AudioManager17RemoveAudioSourceEP11AudioSource
BTf:_DateTimeFormatInfo_GetCombinedPatterns_m3619584565
BBh:_Array_InternalArray__ICollection_CopyTo_TisKeyValuePair_2_t4275477795_m133069946_gshared
g$h:_TimeZoneInfo_System_Runtime_Serialization_ISerializable_GetObjectData_m3268765269
ybe:_XmlTextReaderImpl_Close_m646621480
YAj:_DecimalConverter_ConvertTo_m2911370646
XEf:_Array_InternalArray__get_Item_TisUInt64_t2909196914_m2580870875_gshared
rRj:_SettingsSectionInternal_get_Ipv6Enabled_m1497204314
e3c:__ZN5physx2Sc5Scene22setNbContactDataBlocksEj
yOh:_XsdValidator_Push_m2287185269
mcm:_Application_CallLogCallback_m1825082967
yD:__ZN5physx14PxLightCpuTask12addReferenceEv
pHi:_Dictionary_2__ctor_m277168078_gshared
gLa:__ZN21EnlightenSceneMapping8TransferI19StreamedBinaryWriteILb0EEEEvRT_
A7m:__ZN6il2cpp2gc16GarbageCollector19InitializeFinalizerEv
pwc:__ZN5physx2Sc5Scene10removeBodyERNS0_7BodySimE
kgb:__Z35Transfer_Blittable_FixedBufferFieldI24GenerateTypeTreeTransferxEvRK29SerializationCommandArgumentsR31RuntimeSerializationCommandInfo
KGo:__ZL67TypeForwardedFromAttribute_t68050954_CustomAttributesCacheGeneratorP21CustomAttributesCache
XAb:__Z20CalculateSqrDistanceRK8Vector3fRK4AABB
tJd:__ZN14PhysicsManager15ProcessContactsEv
sog:_AggregateException__ctor_m2095680393
ghc:__ZN21BoxTraceSegmentReport7onEventEjPj
KBc:__ZN5physx2Sc21ArticulationJointCore13setSwingLimitEff
By:__Z32AudioMixerDuckingProcessCallbackP21UnityAudioEffectStatePfS1_jii
Upp:__ZNSt3__27__sort3IRNS_6__lessIiiEEPiEEjT0_S5_S5_T_
Tcc:__ZL20HullProjectionCB_BoxRKN5physx2Gu13PolygonalDataERKNS_6PxVec3ERKNS_2Cm8Matrix34ERKNS7_23FastVertex2ShapeScalingERfSE_
e4i:_CustomAttributeTypedArgument_GetHashCode_m999147081_AdjustorThunk
Xnn:__ZN6il2cpp5utils21CollapseAdjacentStarsERKNSt3__212basic_stringIcNS1_11char_traitsIcEENS1_9allocatorIcEEEE
b5c:__ZN5physx17PxcNpMemBlockPool19releaseUnusedBlocksEv
v$f:_Datatype_decimal_get_FacetsChecker_m1263736327
wAi:_Enumerator_MoveNext_m3293466169_gshared
nhi:_FileStream_Read_m3880951166
dfg:_AuthenticodeDeformatter_VerifySignature_m2341869550
Ehd:__ZN5physx14PxsAABBManager21selfCollideAggregatesEPKNS_19AggregateSortedDataE
eGe:_RegexWriter_StringCode_m727159485
hom:_AudioExtensionManager_Update_m3727859914
ev:__ZN12AudioManager8TransferI24GenerateTypeTreeTransferEEvRT_
G5:__Z25GetBytesFromTextureFormat13TextureFormat
LQf:_CultureData_LeapYearMonthNames_m248517473
BTh:_TaskFactory_CheckMultiTaskContinuationOptions_m717392640
Mpd:__ZN5physx12_GLOBAL__N_112innerProductERKNS_14Px1DConstraintERS1_RKNS0_9MassPropsE
clj:___BinaryParser_ReadObjectString_m1431229953
fsh:_Array_InternalArray__ICollection_Remove_TisContactPoint_t1376425630_m2242111467_gshared
w6g:_BinaryFacetsChecker_MatchEnumeration_m221165766
FQ:__Z32scripting_class_get_assemblyname17ScriptingClassPtr
Yho:__ZL66Decimal_t724701077_CustomAttributesCacheGenerator_NearPositiveZeroP21CustomAttributesCache
XNd:__ZN11UnityEngine15PlatformWrapper15GetVRDeviceNameEv
Sch:_SafeSocketHandle_ReleaseHandle_m3275412161
Sdd:__ZN5physx26PxcFrictionPatchStreamPairC2ERNS_17PxcNpMemBlockPoolE
INe:_Uri_ResolveHelper_m2343108069
JFm:__ZN6il2cpp2vm13MetadataCache23GetInvokerMethodPointerEPK10MethodInfoPK20Il2CppGenericContext
Qga:__ZN9GfxDevice21RegisterNativeTextureE9TextureIDi16TextureDimension
NRf:_CultureInfo__ctor_m456863818
don:__ZN6il2cpp2vm6Atomic6Read64EPVx
tVl:_PropertyInformation__ctor_m3964645511
dD:__Z60Register_UnityEngine_AudioListener_GetNumExtensionPropertiesv
qj:_emscripten_glUniformMatrix4fv
UWm:__ZN15dense_hashtableINSt3__24pairIK10KeyWrapperINS1_IP11Il2CppClassjEEES4_EES6_N6il2cpp8metadata14ArrayClassHashEN14dense_hash_mapIS6_S4_SB_NS6_14EqualsComparerINSA_17ArrayClassCompareEEENS0_9allocatorIS8_EEE9SelectKeyESF_SH_E13set_empty_keyERKS8_
v5a:__ZN12ScriptMapperD2Ev
WDd:__ZN9Rigidbody13AwakeFromLoadE17AwakeFromLoadMode
wlj:_Converter_ToArrayType_m1741405473
nJm:__ZN15dense_hashtableINSt3__24pairIK10KeyWrapperIPK9EventInfoEP11Il2CppClassEES6_N6il2cpp6icalls8mscorlib6System19Il2CppEventInfoHashEN14dense_hash_mapIS6_S9_SF_NS6_14EqualsComparerINSE_22Il2CppEventInfoCompareEEENS0_9allocatorISA_EEE9SelectKeyESJ_SL_E12resize_deltaEjj
fQh:_Ucs4Encoding2143__ctor_m2068311979
pHc:__ZNK5physx14NpSceneQueries10multiQueryINS_12PxOverlapHitEEEbRKNS_15MultiQueryInputERNS_13PxHitCallbackIT_EENS_7PxFlagsINS_9PxHitFlag4EnumEtEEPKNS_12PxQueryCacheERKNS_17PxQueryFilterDataEPNS_21PxQueryFilterCallbackEPNS_20BatchQueryFilterDataE
jNi:_KeyedHashAlgorithm_Dispose_m1864300576
h7l:_X509Certificate_PEM_m49854707
HId:__ZL21GetMeshLocationDetailR4Mesh
Xkh:_X509BasicConstraintsExtension__ctor_m3320418592
see:_XmlTextWriter_WriteCData_m3919162990
o8l:_ExtendedKeyUsageExtension_Decode_m901297139
KEj:_PropertyDescriptorCollection_System_Collections_IDictionary_get_Item_m3701519105
HPh:_Ucs4Decoder__ctor_m3560133110
N3a:__ZN9ShaderLab20SerializedSubProgram16TextureParameter8TransferI19StreamedBinaryWriteILb0EEEEvRT_
yb:invoke_fiiiiiiiifiiiif
s8d:_XmlTextReaderImpl_InitTextReaderInput_m2955978425
Xja:__ZNK7Hash12812PackToUInt32Ev
B1j:_KeysCollection_System_Collections_ICollection_get_SyncRoot_m2289369147
Pmj:___BinaryWriter_WriteInt64_m1312877999
uS:__ZNSt3__227__insertion_sort_incompleteIRNS_6__lessI14ObjectLoadDataS2_EEPS2_EEbT0_S6_T_
RH:__ZN11UnityEngine15CloudWebService16SessionContainer8AddEventEPNS0_14CloudEventInfoE
xfa:__Z4TrimRKN4core12basic_stringIcNS_20StringStorageDefaultIcEEEES5_
sLm:_il2cpp_shutdown
V6g:_CompiledIdentityConstraint__cctor_m2555789179
N3i:_CustomAttributeNamedArgument_Equals_m2691468532
tLp:b106
HEf:_Array_InternalArray__get_Item_TisEphemeron_t1875076633_m3969769273_gshared
wOa:__ZN10VertexData8TransferI14SafeBinaryReadEEvRT_
RAc:__ZN5physx19NpArticulationJointD0Ev
q6:__ZN11TextureData17GetImageReferenceEii
rHd:__ZN5physx9NpPhysics14createInstanceEjRNS_12PxFoundationERKNS_17PxTolerancesScaleEbPNS_20PxProfileZoneManagerE
WKd:__Z59Register_UnityEngine_Physics_INTERNAL_CALL_Internal_Raycastv
vpn:__ZN6il2cpp5utils6Memory13AlignedMallocEjj
z5i:_ConstructorBuilder_GetILGenerator_m1731893569
G5m:__ZNSt3__214__split_bufferIN6il2cpp2vm5Image20EmbeddedResourceDataERNS_9allocatorIS4_EEED2Ev
GO:__ZL20SortItemByInstanceIDRKN18AwakeFromLoadQueue4ItemES2_
ZGd:__ZN5physx6shdfnd5ArrayIPvNS0_15InlineAllocatorILj256ENS0_19ReflectionAllocatorINS_24NpPtrTableStorageManager8PtrBlockILi16EEEEEEEE15growAndPushBackERKS2_
gQi:_RNGCryptoServiceProvider_RngClose_m2921734810
TQd:__ZN20UnityConnectSettings8TransferI24GenerateTypeTreeTransferEEvRT_
tui:_ConcurrentDictionary_2__ctor_m2600786074_gshared
eoj:_BinaryFormatter_GetTypeInformation_m1027088553
_dl:_SimpleCollator_IsHalfKana_m4255579023
x$l:_SectionInfo_ResetModified_m3031322071
ojm:_Comparison_1_BeginInvoke_m3853204669_gshared
LLc:__ZN5physx7NpShape13setRestOffsetEf
g7e:_DateTime__ctor_m2878842909_AdjustorThunk
coa:__Z16FlaggedAsSkippedIN4core12basic_stringIcNS0_20StringStorageDefaultIcEEEEEbRK13FileEntryInfoRKT_19FileEnumerationFlag
Wni:_UnmanagedMemoryStream_get_Length_m587008850
oU:__ZL31InitializeRendererUpdateManagerPv
axe:_XmlSchemaAttributeGroup_get_AttributeUses_m573848375
yyl:_Nullable_1_Equals_m1817623273_gshared
Q9d:_XmlTextReaderImpl_get_QuoteChar_m1059898783
lMc:__ZN5physxL11getTriangleERKNS_2Gu12TriangleMeshEjPNS_6PxVec3EPKS4_PKvRKNS_2Cm8Matrix34Eb
HDd:__ZN14SafeBinaryRead21TransferSTLStyleArrayINSt3__26vectorIjNS1_9allocatorIjEEEEEEvRT_17TransferMetaFlags
mvj:_ClientSessionInfo_Dispose_m2571428025
vHa:__ZNSt3__26__treeINS_12__value_typeIiNS_4pairIP4ListI8ListNodeI9BehaviourEES8_EEEENS_19__map_value_compareIiSA_NS_4lessIiEELb1EEENS_9allocatorISA_EEE7destroyEPNS_11__tree_nodeISA_PvEE
_xj:_RecordProtocol_decryptRecordFragment_m2510859489
WIl:_InvokableCall_1__ctor_m975753341_gshared
Ajp:_Bomb_remove_Exploded_m3171991135
h4i:_ArrayType__ctor_m2180920014
win:__ZN6il2cpp6icalls6System6System3Net3Dns15GetHostByName40EP12Il2CppStringPS6_PP11Il2CppArraySA_i
rNc:__ZNK5physx7NpCloth16lockParticleDataEv
VLh:_XsdBuilder_InitGroupRef_m2569332263
hEh:_Array_InternalArray__Insert_TisLabel_t4243202660_m4038784163_gshared
qVa:__ZN11TimeManager8TransferI19StreamedBinaryWriteILb0EEEEvRT_
Rvm:__ZN6il2cpp6icalls8mscorlib6System7Decimal10FCallRoundEP13Il2CppDecimali
HDk:_ResourceReader_GetNamePosition_m3036750610
IOd:__ZN11UnityEngine15PlatformWrapper27GetGraphicsCapsSupportFlagsEv
m$b:__Z32Renderer_Set_Custom_PropMaterialP12Il2CppObjectS0_
a5g:_AllElementsContentValidator_ValidateElement_m338933984
jdf:_Decimal_Equals_m1115043331
R6c:__ZN5physx13NpRigidStatic9visualizeERNS_2Cm12RenderOutputEPNS_7NpSceneE
Njb:__ZN12NativeBufferI16Converter_StringE15SetupForWritingER9ArrayInfo
HCn:__Z72RuntimeInvoker_Void_t1841601450_TypedReference_t1025199857_RuntimeObjectPFvvEPK10MethodInfoPvPS4_
fKp:___cxa_end_catch__wrapper
s4f:_DatatypeImplementation_CreateBuiltinTypes_m4263539924
rqe:_XdrValidator__ctor_m375937105
l9c:__ZN5physx6shdfnd8PoolBaseINS_2Sc35ParticleElementRbElementInteractionENS0_19ReflectionAllocatorIS3_EEE15disposeElementsEv
J3h:_UInt16_Parse_m706225113
OCf:_AsyncTaskMethodBuilder_1_AwaitUnsafeOnCompleted_TisRuntimeObject_TisRuntimeObject_m3874864138_AdjustorThunk
Z9i:_MethodOnTypeBuilderInst_GetCustomAttributes_m591102318
qdi:_BinaryReader_ReadUInt32_m1363572147
PLj:_TraceListenerCollection_System_Collections_IList_Insert_m2119006871
Rfn:__ZN6il2cpp6icalls8mscorlib6System17RuntimeTypeHandle11GetAssemblyEP27Il2CppReflectionRuntimeType
nem:_Debug_LogWarning_m1382493163
Vqb:__ZN13MonoBehaviour22DoScriptRebuildWarningEv
v_b:__Z38Camera_CUSTOM_INTERNAL_CALL_RaycastTryP12Il2CppObjectRK3Rayfi
ltk:_TypeBuilderInstantiation_GetInterfaces_m358735393
j_m:__ZN6il2cpp6icalls8mscorlib6System5Array13ClearInternalEP11Il2CppArrayii
NUb:__ZZL23RegisterLightPropertiesR22GenericPropertyBindingEN22Wrapper_LightSpotAngle13GetFloatValueEPv
p$f:_Datatype_day__ctor_m884643093
aWh:_ThreadPoolWorkQueue_EnsureCurrentThreadHasQueue_m1596662517
Vag:_SchemaCollectionCompiler_Compile_m3226989111
NAp:_llvm_cttz_i32
Xlh:_PublicKey_DecodeDSA_m1169363495
pZf:_TimeSpanParse_TryParseExact_m241326052
dqf:_RuntimeType_SanityCheckGenericArguments_m1522700336
Z_m:__ZN6il2cpp5utils9PathUtils7CombineIcEENSt3__212basic_stringIT_NS3_11char_traitsIS5_EENS3_9allocatorIS5_EEEERKSA_SC_
Omj:___BinaryWriter_WriteInt32_m1729734363
Ohd:__ZN5physx14PxsAABBManager16processBPResultsERKNS_20PxsComputeAABBParamsE
$4b:__ZN9JSONWrite8TransferI13dynamic_arrayIiLj4EEEEvRT_PKc17TransferMetaFlags
Vfd:__ZN5physx23PxsBroadPhaseContextSapD2Ev
Ezd:__ZN5physx12SubSortQuickC2EPjPKNS_10PxBounds3VEjf
XYm:__ZN6il2cpp2vm6Thread13YieldInternalEv
Jwp:__ZNSt3__2L13utf8_to_utf16EPKhS1_RS1_PtS3_RS3_mNS_12codecvt_modeE
KN:__Z18ConvertUTF16toUTF8PPKtS0_PPhS2_15ConversionFlags
Odn:__ZN6il2cpp2os20PathErrnoToErrorCodeERKNSt3__212basic_stringIcNS1_11char_traitsIcEENS1_9allocatorIcEEEEi
HMk:_Win32_IP_ADAPTER_ADDRESSES_t680756680_marshal_pinvoke
kYb:__Z24GetActualTargetFrameRatev
Dch:_NetworkStream_EndRead_m914762628
A9h:_Int16_System_IConvertible_ToInt32_m191782913_AdjustorThunk
Iap:__ZL69ArgumentCache_t4810721_CustomAttributesCacheGenerator_m_FloatArgumentP21CustomAttributesCache
UIg:_EncoderReplacementFallback__ctor_m2208438262
gzb:__Z23SetupStereoFlareElementP11FlareVertexRK8Vector2fS3_S3_RK11ColorRGBA32RK10Matrix4x4fRK8Vector3fb
knn:__ZN6il2cpp6icalls8mscorlib6System6Buffer11_ByteLengthEP11Il2CppArray
_2g:_DtdParser_ScanCondSection1_m1292223111
Nfm:_RenderPipelineManager_get_currentPipeline_m1290055162
vQi:_RSACryptoServiceProvider__ctor_m2716420409
W_h:_TimeZoneInfo_IsDaylightSavingTime_m2391906663
Xa:invoke_iiiifiiii
Y$m:__ZN6il2cpp6icalls8mscorlib6System2IOL15CloseFindHandleEPNS_2os9Directory10FindHandleE
Nci:___Error_EndReadCalledTwice_m687834057
RPc:__ZNK5physx2Sc9ClothCore16getRestPositionsEPNS_6PxVec4E
Ccd:__ZN5physx20PxcSweepConvexConvexERKNS_11PxsCCDShapeES2_PKNS_12PxsRigidBodyES5_RKNS_11PxTransformES8_S8_S8_fRNS_6PxVec3ESA_RNS_10PxcNpCacheERNS_18PxcNpThreadContextEf
Bfi:_Directory_GetFiles_m4036267478
kMf:_Enum_System_IConvertible_ToType_m2669300536
YSc:__ZN5physx15PxsParticleDataD0Ev
$ba:__ZL19BlitFramebufferImplRN4gles23BlitFramebufferDrawQuadER9GfxDevice9TextureIDRK8Vector4f
vxd:__ZN5physx6shdfnd5ArrayIPvNS0_19ReflectionAllocatorIN17PxcPoolMallocData9PoolData8EEEE15growAndPushBackERKS2_
Bhp:_StackTraceUtility_ExtractStringFromExceptionInternal_m234524721
nbj:_OpCodes__cctor_m939885911
ISb:__ZN14Texture2DArray11InitTextureEiii13TextureFormatb
XNn:__Z154RuntimeInvoker_Boolean_t3825574718_Int32_t2071877448_RuntimeObject_RuntimeObject_Int32U26_t455636984_RuntimeObject_Int32U26_t455636984_Int64U26_t763825331PFvvEPK10MethodInfoPvPS4_
ABd:__ZN5physx15PxGeometryQuery14getWorldBoundsERKNS_10PxGeometryERKNS_11PxTransformEf
v_i:_Number_ParseNumber_m1785380145
vIk:_HttpWebRequest_DoContinueDelegate_m22231078
eRc:__ZN5physx2Sc9ClothCore18setSolverFrequencyEf
qPe:_UriParser_InitializeAndValidate_m251943319
mTi:_SymmetricAlgorithm_set_Padding_m3081984460
j$l:_SectionGroupInfo_Merge_m1107900400
gVm:__ZN15dense_hashtableINSt3__24pairIK10KeyWrapperINS1_IPK11Il2CppImageP11Il2CppClassEEEjEES9_17ReflectionMapHashIS8_EN14dense_hash_mapIS9_jSD_NS9_14EqualsComparerINS0_8equal_toIS8_EEEENS0_9allocatorISB_EEE9SelectKeyESI_SK_E14squash_deletedEv
Uzj:_SslServerStream_OnLocalPrivateKeySelection_m1937205958
$Ua:__ZN9InputAxis8TransferI18StreamedBinaryReadILb0EEEEvRT_
r_g:_XPathDocumentNavigator_MoveToNextNamespace_m3959130057
lDb:__ZNK6Camera26GetStereoSingleCullEnabledEv
nUo:__ZL101RegistryKey_t2287932784_CustomAttributesCacheGenerator_RegistryKey_t2287932784____Handle_PropertyInfoP21CustomAttributesCache
CTh:_TaskFactory_CheckCreationOptions_m1907973182
rof:_StreamingContext_t1417235061_marshal_pinvoke_back
ycc:__ZN5physx2Gu16buildPartialHullERKNS0_13PolygonalDataEPNS0_12SupportLocalERNS0_14SeparatingAxesERKNS_6shdfnd3aos5Vec3VESC_
sYa:__Z14resize_trimmedINSt3__26vectorIN4core12basic_stringIcNS2_20StringStorageDefaultIcEEEE13stl_allocatorIS6_L18MemLabelIdentifier13ELi16EEEEEvRT_j
GVe:_ArrayList_RemoveAt_m2578928333
bbb:__Z18Transfer_BlittableI14SafeBinaryReadLb0EaEvRK29SerializationCommandArgumentsR31RuntimeSerializationCommandInfo
lJl:_InvokableCall_3__ctor_m4270240248_gshared
pre:_XmlAtomicValue__ctor_m2420210747
t8l:_GeneralNames_get_DNSNames_m2721668874
$Lf:_Enum_System_IConvertible_ToByte_m38374586
hse:_XmlBaseConverter_ToBoolean_m3508180815
wEp:_emscripten_glFrustum__wrapper
dAc:__ZNK5physx2Sc16ArticulationCore17releaseDriveCacheERNS_9PxcFsDataE
hee:_XmlTextWriter_WriteStartElement_m3953077403
hdf:_Decimal_Equals_m1798565377
ZTg:_Reader_get_IsFlowSuppressed_m3501122521_AdjustorThunk
gHl:_Tuple_2_System_ITupleInternal_ToString_m2978066596_gshared
ZYm:_CreateComCallableWrapperFor_ManagedErrorInfo_t914761495
poc:__ZN5physx11NpAggregate7releaseEv
Ikg:_Uri_Unescape_m560673952
Urk:_TypeBuilder_check_created_m2929267877
bdn:__ZN6il2cpp6icalls8mscorlib6System11Environment18get_ProcessorCountEv
dEj:_StandardValuesCollection_GetEnumerator_m1446912653
sxb:__Z20SyncFenceCullResultsR11CullResults
lea:__ZN15TextureTFMethod20IsBoneCountSupportedEi
nej:_IllogicalCallContext_get_Datastore_m586432234
yij:_ObjRef__ctor_m1486312270
faf:_DateTime_System_IConvertible_ToSByte_m2575078084_AdjustorThunk
vfb:__Z22TransferField_NonArrayI17RemapPPtrTransfer27Converter_SimpleNativeClassI8GUIStyleEEvRK23StaticTransferFieldInfoR31RuntimeSerializationCommandInfoRT0_
FLc:__ZN5physx7NpShape12setMaterialsEPKPNS_10PxMaterialEt
rRb:__ZNK17AnimationCurveTplIfE20EvaluateWithoutCacheEfRf
len:__ZN6il2cpp2os6Thread12QueueUserAPCEPFvPvES2_
fJg:_EncoderExceptionFallback_Equals_m762170768
NCa:__ZN19ShaderPropertySheet10SetTextureERK23FastTexturePropertyNameP7Texture
QTj:_CredentialKey_ToString_m2862607851
Hyp:__ZNSt13runtime_errorC2ERKNSt3__212basic_stringIcNS0_11char_traitsIcEENS0_9allocatorIcEEEE
PGg:_TermInfoDriver_WriteSpecialKey_m2200775021
vEl:_Task_1__ctor_m1487818250_gshared
L2f:_Datatype_short_get_FacetsChecker_m4058449290
Oyg:_Site_CreateFromUrl_m186416276
zr:__ZN17AnimationCurveTplIfE8TransferI14SafeBinaryReadEEvRT_
cxp:__ZNKSt3__28numpunctIcE16do_thousands_sepEv
Bae:_XmlTextReaderImpl_GetTempResolver_m3560508770
jxm:_Physics_Raycast_m3112010924
cCj:_DesignerCategoryAttribute__cctor_m3553693865
vMb:__Z29StdTemplateConversionFunctionIybEbPvR14SafeBinaryRead
XMa:__ZNSt3__26vectorIN15QualitySettings14QualitySettingENS_9allocatorIS2_EEE6assignIPS2_EENS_9enable_ifIXaasr21__is_forward_iteratorIT_EE5valuesr16is_constructibleIS2_NS_15iterator_traitsIS9_E9referenceEEE5valueEvE4typeES9_S9_
akc:__Z15raycast_capsuleRKN5physx10PxGeometryERKNS_11PxTransformERKNS_6PxVec3ES8_fNS_7PxFlagsINS_9PxHitFlag4EnumEtEEjPNS_12PxRaycastHitEbPFbRSD_PvESG_
gTi:_SymmetricAlgorithm_set_Key_m2973350820
x9e:_DateTime_ToLongDateString_m4037461875_AdjustorThunk
haf:_DateTime_System_IConvertible_ToByte_m2670443498_AdjustorThunk
Lmi:_SyncTextWriter__ctor_m2305946962
uBf:_Array_swap_TisDouble_t4078015681_TisRuntimeObject_m1219462496_gshared
Fqd:__ZNK5physx34PxsSolverConstraintPostProcessTask7getNameEv
zoj:_BigInteger_op_Addition_m1734797151
Amj:___BinaryWriter__ctor_m31679668
xge:_XmlValidatingReaderImpl_AddDefaultAttribute_m3227826494
MSh:_XmlComment_CloneNode_m3633446433
Idc:__ZN5physx2Gu23distancePointBoxSquaredERKNS_6PxVec3ES3_S3_RKNS_7PxMat33EPS1_
iHd:__ZN5physx9NpPhysics20MeshDeletionListener28onGuMeshFactoryBufferReleaseEPKNS_6PxBaseEtb
z5d:_XmlReader_MoveToContent_m1469314666
KSd:__ZNK12HeaderHelper3GetERKN4core12basic_stringIcNS0_20StringStorageDefaultIcEEEE
DPi:_RijndaelManagedTransform_TransformBlock_m2558865851
SUa:__ZN9InputAxis8TransferI14SafeBinaryReadEEvRT_
VO:__ZNK21ExecutionOrderManager30GetCustomAwakeFromLoadQueueForEPKN5Unity4TypeE
$0c:__ZNK5physx7NpScene9getActorsENS_7PxFlagsINS_15PxActorTypeFlag4EnumEtEEPPNS_7PxActorEjj
iSd:__Z27RegisterModule_UnityConnectv
Bug:_SiteIdentityPermission_Union_m1157334635
DTm:__ZN6il2cpp2vm10Reflection27GetCustomAttributesCacheForEP25Il2CppReflectionParameter
R8c:__ZN5physx11NodeManagerD0Ev
ulf:_FormatterServices_LoadAssemblyFromString_m2055634833
lEi:_Enumerator__ctor_m908409898_gshared
Wij:_RealProxy__ctor_m3041043303
RZi:_NumberFormatter_Init_m2654758994
M6j:_LinkedList_1_OnDeserialization_m264209791_gshared
vXf:_TaiwanCalendar_get_MinSupportedDateTime_m4111468891
_bn:__ZN6il2cpp2os10ThreadImpl5SleepEjb
Vve:_XmlSchema__cctor_m4066722085
Nx:__ZN10ObjectPoolIN4FMOD12ChannelGroupENS0_13ChannelGroupIEE7SetSizeEi
lcg:_PrimalityTest_BeginInvoke_m966469054
Gsh:_Array_QSortArrange_TisDouble_t4078015681_m1897840884_gshared
O5h:_UInt64_System_IConvertible_ToInt16_m2797150165_AdjustorThunk
yEf:_Array_InternalArray__get_Item_TisLabelData_t3712112744_m863115768_gshared
c_l:_ExeConfigurationHost_InitForConfiguration_m442278400
whg:_BitConverterLE_GetULongBytes_m337364860
Eif:_SerializationInfo_ExpandArrays_m3463309841
qDf:_BaseInvokableCall_ThrowOnInvalidArg_TisUInt32_t2149682021_m1063848793_gshared
JIh:_XmlSchemaValidator_PrintNamesWithNS_m2992135309
$Nc:__ZNK5physx7NpCloth25getMotionConstraintConfigEv
Ncb:__Z14resize_trimmedINSt3__26vectorI17AnimationCurveTplIfE13stl_allocatorIS3_L18MemLabelIdentifier1ELi16EEEEEvRT_j
RIb:__ZN25CameraStackRenderingState19SetupLastEyeCamerasERK11CameraStack
dqa:__Z12GUIDToStringRK9UnityGUID
O8f:_Numeric10FacetsChecker_CheckValueFacets_m4258705194
HTg:_ExecutionContext_EstablishCopyOnWriteScope_m680406835
Fwh:_Array_InternalArray__IndexOf_TisEntry_t827949121_m3645827235_gshared
VCj:_EventDescriptorCollection_Remove_m2508467324
Nt:__ZN11SoundHandleC2ERKS_
dza:__ZN15SerializeTraitsI12fixed_bitsetILi24EjEE8TransferI18StreamedBinaryReadILb0EEEEvRS1_RT_
v9e:_DateTimeFormat_FormatDigits_m1693279277
pfl:_BigInteger_op_Addition_m1196561843
Ybj:_FormatterData__ctor_m3974986124
z7g:_Compiler_IsValidRestriction_m2714027629
N8d:_XmlTextReaderImpl_ParseText_m3271012575
Iqh:_Array_InternalArray__ICollection_Remove_TisEntry_t1114109354_m144928805_gshared
_xf:_Array_qsort_TisDecimal_t724701077_m2743952117_gshared
Lrh:_Array_InternalArray__ICollection_Remove_TisLowerCaseMapping_t2153935826_m186868576_gshared
Slc:__ZN5physx3Cct26CharacterControllerManager24setOverlapRecoveryModuleEb
fYe:_Comparer__cctor_m1327316974
X9g:_Socket_IOControl_internal_m147257970
U9e:_DateTime_op_GreaterThanOrEqual_m3818963848
bhh:_WebHeaderCollection_SetInternal_m1900574698
yKb:__ZN6Camera25StandaloneRenderToCubemapEP7TextureiPFvPK9SceneNodePK4AABBR9IndexListPvESA_j
bMh:_XsdBuilder_InitAny_m2581952395
BCa:__ZN14RenderSettings18TransferDeprecatedI14SafeBinaryReadEEvRT_
$ci:___Error_WriterClosed_m1246745384
iWn:__Z151RuntimeInvoker_Int32_t2071877448_RuntimeObject_RuntimeObject_Int32_t2071877448_Int32_t2071877448_Int32_t2071877448_Int32U26_t455636984_SByte_t454417549PFvvEPK10MethodInfoPvPS4_
XK:__ZN12TLSAllocatorI14StackAllocatorE8AllocateEji
VP:__ZN16ScriptingManager18GetMonoScriptCacheEi
stn:__Z62RuntimeInvoker_Void_t1841601450_RuntimeObject_Int64_t909078037PFvvEPK10MethodInfoPvPS4_
Zee:_U3CGetEntityAsyncU3Ed__0_SetStateMachine_m1102753120_AdjustorThunk
Ywf:_Array_InternalArray__set_Item_TisTermInfoStrings_t1425267120_m1412218982_gshared
ibb:__Z18Transfer_BlittableI14SafeBinaryReadLb1EyEvRK29SerializationCommandArgumentsR31RuntimeSerializationCommandInfo
xFi:_ValueCollection_System_Collections_ICollection_CopyTo_m226516747_gshared
X1b:__ZN8JSONRead8TransferIfEEvRT_PKc17TransferMetaFlagsb
gsk:_TypeBuilder_CreateTypeInfo_m2936081697
Aaj:_ModuleBuilder_GetTypes_m93550753
wZl:_ConfigurationSectionCollection_GetEnumerator_m1242675576
amp:_TriggerEventHandler_Assets_GameLogic_Core_IUnityEvent_AddListener_m4268995662
KQg:_UTF8Encoding_FallbackInvalidByteSequence_m2342143076
y4a:__ZN9ShaderLab7Program22ComputeSupportsShadowsEv
lUl:_ConfigNameValueCollection__ctor_m2285608570
lKo:__ZL54TypeBuilder_t3308873219_CustomAttributesCacheGeneratorP21CustomAttributesCache
MOc:__ZN5physx7NpCloth25setSelfCollisionStiffnessEf
jz:__ZN11AudioSource21ApplyCachedParametersE12SoundChannel
cah:_ServicePoint_GetConnectionGroup_m2232740970
AGf:_Array_InternalArray__IReadOnlyList_get_Item_TisRefEmitPermissionSet_t2708608433_m1396594008_gshared
z$h:_CachedData_GetOneYearLocalFromUtc_m646509804
WD:__ZN13Simd4iFactoryIN6detail9FourTupleEEC2Eiiii
pae:_XmlTextReaderImpl_FinishIncrementalRead_m4069530441
ubm:_X509Store_LoadCrl_m1146720614
NZg:_Task_ContinueWith_m3101398394
sGl:_FromAsyncTrimPromise_1_CompleteFromAsyncResult_m3292628735_gshared
EOf:_TextInfo_get_Invariant_m2358804848
KKa:__ZN15SerializeTraitsI33EnlightenTerrainChunksInformationE8TransferI14SafeBinaryReadEEvRS0_RT_
vTb:__ZNK32RendererMaterialAnimationBinding9BindValueER6ObjectRKN11UnityEngine9Animation14GenericBindingERNS3_10BoundCurveE
a7:__ZL18stbir__support_onef
G3j:__ZN16VirtFuncInvoker2IP21Exception_t1927440687P8String_tS1_E6InvokeEjP12Il2CppObjectS3_S1_
Pzg:_PolicyLevel_FromString_m3622354478
I3b:__Z26Transfer_UnityEngineObjectI9JSONWriteLb0EEvRK29SerializationCommandArgumentsR31RuntimeSerializationCommandInfo
cGa:__ZNSt3__26vectorIN4core12basic_stringIcNS1_20StringStorageDefaultIcEEEE13stl_allocatorIS5_L18MemLabelIdentifier1ELi16EEE6assignINS_11__wrap_iterIPS5_EEEENS_9enable_ifIXaasr21__is_forward_iteratorIT_EE5valuesr16is_constructibleIS5_NS_15iterator_traitsISF_E9referenceEEE5valueEvE4typeESF_SF_
T4h:_UInt32_System_IConvertible_ToInt16_m2251335934_AdjustorThunk
kqf:_RuntimeType_FilterApplyMethodInfo_m1469101554
CWi:_FileIOPermission_ThrowIfInvalidPath_m3274737461
HPn:__Z110RuntimeInvoker_RuntimeObject_RuntimeObject_RuntimeObject_Int32_t2071877448_Int32_t2071877448_Int32_t2071877448PFvvEPK10MethodInfoPvPS4_
uRe:_Boolean_System_IConvertible_ToType_m3990189691
Ha:invoke_vdd
WX:__ZN14dense_hash_mapIN4core12basic_stringIcNS0_20StringStorageDefaultIcEEEE13dynamic_arrayI4PPtrI6SpriteELj4EE20StringHash32FunctionIS4_ENSt3__28equal_toIS4_EE13stl_allocatorINSC_4pairIKS4_S9_EEL18MemLabelIdentifier81ELi16EEE15set_deleted_keyERSH_
zhe:_XPathNavigator__cctor_m1668901011
cwf:_Array_InternalArray__set_Item_TisKeyValuePair_2_t3601103940_m3763254918_gshared
ltp:__ZNKSt3__220__time_get_c_storageIcE7__am_pmEv
BWh:_Scheduler_Add_m376749205
Kpn:__ZN6il2cpp6icalls8mscorlib4Mono8Security12Cryptography18KeyPairPersistence19_IsMachineProtectedEP12Il2CppString
CIb:__Z29PluginsIssueRenderingExtEvent26UnityRenderingExtEventTypePv
HGm:_WebRequestUtils_RedirectTo_m675215376
wSb:__Z14RandomRotationP9Texture2DPhiiii
UFd:__ZThn132_N5physx7profile8ZoneImplINS_28PxProfileNameProviderForwardEED1Ev
Tvp:__ZNKSt3__28messagesIcE6do_getEiiiRKNS_12basic_stringIcNS_11char_traitsIcEENS_9allocatorIcEEEE
wMf:_Environment_get_HasShutdownStarted_m734820962
AYi:_NullConsoleDriver__cctor_m1707809552
nue:_XmlBooleanConverter_ToBoolean_m838645836
eom:_AudioExtensionManager_GetSourceSpatializerExtensionType_m3865424559
koe:_XdrBuilder_ProcessElement_m3932988804
E9j:_Enumerator_MoveNext_m3748058997_AdjustorThunk
y1c:__ZN5physx7NpScene27setCCDContactModifyCallbackEPNS_26PxCCDContactModifyCallbackE
ACj:_TypeConverter_ConvertToString_m3857592759
gyd:__ZNK5physx17ConvexHullBuilder17ComputeGeomCenterERNS_6PxVec3E
Nwf:_Array_InternalArray__set_Item_TisMonoWin32Resource_t2467306218_m4158545360_gshared
R$k:_ReadOnlyCollection_1_IsCompatibleObject_m683464840_gshared
q2g:_DtdParser_ParseHowMany_m828824078
Qbf:_DateTimeOffset_ToString_m2121173678_AdjustorThunk
vgd:__ZN3MBPD0Ev
Dj:_JS_WebRequest_SetResponseHandler
rWm:__ZN15dense_hashtableINSt3__24pairIK10KeyWrapperIPK14Il2CppAssemblyEPK22Il2CppMonoAssemblyNameEES6_N6il2cpp5utils11PointerHashIS4_EEN14dense_hash_mapIS6_SA_SF_NS6_14EqualsComparerINS0_8equal_toIS5_EEEENS0_9allocatorISB_EEE9SelectKeyESK_SM_E12maybe_shrinkEv
CKp:_glDeleteProgram__wrapper
B_b:__Z50Register_UnityEngine_Camera_INTERNAL_get_pixelRectv
QSh:_ContingentProperties_SetCompleted_m2487364104
qXe:_CaseInsensitiveComparer_get_Default_m3055452877
j8:__ZN6prcoreL18BlitFloatToIntegerERK14ImageReferenceRS0_
HHk:_HttpWebRequest_get_InternalAllowBuffering_m4029180298
Bfg:_X509CertificateCollection_get_Item_m410866272
rSk:_ObjectComparer_1_Compare_m2604087105_gshared
E4c:__ZNK5physx10PxsContext18getBounceThresholdEv
kH:__ZN11UnityEngine15CloudWebService14RestDownloader17OnCompleteContentEv
hPm:__ZN15dense_hashtableINSt3__24pairIK10KeyWrapperINS1_IPK14Il2CppAssemblyP11Il2CppClassEEEjEES9_17ReflectionMapHashIS8_EN14dense_hash_mapIS9_jSD_NS9_14EqualsComparerINS0_8equal_toIS8_EEEENS0_9allocatorISB_EEE9SelectKeyESI_SK_E15insert_noresizeERKSB_
qfm:_UnityEventBase_GetValidMethodInfo_m3402366469
PNj:_GZipStream_SetLength_m2544434589
H$c:__ZN5physx6shdfnd5ArrayIPvNS0_15InlineAllocatorILj256ENS0_19ReflectionAllocatorINS_2Gu31SpherePersistentContactManifoldEEEEEE15growAndPushBackERKS2_
Nsd:__ZN5physx2Cm18DelegateFanoutTaskINS_2Sc5SceneEXadL_ZNS3_17finalizationPhaseEPNS_10PxBaseTaskEEEE11runInternalEv
akp:_Cover_OnLeftClick_m12438792
K6k:_ReadOnlyCollection_1_System_Collections_IEnumerable_GetEnumerator_m4196181776_gshared
Za:invoke_vifff
d$b:__Z41Register_UnityEngine_GameObject_set_layerv
tNm:__ZN6il2cpp2os4File8CopyFileERKNSt3__212basic_stringIcNS2_11char_traitsIcEENS2_9allocatorIcEEEESA_bPi
Ayf:_Array_qsort_TisWin32_IP_ADAPTER_ADDRESSES_t680756680_m492373890_gshared
A$b:__Z53Register_UnityEngine_Input_INTERNAL_get_mousePositionv
T8n:__Z58RuntimeInvoker_Void_t1841601450_VoidTaskResult_t3325310798PFvvEPK10MethodInfoPvPS4_
uEc:__ZN5physx6shdfnd15atomicDecrementEPVi
df:_emscripten_request_fullscreen
Lxe:_XmlSchemaCollectionEnumerator_System_Collections_IEnumerator_get_Current_m4267065032
Rrb:__ZN20LocalFileSystemWebGL6DeleteER13FileEntryDatab
_df:_Decimal_System_IConvertible_ToUInt16_m1621568250
ff:_emscripten_glDisableVertexAttribArray
mWi:_FileDialogPermission__ctor_m2955584994
Qn:FUNCTION_TABLE_iiiifiiii
b$h:_TimeZoneInfo_Equals_m2171834223
pYh:_TimeSpan_get_TotalMinutes_m1645177229_AdjustorThunk
w4j:_CustomTypeDescriptor_GetAttributes_m2992835346
rrf:_RuntimeTypeHandle_IsArray_m1272469669
LUf:_GregorianCalendar_GetDaysInMonth_m3085253295
bhf:_ObjectReader_ResolveSimpleAssemblyName_m998808872
F4:__ZN4gles23ClearCurrentFramebufferEP7ApiGLESbbbRK10ColorRGBAffi
Oxd:__ZN5physx2Gu11HeightField13releaseMemoryEb
rf:_emscripten_glDeleteObjectARB
lg:_IMG_Load
Fni:_UnexceptionalStreamReader_Read_m3839775235
Fgj:_MonoMethodMessage_get_CallType_m1179142893
PSj:_CookieContainer_AddRemoveDomain_m2339786015
k9:__ZN6prcoreL17RemapGenericFloatI17TexFormatRGBAHalf18TexFormatARGBFloatEEvPKNS_9InnerInfoE
cMf:_Enum_System_IConvertible_ToInt32_m2459904362
Run:__Z61RuntimeInvoker_RuntimeObject_Double_t4078015681_RuntimeObjectPFvvEPK10MethodInfoPvPS4_
LIg:_DecoderReplacementFallbackBuffer_Reset_m2576819665
SWo:__ZL123XmlSchemaComplexType_t4086789226_CustomAttributesCacheGenerator_XmlSchemaComplexType_t4086789226____Attributes_PropertyInfoP21CustomAttributesCache
hmj:_BinaryMethodCall__ctor_m3531075975
cdh:_Socket_set_DualMode_m4090797572
wKk:_NclUtilities_IsAddressLocal_m586188739
zl:_JS_SystemInfo_GetBrowserVersionString
Z5a:__ZN2UI13RectTransform23VirtualRedirectTransferER14SafeBinaryRead
qbh:_SimpleAsyncResult_Reset_internal_m382937752
h2c:__ZN5physx7NpScene17flushQueryUpdatesEv
vlf:_FormatterServices_LoadAssemblyFromStringNoThrow_m2397319602
gik:_List_1_System_Collections_ICollection_get_SyncRoot_m3733894943_gshared
s2a:__ZNSt3__26vectorIN9ShaderLab20SerializedSubProgramENS_9allocatorIS2_EEE6assignIPS2_EENS_9enable_ifIXaasr21__is_forward_iteratorIT_EE5valuesr16is_constructibleIS2_NS_15iterator_traitsIS9_E9referenceEEE5valueEvE4typeES9_S9_
U5b:__Z18Transfer_BlittableI8JSONReadLb0E8BitFieldEvRK29SerializationCommandArgumentsR31RuntimeSerializationCommandInfo
vGe:_RegexParser_ScanCharClass_m4258024393
Cug:_SiteIdentityPermission__cctor_m4100054256
uLh:_XsdBuilder_BuildSimpleTypeRestriction_Base_m3577676097
Uai:_Int64_CompareTo_m1385259998
flb:__ZL17Transfer_GUIStyleI18StreamedBinaryReadILb1EELb0EEvRK29SerializationCommandArgumentsR31RuntimeSerializationCommandInfo
AUf:_EncodingTable_GetCodePageFromName_m2633240434
YId:__ZN12PhysXRaycast15InitializeClassEv
z2c:__ZN5physx7NpScene10unlockReadEv
u7d:_XmlTextEncoder_WriteRaw_m2272278553
TAm:_il2cpp_z_deflate
y0a:__ZN9ShaderLab14SerializedPass8TransferI14SafeBinaryReadEEvRT_
QB:__ZN12AudioManager16SetListenerPauseEb
pYa:__ZNSt3__26vectorIN30RuntimeInitializeOnLoadManager9ClassInfoE13stl_allocatorIS2_L18MemLabelIdentifier13ELi16EEE6assignINS_11__wrap_iterIPS2_EEEENS_9enable_ifIXaasr21__is_forward_iteratorIT_EE5valuesr16is_constructibleIS2_NS_15iterator_traitsISC_E9referenceEEE5valueEvE4typeESC_SC_
e0m:__ZN6il2cpp2vm9Exception25RaiseOutOfMemoryExceptionERKNS_5utils10StringViewIDsEE
tup:__ZNKSt3__28time_putIwNS_19ostreambuf_iteratorIwNS_11char_traitsIwEEEEE6do_putES4_RNS_8ios_baseEwPK2tmcc
ga:invoke_viiiiiiiiiii
oNj:_DeflateStreamNative_UnmanagedRead_m2983759656
LWh:_Scheduler__ctor_m3716265742
GGg:_TermInfoReader_Get_m2250176589
Zfi:_File_Copy_m3404668382
eNd:__Z56Register_UnityEngine_Analytics_CustomEventData_AddDoublev
aPa:__ZN11ChannelInfo8TransferI19StreamedBinaryWriteILb0EEEEvRT_
Khh:_ConnectionState_TrySetBusy_m2003766979
PXo:__ZL110XmlSchemaElement_t2433337156_CustomAttributesCacheGenerator_XmlSchemaElement_t2433337156____Final_PropertyInfoP21CustomAttributesCache
gjl:_InternalEnumerator_1_System_Collections_IEnumerator_get_Current_m3583252352_gshared
_wm:_Physics_Raycast_m4094847631
y_k:_ReadOnlyCollection_1_System_Collections_IEnumerable_GetEnumerator_m3862165525_gshared
bQc:__ZN5physx2Sc9ClothCore22setFrictionCoefficientEf
Xzb:__ZN14qsort_internal13Partition3WayIP17RODataReplacementi19ROSorterReplacementEENSt3__24pairIT_S6_EES6_S6_T0_T1_
$Jc:__ZNK5physx9NpPhysics17getNbConvexMeshesEv
W1c:__ZNK5physx7NpScene29getContactCorrelationDistanceEv
j$b:__Z34Register_UnityEngine_Gradient_Initv
ZDo:__ZL53_Activator_t3825585294_CustomAttributesCacheGeneratorP21CustomAttributesCache
toj:_BigInteger__ctor_m3239748086
XNa:__ZN13ScreenManager23SetIsOrientationEnabledE18EnabledOrientationb
xte:_XmlBaseConverter_StringToGYearMonthOffset_m2903941203
HKh:_XsdBuilder_InitAttribute_m1184442273
cBf:_Array_SortImpl_TisUInt32_t2149682021_m3053937676_gshared
mhp:_HitInfo_SendMessage_m3395411273
Y6j:_LinkedListNode_1_Invalidate_m2014524548_gshared
YVj:_CFObject_dlclose_m2952469064
aVa:__ZN9InputAxis8TransferI19StreamedBinaryWriteILb0EEEEvRT_
lRb:__ZN13ProduceHelperI9TransformLb0EE7ProduceE18MemLabelIdentifier18ObjectCreationMode
wnc:__ZN5physx6shdfnd8SyncImpl4waitEj
MIk:_HttpWebRequest_CheckAuthorization_m350356356
_Th:_TaskSchedulerException__ctor_m912204422
ipp:___ftello_unlocked
A6d:_XmlRegisteredNonCachedStream_BeginWrite_m1596059130
p2m:__ZN6il2cpp6icalls8mscorlib6System4Type29GetGenericTypeDefinition_implEP20Il2CppReflectionType
ZKi:_Dictionary_2_get_Item_m2905760256_gshared
bBh:_Array_InternalArray__ICollection_Add_TisHitInfo_t1761367055_m2956071622_gshared
gra:__ZN10GameObject23VirtualRedirectTransferER18StreamedBinaryReadILb0EE
Jdn:__ZN6il2cpp2gc16GarbageCollector13AllocateFixedEjPv
s4m:__ZNSt3__26__treeINS_12__value_typeIP24Il2CppReflectionAssemblyPvEENS_19__map_value_compareIS3_S5_NS_4lessIS3_EELb1EEENS_9allocatorIS5_EEE7destroyEPNS_11__tree_nodeIS5_S4_EE
Lg:_glFrontFace
mjf:_ValueFixup__ctor_m2991090736
uxe:_XmlSchemaCollectionEnumerator__ctor_m1105457414
Lvn:__Z88RuntimeInvoker_DateTime_t693205669_Int64_t909078037_RuntimeObject_BooleanU26_t3168250738PFvvEPK10MethodInfoPvPS4_
qZk:_ReadOnlyCollection_1_System_Collections_ICollection_CopyTo_m3557011202_gshared
pui:_DictionaryEnumerator_Reset_m1345079368_gshared
rOk:_List_1_InsertRange_m3462925912_gshared
mMd:__ZN18BaseUnityAnalytics7ReleaseEv
kQb:__ZN13ProduceHelperI19LowerResBlitTextureLb0EE7ProduceE18MemLabelIdentifier18ObjectCreationMode
M9k:_Comparison_1_Invoke_m2907566573_gshared
O3c:__ZN5physx13NpVolumeCache17getNbCachedShapesEv
YEb:__ZNSt3__26vectorI16ShadowCasterData13stl_allocatorIS1_L18MemLabelIdentifier2ELi16EEE21__push_back_slow_pathIKS1_EEvRT_
UKn:__Z115RuntimeInvoker_Void_t1841601450_RuntimeObject_Int32_t2071877448_Int32_t2071877448_SByte_t454417549_SByte_t454417549PFvvEPK10MethodInfoPvPS4_
Dxf:_Array_qsort_TisBoolean_t3825574718_m34222095_gshared
fLh:_XsdBuilder_BuildElement_MinOccurs_m980755117
wIk:_HttpWebRequest_RewriteRedirectToGet_m1101098788
vDh:_Array_InternalArray__Insert_TisEntry_t3739892816_m564577370_gshared
Ram:_X509ExtensionCollection_get_Item_m4212651995
ch:_strftime_l
B8:__ZN6prcoreL17RemapGenericFloatI17TexFormatRGBFloat18TexFormatRGBAFloatEEvPKNS_9InnerInfoE
z0i:_ParamsArray__ctor_m1844438076
n7j:_Enumerator_MoveNextRare_m2868834704_gshared
p5c:__ZN5physx2Sc5Scene15getRenderBufferEv
cRi:_RSAOAEPKeyExchangeFormatter_CreateKeyExchange_m976311703
WOm:__ZN6il2cpp2vm4Type15IsSystemDecimalEPK10Il2CppType
G5h:_UInt64_System_IConvertible_ToBoolean_m3012279573_AdjustorThunk
C3f:_Datatype_unsignedLong__ctor_m1035613898
LMi:_HashAlgorithmName_get_SHA1_m2611692165
DVj:_FtpDataStream_SetLength_m1296403598
b7a:__ZN12HandlerChain10ToAbsoluteEPKc
Owi:_Enumerator_MoveNext_m1309573792_gshared
mnf:_SafeSerializationManager_CompleteSerialization_m3929237599
OLe:_RegexParser_ScanCharClass_m3516374478
hRf:_GregorianCalendar__ctor_m3794576475
Xng:___Filters__cctor_m1470749771
aSg:_CancellationTokenRegistration_TryDeregister_m1771633277
Mpb:__ZN13MonoBehaviour23VirtualRedirectTransferER19StreamedBinaryWriteILb0EE
Et:__ZN9AudioClip11CreateSoundEv
PUk:_ObjectEqualityComparer_1_IndexOf_m1025631064_gshared
cZh:_TimeSpan_op_Inequality_m257547441
OTg:_ExecutionContext_GetObjectData_m1456913356
AVm:__ZN14dense_hash_mapI10KeyWrapperINSt3__24pairIPK9FieldInfoP11Il2CppClassEEEj17ReflectionMapHashIS8_ENS9_14EqualsComparerINS1_8equal_toIS8_EEEENS1_9allocatorINS2_IKS9_jEEEEEC2EjRKSB_RKSF_
kaa:__ZL18ProgramUniform2uivPK7ApiGLESjiihPKv
$Qm:__ZNK15dense_hashtableINSt3__24pairIK10KeyWrapperINS1_IPK10MethodInfoP11Il2CppClassEEEjEES9_17ReflectionMapHashIS8_EN14dense_hash_mapIS9_jSD_NS9_14EqualsComparerINS0_8equal_toIS8_EEEENS0_9allocatorISB_EEE9SelectKeyESI_SK_E13find_positionERSA_
O0o:__ZL56LegacySslStream_t83997747_CustomAttributesCacheGeneratorP21CustomAttributesCache
qRd:__ZN11UnityEngine7Connect16PersistentValues13RestoreValuesER8JSONRead
mHl:_Tuple_2_System_IComparable_CompareTo_m3606644887_gshared
xul:_InternalEnumerator_1_System_Collections_IEnumerator_get_Current_m3576641073_AdjustorThunk
CEj:_PropertyDescriptorCollection_GetEnumerator_m4151070489
yoa:__ZN20ArchiveStorageReader31TryToReadDirectoryFromBlockDataEyPKvj
uKf:_Double_System_IConvertible_ToByte_m3004284950_AdjustorThunk
Knh:_X509Certificate2ImplMono_Reset_m1051229728
_nd:__ZNK5physx2Gu11HeightField17getHeightInternalEff
X3m:__ZN6il2cpp2vmL11GetIdentityEP14Il2CppIUnknown
ygg:_SmallXmlParser_ReadCDATASection_m2558307107
o1c:__ZNK5physx7NpScene22getClientBehaviorFlagsEh
Xah:_ServicePointManager_get_ServerCertificateValidationCallback_m1409951209
GKc:__ZN5physx9NpFactory14createMaterialEfff
pJp:_glUniform4iv__wrapper
ZD:__ZN5physx5cloth11PhaseConfigC2Et
IJd:__ZN13PhysicsModule21OverlapBoxUserCollectERK8Vector3fS2_RK11Quaternionfi23QueryTriggerInteractionRN8IPhysics12IUserCollectE
wuf:_CryptoStream_get_Length_m731662586
P6f:_FacetsCompiler_CheckDupFlag_m745989306
_$c:__ZThn8_N5physx2Sc19ShapeInstancePairLLD0Ev
_id:__ZN5physx19PxcContactSphereBoxERKNS_2Gu13GeometryUnionES3_RKNS_11PxTransformES6_RKfRNS_10PxcNpCacheERNS0_13ContactBufferE
C1c:__ZNK5physx7NpScene21getBroadPhaseCallbackEh
atc:__ZN5physx6shdfnd5ArrayIPNS_12PxConstraintENS0_19ReflectionAllocatorIS3_EEE15growAndPushBackERKS3_
xLh:_XsdBuilder_BuildComplexType_Block_m931259571
mPk:_List_1_System_Collections_IList_Insert_m3274823222_gshared
tPa:__ZNSt3__213__stable_sortIRNS_4lessI4PPtrI11SpriteAtlasEEENS_11__wrap_iterIPS4_EEEEvT0_SA_T_NS_15iterator_traitsISA_E15difference_typeEPNSD_10value_typeEi
hAc:__ZNK5physx2Sc15ArticulationSim11checkResizeEv
VUl:_Configuration_get_FilePath_m3184045596
JUh:_ThreadPool_NotifyWorkItemProgress_m4186065427
Pim:_PropertyName_ToString_m1129982609_AdjustorThunk
NL:__ZN8keywords6CreateEPKc
dec:__ZN5physx2Gu11gjkRelativeINS0_8CapsuleVENS0_11ConvexHullVEEEjRKT_RKT0_RKNS_6shdfnd3aos15PsMatTransformVERNSB_5Vec3VESG_SG_RNSB_6FloatVE
Aqn:__ZN6il2cpp2os17ConditionVariable9TimedWaitEPNS0_9FastMutexEj
T:Math_imul
Stj:_CipherSuite_createEncryptionCipher_m1926075645
jNa:__ZN11PlayerPrefs6GetIntERKN4core12basic_stringIcNS0_20StringStorageDefaultIcEEEEi
Eyf:_Array_qsort_TisRuntimeObject_m2803687387_gshared
DDm:__ZN6il2cpp5utils13dynamic_arrayIPK10Il2CppTypeLj4EEC2ERKS5_
u2o:__ZL120X509Certificate2_t4056456767_CustomAttributesCacheGenerator_X509Certificate2_t4056456767____MonoCertificate_PropertyInfoP21CustomAttributesCache
Fak:_Enumerator__ctor_m596314019_gshared
gyn:__Z146RuntimeInvoker_Int32_t2071877448_RuntimeObject_Int32_t2071877448_RuntimeObject_Int32_t2071877448_Int32_t2071877448_RuntimeObject_Int32_t2071877448PFvvEPK10MethodInfoPvPS4_
eZe:_Hashtable_ContainsKey_m2716576664
l8g:_Compiler_PushComplexType_m527142124
Ufn:__ZN6il2cpp6icalls8mscorlib6System17RuntimeTypeHandle11GetBaseTypeEP27Il2CppReflectionRuntimeType
_Ek:_U3CU3Ec_U3CThrowAsyncU3Eb__6_1_m1649765729
qEd:__ZN12PhysXRaycast19ApplyParticleForcesER13dynamic_arrayI21BatchedColliderResultLj4EE
Vrh:_Array_InternalArray__ICollection_Remove_TisRangePositionInfo_t2780802922_m123583279_gshared
vvm:_UnityEvent_3_FindMethod_Impl_m2694035610_gshared
WBh:_Array_InternalArray__ICollection_CopyTo_TisInt32_t2071877448_m984622488_gshared
zN:__ZN18ScriptingArguments9AddObjectE18ScriptingObjectPtr
wE:__ZN11UnityEngine15CloudWebService16SessionContainerD2Ev
G2l:_Marshal_Copy_m1683535972
BRd:__ZL38InitializeUnityConnectScriptingClassesv
wdg:_RuntimePropertyHandle_Equals_m3425069781_AdjustorThunk
lJb:__ZN13ProbeRenderer8ConvolveEbijjb
V4:__ZN17GenericDynamicVBOC2ER9GfxDevice13GfxBufferModejj
V5l:_Context_get_HasDynamicSinks_m1998518649
FZc:__ZNK5physx2Sc5Scene7isValidEv
$Lh:_XsdBuilder_InitChoice_m2872152378
PF:__ZN11UnityEngine15CloudWebService17SessionEventQueue10PurgeItemsEj
F3c:__ZN5physx2Sq17SceneQueryManager29setDynamicTreeRebuildRateHintEj
MXh:_ThrowHelper_ThrowKeyNotFoundException_m3051099224
SJb:__ZN6Camera16StandaloneRenderENS_10RenderFlagEP6ShaderRKN4core12basic_stringIcNS3_20StringStorageDefaultIcEEEE
sqg:_Array_System_Collections_IList_get_Item_m2088124007
oqg:_Array_GetLength_m2083296647
Kqa:__ZN16LevelGameManager23VirtualRedirectTransferER24GenerateTypeTreeTransfer
Wkp:_Map_OnCoverLeftClicked_m1927310858
h9h:_Int16_ToString_m1998332306_AdjustorThunk
TRa:__ZN12BoneWeights48TransferI19StreamedBinaryWriteILb0EEEEvRT_
k$:__ZN9GfxDevice20DeallocRenderSurfaceEP17RenderSurfaceBase
Yyc:__ZN5physx6shdfnd5ArrayIPvNS0_19ReflectionAllocatorINS_18NpArticulationLinkEEEE4copyINS0_15InlineAllocatorILj256ES5_EEEEvRKNS1_IS2_T_EE
_6h:_ValueType_ToString_m3796301715
Uaa:__ZN20GpuProgramParameters36UpdatePrepareValuesMaximumBufferSizeEv
kac:__ZNK5physx3Cct10Controller12getKineShapeEv
jQk:_List_1_InsertRange_m329021419_gshared
qrc:__ZN5physx6shdfnd4sortIPvNS0_4LessIS2_EENS0_19ReflectionAllocatorINS_2Sc18TriggerInteractionEEEEEvPT_jRKT0_RKT1_j
Bjl:_InternalEnumerator_1_System_Collections_IEnumerator_get_Current_m6478123_AdjustorThunk
Wsa:__ZN12BaseRenderer23RendererBecameInvisibleEv
NKm:__GLOBAL__sub_I_threadpool_ms_cpp
QXc:__ZNK5physx2Sc8BodyCore14getMaxAngVelSqEv
Ohb:__Z29Transfer_Blittable_ArrayFieldI24GenerateTypeTreeTransferfEvRT_R9ArrayInfoRK23StaticTransferFieldInfo
uT:__ZNSt3__26__treeINS_12__value_typeIN4core12basic_stringIcNS2_20StringStorageDefaultIcEEEES6_EENS_19__map_value_compareIS6_S7_NS_4lessIS6_EELb1EEE13stl_allocatorIS7_L18MemLabelIdentifier13ELi16EEE7destroyEPNS_11__tree_nodeIS7_PvEE
zyn:__Z76RuntimeInvoker_RuntimeObject_RuntimeObject_SByte_t454417549_SByte_t454417549PFvvEPK10MethodInfoPvPS4_
fLb:__ZN19CustomRenderTexture9AddParentE4PPtrIS_E
ZLa:__ZN8Gradient8TransferI14SafeBinaryReadEEvRT_
jgf:_MessageEnd_Write_m1080317209
zop:_vfscanf
bGa:__ZNSt3__26vectorIN4core12basic_stringIcNS1_20StringStorageDefaultIcEEEE13stl_allocatorIS5_L18MemLabelIdentifier1ELi16EEE7reserveEj
Dgh:_WebHeaderCollection_ContainsNonAsciiChars_m1648895077
oUj:_FileWebRequest__ctor_m4003648606
GDj:_Int32Converter_FromString_m708524203
XVd:_XmlConvert_CreateInvalidSurrogatePairException_m950732282
gni:_NullTextWriter_get_Encoding_m2296593605
QWl:_SaveContext_HasValues_m2414754202
Amf:_ObjectIDGenerator__cctor_m3537626169
_Lf:_Enum_System_IConvertible_ToSByte_m3488526280
wCf:_AsyncTaskMethodBuilder_1_Start_TisU3CReadAsyncInternalU3Ed__34_t965435883_m3850646618_gshared
uGh:_XmlSchemaParticle_set_MaxOccursString_m1832574879
Xbe:_XmlTextReaderImpl_get_DtdParserProxy_BaseUri_m3015625632
r4f:_DatatypeImplementation_DeriveByList_m1297990434
Zjd:__ZN5physx2Gu32PCMConvexVsMeshContactGeneration15processTriangleEPKNS_6PxVec3EjhPKj
WPn:__Z73RuntimeInvoker_RuntimeObject_RuntimeObject_SByte_t454417549_RuntimeObjectPFvvEPK10MethodInfoPvPS4_
ZZi:_NumberFormatter_Init_m1022036773
ZPh:_Ucs4Encoding_GetMaxCharCount_m2162157109
USk:_ObjectEqualityComparer_1_GetHashCode_m3393971547_gshared
lXk:_Enumerator__ctor_m501297655_gshared
Bnd:__ZN5physx6shdfnd5ArrayINS_2Cm8Matrix34ENS0_19ReflectionAllocatorIS3_EEE15growAndPushBackERKS3_
ekd:__ZN5physx2Gu32PCMConvexVsMeshContactGeneration31generatePolyDataContactManifoldERNS0_9TriangleVEjjhPNS0_21MeshPersistentContactERjRKNS_6shdfnd3aos6FloatVERNS8_5Vec3VE
Jzd:__ZN5physx10SubSortSAH5splitEPjj
UXg:_CompletionActionInvoker_ExecuteWorkItem_m3047999104
I6b:__ZN8JSONRead8TransferI10RectOffsetEEvRT_PKc17TransferMetaFlagsb
xF:__ZN9JSONWrite8TransferIN11UnityEngine15CloudWebService14DataErrorEvent15FileErrorDetailEEEvRT_PKc17TransferMetaFlags
vUn:__Z131RuntimeInvoker_RuntimeObject_SByte_t454417549_Int32_t2071877448_RuntimeObject_Int32_t2071877448_Int32_t2071877448_Int32_t2071877448PFvvEPK10MethodInfoPvPS4_
_$n:__Z99RuntimeInvoker_Int32_t2071877448_RuntimeObject_Int64_t909078037_Int32_t2071877448_Int32_t2071877448PFvvEPK10MethodInfoPvPS4_
rBg:_SecurityDocument__ctor_m1738940679
x7g:_Compiler_CheckParticleDerivation_m1639028462
Ffc:__ZN5physx2Gu3EPA8addFacetEjjjRKNS_6shdfnd3aos6FloatVES6_
mLg:_Encoding_GetBestFitUnicodeToBytesData_m648319329
Hw:__ZN12SoundManager20RegisterModifiedClipEP10SampleClip
oRj:_SettingsSection_get_Ipv6_m1476765584
NSa:__ZN12MeshRenderer15AddAsRenderNodeER15RenderNodeQueueRK20DeprecatedSourceData
U$l:_AsyncTaskMethodBuilder__cctor_m3696105540
cz:__ZN11AudioSource4PlayEd
cni:_U3CU3Ec_U3C_cctorU3Eb__73_3_m2069408000
nnc:__ZN5physx3Cct9CCTParamsC2Ev
IUh:_ThreadPoolTaskScheduler_NotifyWorkItemProgress_m2221467793
fIp:b83
CNc:__ZN5physx7NpCloth21setStiffnessFrequencyEf
Bcd:__ZN5physx17PxcSweepBoxConvexERKNS_11PxsCCDShapeES2_PKNS_12PxsRigidBodyES5_RKNS_11PxTransformES8_S8_S8_fRNS_6PxVec3ESA_RNS_10PxcNpCacheERNS_18PxcNpThreadContextEf
Jlh:__Z30il2cpp_codegen_resolve_pinvokeIPFviELj67ELj10EET_RAT0__KcRAT1__S3_20Il2CppCallConvention13Il2CppCharSetib
Vvd:__ZThn8_N5physx2Gu11HeightField14onRefCountZeroEv
jll:_InternalEnumerator_1_System_Collections_IEnumerator_get_Current_m3481741172_AdjustorThunk
J9l:_X501__cctor_m2610532554
g_g:_XPathNode_get_IsText_m4066263252
Kqc:__ZN5physx2Sc5Actor9setActiveEbj
Udc:__ZN12_GLOBAL__N_127SphereMeshContactGeneration15processTriangleEjRKN5physx6PxVec3ES4_S4_PKj
Vfn:__ZN6il2cpp6icalls8mscorlib6System17RuntimeTypeHandle14GetElementTypeEP27Il2CppReflectionRuntimeType
lak:_Enumerator_MoveNextRare_m1290111677_gshared
SIa:__ZN7Cubemap23VirtualRedirectTransferER18StreamedBinaryReadILb0EE
Suj:_RecordProtocol_EncodeRecord_m3884270352
Aae:_XmlTextReaderImpl_ThrowUnclosedElements_m392853022
Baf:_DateTime_System_IConvertible_ToType_m3821835592
V3e:_Convert_ToUInt32_m776714429
jec:__ZN5physx2Gu22barycentricCoordinatesERKNS_6shdfnd3aos5Vec3VES5_S5_RNS2_6FloatVE
Loa:__ZN12FileAccessor4SeekEx10FileOrigin
Cgb:__ZL26Transfer_SimpleNativeClassI24GenerateTypeTreeTransfer17AnimationCurveTplIfELb0EEvRK29SerializationCommandArgumentsR31RuntimeSerializationCommandInfo
I7b:__ZN8JSONRead21TransferSTLStyleArrayI13dynamic_arrayI9BoundsIntLj4EEEEvRT_17TransferMetaFlags
UKa:__ZN24GenerateTypeTreeTransfer8TransferI13dynamic_arrayI33EnlightenTerrainChunksInformationLj4EEEEvRT_PKc17TransferMetaFlags
AMf:_Environment_get_OSVersion_m1247315981
ZXl:_ConfigurationFileMap_Clone_m1273941989
r1i:_Assembly__ctor_m1050192922
byd:__ZL18TestUnifiedNormalsjPKN5physx6PxVec3EjPNS_2Gu9TriangleTIjEEb
frg:_Array_CreateInstance_m3327690220
xU:__ZN16LightmapSettings20DidChangeActiveSceneEP10UnitySceneS1_
VVh:_ThreadPool_InitializeVMTp_m1363568171
Pep:__ZL59g_AssemblyU2DCSharp_Assembly_CustomAttributesCacheGeneratorP21CustomAttributesCache
D9n:__ZL96AppDomain_t2719102437_CustomAttributesCacheGenerator_AppDomain_DefineDynamicAssembly_m3109990261P21CustomAttributesCache
BBl:_AsyncTaskMethodBuilder_1_GetTaskForResult_m1442674425_AdjustorThunk
_ag:_SchemaCollectionCompiler_CompileComplexType_m3389122340
d5l:_ClientIdentity_CreateObjRef_m3625915063
Euj:_TlsClientFinished__ctor_m3019203717
$ig:_PrivateKeyInfo_DecodeRSA_m1427048948
t0m:__ZN6il2cpp2vm9Exception23GetInvalidCastExceptionERKNS_5utils10StringViewIDsEE
oHe:_RegexCharClass_CharInClassRecursive_m1782394851
Wsg:_String_IndexOf_m2126171214
fbi:_Int64_ToString_m1544341651_AdjustorThunk
Eud:__ZNK5physx13GuMeshFactory17getNbConvexMeshesEv
KO:__Z63ThreadAndSerializationSafeCheckGetMonoBehaviourBeingTransferredv
qmn:_GC_enable
Ewj:_TlsClientCertificateVerify_ProcessAsSsl3_m3377063356
Age:_ValidationEventHandling_System_Xml_IValidationEventHandling_SendEvent_m344961851
m$h:_AdjustmentRule_CreateAdjustmentRule_m4042597561
c_n:__Z113RuntimeInvoker_Void_t1841601450_SByte_t454417549_SByte_t454417549_Int32_t2071877448_CancellationToken_t1851405782PFvvEPK10MethodInfoPvPS4_
sAk:_ParameterInfo_New_m2231427872
o6g:_BaseValidator_SendValidationEvent_m4050587830
Dnf:_DelegatePInvokeWrapper_SerializationEventHandler_t2339848500
A4l:_ChannelServices_RegisterChannel_m3832858065
OGe:_RegexNode_Reduce_m3891474065
iLf:_Enum_GetName_m1226611481
woe:_XdrBuilder_IsSkipableAttribute_m1509279316
L$h:_U3CU3Ec__cctor_m95124755
Qy:__ZN11AudioSource5ResetEv
l_m:__ZNSt3__26vectorIjNS_9allocatorIjEEEC2Ej
uzb:__ZN12ImageFilters27SetSurfaceUseResolvedBufferEP13RenderTextureb
MYd:_XmlDocument_SetupReader_m2129952156
ZDe:_CompiledRegexRunner_InitTrackCount_m4187404733
IPa:__ZN14Texture2DArray23VirtualRedirectTransferER18StreamedBinaryReadILb0EE
HTj:_CredentialKey_IsPrefix_m1400410006
Q5a:__ZN2UI13RectTransform13AwakeFromLoadE17AwakeFromLoadMode
vEb:__ZN14qsort_internal30FindAndMovePivotToLastPositionIP20ShadowCasterSortDatai26ShadowCasterSortDataSorterEEvT_S4_T0_T1_
dDm:__ZNK15dense_hashtableI10KeyWrapperIPK19Il2CppGenericMethodES4_N6il2cpp8metadata23Il2CppGenericMethodHashEN14dense_hash_setIS4_S7_NS4_14EqualsComparerINS6_26Il2CppGenericMethodCompareEEENSt3__29allocatorIS4_EEE8IdentityESB_SE_E3endEv
aab:__Z18Transfer_BlittableI14SafeBinaryReadLb1EiEvRK29SerializationCommandArgumentsR31RuntimeSerializationCommandInfo
EGl:_TaskFactory_1__ctor_m3007216488_gshared
kck:_List_1_RemoveAt_m3516926931_gshared
I_a:__ZN17PersistentManager13GetAllFileIDsERKN4core12basic_stringIcNS0_20StringStorageDefaultIcEEEER13dynamic_arrayIxLj8EE
Gif:_ObjectHolder_SetFlags_m738319465
Drg:_Array_LastIndexOf_m4096535198
oVe:_ArrayList_Add_m1719188324
KHc:__ZN18MultiQueryCallbackIN5physx12PxOverlapHitEE6invokeERfPKNS0_2Sq13PrunerPayloadEj
Bgb:__Z18Transfer_BlittableI24GenerateTypeTreeTransferLb1E12PropertyNameEvRK29SerializationCommandArgumentsR31RuntimeSerializationCommandInfo
sKf:_Double_System_IConvertible_ToSByte_m1653690240_AdjustorThunk
ool:_InternalEnumerator_1_get_Current_m3667052076_AdjustorThunk
Thc:__ZN5physx2Gu18gjkRelativeRayCastINS0_4BoxVES2_NS0_10ShrunkBoxVES3_EEbRT_RT0_RKNS_6shdfnd3aos15PsMatTransformVERKNS9_6FloatVERKNS9_5Vec3VESI_RSD_RSG_SK_fb
ati:_ArraySegment_1_System_Collections_Generic_IListU3CTU3E_RemoveAt_m1220965933_gshared
Xk:_glGetStringi
t2l:_ManagedErrorInfo_GetGUID_m3684105608
Lug:_StrongNameIdentityPermission_IsEmpty_m1579653063
XBe:_X509Store__ctor_m1573680316
yqn:__ZN6il2cpp2os17ConditionVariableD2Ev
uBh:_Array_InternalArray__ICollection_CopyTo_TisEntry_t827949121_m1869371703_gshared
eDf:_ThrowHelper_IfNullAndNullsAreIllegalThenThrow_TisSingle_t2076509932_m3769746967_gshared
Tfp:_Quaternion_get_identity_m443011477
rwh:_Array_InternalArray__IndexOf_TisClientCertificateType_t4001384466_m1168139450_gshared
Tsg:_ReflectionPermission_Copy_m888412694
yWk:_Queue_1_Dequeue_m1404816651_gshared
jG:__ZN11UnityEngine15CloudWebService20WebRequestRestClient18GetResponseHeadersEv
sNa:__ZNSt3__23mapIN4core12basic_stringIcNS1_20StringStorageDefaultIcEEEE9PrefValueNS_4lessIS5_EENS_9allocatorINS_4pairIKS5_S6_EEEEEixERSB_
llk:_List_1_GetEnumerator_m3294992758_gshared
gyf:_Array_qsort_TisInt16_t4041245914_TisRuntimeObject_m4156218915_gshared
qVj:_FtpAsyncResult_DoCallback_m1497652311
eTi:_SymmetricAlgorithm_set_IV_m4262655606
GHm:_scan_tree
_3i:_CustomAttributeNamedArgument_GetHashCode_m3715408876_AdjustorThunk
bMj:_TraceUtils_IsOwnedTL_m2152228107
Lmh:_X509Certificate2_AppendBuffer_m3517242299
uIb:__Z35IntersectSpherePlaneBoundsOptimizedRKN4math7_float4EPS1_i
vRf:_CultureInfo_get_IsNeutralCulture_m3874876470
dff:_Delegate_CreateDelegate_m3813023227
Csp:__ZNKSt3__27num_putIcNS_19ostreambuf_iteratorIcNS_11char_traitsIcEEEEE6do_putES4_RNS_8ios_baseEcx
gHi:_ValueCollection_System_Collections_ICollection_CopyTo_m2134271229_gshared
apc:__ZN5physx2Sc8ShapeSim20createLowLevelVolumeEjRKNS_9PxBounds3EjNS_9AABBMgrIdE
vWg:_SpinLock_Enter_m2669749069
A_k:_ReadOnlyCollection_1_System_Collections_ICollection_CopyTo_m3190669530_gshared
Dsp:__ZNKSt3__27num_putIcNS_19ostreambuf_iteratorIcNS_11char_traitsIcEEEEE6do_putES4_RNS_8ios_baseEcm
aLk:_IPAddressCollection_Add_m1453492041
tPg:_UTF32Encoding_GetEncoder_m420301834
HNc:__ZNK5physx7NpCloth22getAngularInertiaScaleEv
Gjc:__ZN26IntersectAnyVsMeshCallbackILi1ELb1EE10processHitERKN5physx12PxRaycastHitERKNS1_6PxVec3ES7_S7_RfPKj
Asp:__ZNKSt3__27num_putIcNS_19ostreambuf_iteratorIcNS_11char_traitsIcEEEEE6do_putES4_RNS_8ios_baseEcb
YT:__Z22CleanupLODGroupManagerPv
Z4c:__ZN5physx6shdfnd5ArrayINS_2Sc5Scene14SimpleBodyPairENS0_19ReflectionAllocatorIS4_EEE8recreateEj
Xye:_XmlSchemaElement_set_IsAbstract_m2516028150
Fl:_glUniform3fv
tXa:__ZNSt3__218__insertion_sort_3IRN15ResourceManager10Dependency6SorterEPS2_EEvT0_S6_T_
xrf:_RuntimeType_GetEnumValues_m1274804127
ACg:_TokenizerStream_GetNextFullToken_m947434179
BOh:_XsdValidator_ProcessInlineSchema_m3993144522
kyn:__Z64RuntimeInvoker_RuntimeObject_Int32_t2071877448_Int16_t4041245914PFvvEPK10MethodInfoPvPS4_
y1i:_Assembly_get_CodeBase_m1739717128
dDb:__ZNK16LightmapSettings31GetRealtimeLightmapDecodeValuesEv
Yx:__ZN5audio5mixer12SetSuspendedERNS0_16AudioMixerMemoryEb
D$a:__ZN17PersistentManager21UnloadNonDirtyStreamsEv
F$d:_XmlEntity_set_InnerXml_m780069451
B2m:__ZN6il2cpp2vm13LivenessStateC2EP11Il2CppClassjPFvPP12Il2CppObjectiPvES7_PFvvESB_
QXl:_ConfigurationErrorsException__ctor_m1235462802
Qkm:_Func_5_BeginInvoke_m2341820568_gshared
sVm:__ZN14dense_hash_mapI10KeyWrapperINSt3__24pairIPK12PropertyInfoP11Il2CppClassEEEj17ReflectionMapHashIS8_ENS9_14EqualsComparerINS1_8equal_toIS8_EEEENS1_9allocatorINS2_IKS9_jEEEEEC2EjRKSB_RKSF_
K1g:_DtdParser_ParseFreeFloatingDtd_m2177074391
vIf:_Array_ConvertAll_TisRuntimeObject_TisRuntimeObject_m2423585546_gshared
Zxb:__ZN12ImageFilters4BlitER17ShaderPassContextP7TextureP13RenderTextureiPK18SharedMaterialDataPKcP6ShaderiNS_9BlitFlagsE11CubemapFaceRK8Vector2fSH_
Fkh:_Oid__ctor_m1936781897
q0h:_TZifType_t1855764066_marshal_pinvoke
ZF:__ZN11UnityEngine15CloudWebService10RestClientINS0_23WebRequestRestHeaderMapEED2Ev
lsd:__ZN5physx2Sc5Scene13ccdBroadPhaseEPNS_10PxBaseTaskE
am:_emscripten_glDepthMask
ykp:_HealthChangedHandler__ctor_m351916938
$jd:__ZN5physx2Gu24PCMMeshContactGeneration15processContactsEhb
eBh:_Array_InternalArray__ICollection_CopyTo_TisTableRange_t2011406615_m2322141712_gshared
e6:__ZN4crnd25static_huffman_data_model22prepare_decoder_tablesEv
Wgl:_InternalEnumerator_1_System_Collections_IEnumerator_get_Current_m616383430_gshared
nSb:__ZN16ReflectionProbesD2Ev
VCf:_ThrowHelper_IfNullAndNullsAreIllegalThenThrow_TisDateTime_t693205669_m3628269466_gshared
R0k:_ReadOnlyCollection_1_System_Collections_ICollection_get_SyncRoot_m2702046016_gshared
Jll:_InternalEnumerator_1_get_Current_m1526874475_gshared
QK:__ZL22CleanupUnityWebStreamsPv
t0j:_ListDictionary_Add_m4276262662
CU:__Znaj
aLp:_emscripten_glEnableClientState__wrapper
Atg:_RegistryPermission_Copy_m3990506316
HM:__ZN17MessageIdentifierC2EPKcNS_7OptionsEPKN5Unity4TypeES1_
Wch:_SafeSocketHandle__cctor_m2492735449
$0i:_PointerSpec_Append_m2155806796
Ipn:__ZN6il2cpp6icalls8mscorlib4Mono8Security12Cryptography18KeyPairPersistence15_ProtectMachineEP12Il2CppString
sCf:_AsyncTaskMethodBuilder_1_AwaitUnsafeOnCompleted_TisConfiguredTaskAwaiter_t4260217988_TisU3CReadAsyncInternalU3Ed__34_t965435883_m233824291_gshared
q3f:_Datatype_union_IsUnionBaseOf_m1558970194
oed:__ZN5physxL26solveFriction4_StaticBlockEPKNS_23PxcSolverConstraintDescERNS_16PxcSolverContextE
kD:__Z55Register_UnityEngine_AudioSource_get_spatializeInternalv
pPa:__ZN15dense_hashtableINSt3__24pairIKN4core12basic_stringIcNS2_20StringStorageDefaultIcEEEE13dynamic_arrayI4PPtrI6SpriteELj4EEEES6_20StringHash32FunctionIS6_EN14dense_hash_mapIS6_SC_SF_NS0_8equal_toIS6_EE13stl_allocatorISD_L18MemLabelIdentifier81ELi16EEE9SelectKeyESI_SL_E12resize_deltaEjj
Fmi:_TextWriter__ctor_m2225796097
jla:__ZN14SafeBinaryRead8TransferI14ConstantStringEEvRT_PKc17TransferMetaFlags
gRf:_CultureInfo_CreateCalendar_m1358287720
Uid:__ZN5physx30PxcGetMaterialShapeHeightFieldEPKNS_12PxsShapeCoreES2_RNS_18PxcNpThreadContextEPNS_15PxsMaterialInfoE
y2:__ZNK6Camera16GetStereoEnabledEv
UFk:_FtpWebRequest_BeginGetResponse_m780341269
YSb:__ZN12LightManager15InitializeClassEv
Wsd:__ZN5physx6shdfnd8PoolBaseINS_2Sc19ParticlePacketShapeENS0_19ReflectionAllocatorIS3_EEE12allocateSlabEv
qua:__ZN9ShaderLab11shaderprops16GetComputeBufferEPK19ShaderPropertySheetS3_NS_16FastPropertyNameE
fhl:_InternalEnumerator_1_System_Collections_IEnumerator_get_Current_m429673344_AdjustorThunk
NN:__ZN18ScriptingArgumentsC2Ev
Rul:_InternalEnumerator_1_System_Collections_IEnumerator_get_Current_m187752132_AdjustorThunk
kGp:_emscripten_glBlendFuncSeparate__wrapper
iQj:_BypassElement_get_Address_m2936326124
_Oh:_XsdValidator_CompleteValidation_m2881008869
cyf:__ZN21InterfaceFuncInvoker2IiddE6InvokeEjP11Il2CppClassP12Il2CppObjectdd
f3:__Z17HasSampledTexture14GraphicsFormat13formatSupport
Xyb:__ZNK25CameraStackRenderingState27GetStereoImageEffectTextureEb
Knj:___BinaryWriter_WriteMemberString_m3853481755
ANi:_SHA1CryptoServiceProvider__ctor_m3127563759
Yp:__ZN8Vector3f8TransferI14SafeBinaryReadEEvRT_
Ski:_StreamReader__ctor_m1780435609
YXb:__ZN13BuildSettings13GetSceneIndexERKN4core12basic_stringIcNS0_20StringStorageDefaultIcEEEE
M9d:_XmlTextReaderImpl_get_IsEmptyElement_m1609322202
Xo:FUNCTION_TABLE_ii
Ksa:__ZN10TagManager8TransferI18StreamedBinaryReadILb0EEEEvRT_
S6e:_CultureAwareComparer_Equals_m1252815307
i3b:__Z18Transfer_BlittableI9JSONWriteLb0E8BitFieldEvRK29SerializationCommandArgumentsR31RuntimeSerializationCommandInfo
C4h:_UInt32_ToString_m3894907091_AdjustorThunk
Cb:invoke_diiii
gzh:_Array_ForEach_TisRuntimeObject_m1849351808_gshared
Lic:__ZL17sweepVolumeVsMeshPKN5physx3Cct9SweepTestEPKNS0_11TouchedMeshERNS0_12SweptContactERKNS_6PxVec3ERKNS_10PxGeometryERKNS_11PxTransformEjPKNS_10PxTriangleEj
yHf:_Array_UnsafeLoad_TisSingle_t2076509932_m307924785_gshared
TZh:_TimeZoneInfo_GetLocalTimeZone_m513504632
pgg:_SmallXmlParser_Error_m1832158746
x4e:_Convert_ToSingle_m3241295474
nnd:__ZN5physx2Gu31checkOverlapOBB_heightFieldGeomERKNS_10PxGeometryERKNS_11PxTransformERKNS0_3BoxE
iqa:__Z24CreateDirectoryRecursiveRKN4core12basic_stringIcNS_20StringStorageDefaultIcEEEE
hKf:_Double_TryParse_m688865975
IEp:b41
AFe:_RegexFCD_Prefix_m2400660334
Cqe:_XdrValidator_ThoroughGetElementDecl_m3379615977
HEp:b40
Bbc:__ZN5physx2Gu23findRotationMatrixFromZERKNS_6PxVec3E
AQa:__ZN9Texture3D8TransferI19StreamedBinaryWriteILb0EEEEvRT_
zzb:__ZNK6Camera22CalculateRenderingPathEv
C4b:__ZN9JSONWrite8TransferI5RectTIfEEEvRT_PKc17TransferMetaFlags
dVh:_Thread_EndCriticalRegion_m1203372853
eSh:_XmlCharType_IsStartNCNameSingleChar_m2228921981_AdjustorThunk
M3c:__ZN5physx13NpVolumeCache10invalidateEv
uca:__Z13ConvertMipmap14GraphicsFormatPKvS_Pviiii
pIk:_HttpWebRequest_GetResponse_m3643964764
znh:_X509Certificate2ImplMono_get_PublicKey_m32990172
ifb:__ZL12InvokeMethodI17RemapPPtrTransferEvRK29SerializationCommandArgumentsR31RuntimeSerializationCommandInfo
dMh:_XsdBuilder_BuildAny_ProcessContents_m1046137477
Xlg:_X509Certificate_get_PublicKey_m714501701
B_h:_TimeZoneInfo_TZif_ToInt32_m2692280297
l9d:_ParsingState_Clear_m1333717277
Icm:_AsyncOperation_InternalDestroy_m2067452588
yug:_SiteIdentityPermission_IsSubsetOf_m511269447
UFo:__ZL69DefaultDependencyAttribute_t3858269114_CustomAttributesCacheGeneratorP21CustomAttributesCache
Nbf:_DateTimeOffset_ToString_m3335592934
f6d:_XmlReaderSettings_set_XmlResolver_m2141586141
$Gc:__ZN5physx12NpBatchQuery13getUserMemoryEv
ewl:_InternalEnumerator_1_System_Collections_IEnumerator_get_Current_m1658267053_gshared
W7g:_Compiler_SetDefaultFixed_m289744429
Bpc:__ZN5physx6shdfnd5ArrayIPvNS0_19ReflectionAllocatorINS_2Sc10NPhaseCore16ClothListElementEEEE15growAndPushBackERKS2_
I5h:_UInt64_System_IConvertible_ToChar_m1930853313_AdjustorThunk
zwj:_TlsClientCertificate_SendCertificates_m1096074091
TZe:_SyncHashtable_get_Item_m408601391
zXk:_Stack_1_System_Collections_ICollection_CopyTo_m2104527616_gshared
jOg:_StringBuilder_AppendFormat_m1666670800
h0g:_XPathParser_ParseExpresion_m4257753221
BPd:__ZN18UnityConnectClient12CloseServiceEv
OAg:_Url_Equals_m739974703
o$m:__ZN6il2cpp6icalls8mscorlib6System9ThreadingL11ThreadStartEPv
vW:__ZN15DirectorManager12OnSampleTimeEv
$3d:_XmlNodeReaderNavigator_MoveToNextSibling_m609182184
aZj:_DnsResourceRecordCName_ToString_m3533292054
Nmg:_AttrListImpl_GetName_m1919558736
ami:_StringWriter_get_Encoding_m140088475
TLa:__ZN15dense_hashtableINSt3__24pairIKiiEEi21InstanceIDHashFunctorN14dense_hash_mapIiiS4_NS0_8equal_toIiEE13stl_allocatorIS3_L18MemLabelIdentifier67ELi16EEE9SelectKeyES7_SA_E12resize_deltaEjj
_ia:__ZN12CachedReader10Align4ReadEv
p2g:_DtdParser_ParseElementOnlyContent_m3996356193
j3l:_Marshal_UnsafeAddrOfPinnedArrayElement_m1634413303
bqi:_MulticastDelegate_GetObjectData_m3187757658
_xe:_XmlSchemaComplexContentRestriction_set_BaseTypeName_m4280667686
Lja:__ZNK9Behaviour22GetTypeVirtualInternalEv
qIc:__ZN5physx2Sc14ConstraintCore13setBreakForceEff
hKj:_ListenerElementsCollection_BaseAdd_m1584755317
fJb:__Z21GetScriptingArraySize17ScriptingArrayPtr
qFg:_String_IndexOf_m1887352430
iYd:_XmlQualifiedName__ctor_m968458525
Znj:_BinaryFormatter_Deserialize_m2405700527
Y0c:__ZN5physx7NpScene15removeAggregateERNS_11PxAggregateEb
w6f:_FacetsCompiler__ctor_m1826386227
dLk:_IPAddressCollection_System_Collections_IEnumerable_GetEnumerator_m1976498550
M5d:_XmlTextEncoder__ctor_m68194152
Vtp:__ZNKSt3__220__time_get_c_storageIwE3__xEv
aJd:__ZZN14PhysicsManager15InitializeClassEvEN63EarlyUpdatePhysicsResetInterpolatedTransformPositionRegistrator7ForwardEv
g0:__ZN9GfxDevice17ImmediateTexCoordEifff
HIh:_XmlSchemaValidator_PrintExpectedElements_m2972000823
qLn:__Z113RuntimeInvoker_Int32_t2071877448_RuntimeObject_Int32_t2071877448_RuntimeObject_Int32_t2071877448_SByte_t454417549PFvvEPK10MethodInfoPvPS4_
mEh:_Array_InternalArray__Insert_TisResourceLocator_t2156390884_m1002134570_gshared
doh:_X509CertificateEnumerator_System_Collections_IEnumerator_Reset_m327358896
pti:_ArraySegment_1_System_Collections_Generic_IEnumerableU3CTU3E_GetEnumerator_m4069306551_gshared
FBh:_Array_InternalArray__ICollection_CopyTo_TisKeyValuePair_2_t1174980068_m1818152223_gshared
szg:_Hash__ctor_m2554411450
Lfb:__Z35Transfer_Blittable_FixedBufferFieldI24GenerateTypeTreeTransferhEvRK29SerializationCommandArgumentsR31RuntimeSerializationCommandInfo
xff:_Delegate_RemoveImpl_m3666700529
oXj:_CFWebProxy_GetProxyUri_m4104740101
nEp:_emscripten_glUniform4f__wrapper
aBf:_Array_SortImpl_TisUInt16_t986882611_m4110881598_gshared
sKh:_XsdBuilder_BuildSchema_ElementFormDefault_m846780392
oqd:__ZN5physx6shdfnd5ArrayINS_25PxcThresholdStreamElementENS0_19ReflectionAllocatorIS2_EEE8recreateEj
sAi:_Enumerator__ctor_m4035163080_gshared
pta:__ZNK6Camera16GetProjectionFarEv
EDe:_SecurityUtils_HasReflectionPermission_m3637530469
dre:_XmlAnyConverter_ToSingle_m3172164276
uVf:_Punycode__ctor_m3857679035
Xy:__ZN11AudioSource6UpdateEv
$pe:_XdrAttributeEntry__ctor_m4134044728
Mzj:_SslServerStream_Finalize_m4110091455
wSd:__Z31GetPerformanceReportingSettingsv
FIa:__ZN7Texture34CreateFileTextureUploadInstructionE18TextureUploadFlagsj
Kda:__ZN13ComputeShader14SetBufferParamEjRKN9ShaderLab16FastPropertyNameE15ComputeBufferID
U8i:_ILGenerator_Emit_m4076099962
IOc:__ZN5physx7NpCloth21setCollisionMassScaleEf
Cnd:__ZN5physx6shdfnd5ArrayINS_7PxPlaneENS0_19ReflectionAllocatorIS2_EEE8recreateEj
wuc:__ZN5physx6shdfnd8PoolBaseINS_2Sc19ConstraintGroupNodeENS0_19ReflectionAllocatorIS3_EEE17releaseEmptySlabsEv
MJd:__ZN13PhysicsModule17GetRigidBodyStateERK9RigidbodyPN8IPhysics14RigidBodyStateE
fse:_XmlBaseConverter_ToBoolean_m1951407379
Ymm:_AesManaged_GenerateKey_m2925191332
h5l:_ConfigHandler_CheckPath_m2296459741
DYd:_XmlUnspecifiedAttribute__ctor_m861343813
nS:__Z23AsyncReadForceCloseFileRKN4core12basic_stringIcNS_20StringStorageDefaultIcEEEE
IB:__ZN16BaseVideoTexture19UpdateVideoTexturesEv
Aza:__Z28BuildSingleStreamChannelInfo17ShaderChannelMaskRK20VertexChannelsLayoutS_S2_P11ChannelInfo
Esi:_ArraySegmentEnumerator_System_Collections_IEnumerator_get_Current_m837595547_gshared
Myl:_Nullable_1_Equals_m1118562548_gshared
o_l:_InternalConfigurationSystem_Init_m117598888
pDi:_Enumerator__ctor_m2744139241_gshared
wva:__ZNK16LightmapSettings23HasLightProbeTetrahedraEv
tId:__ZN13ProduceHelperI15CapsuleColliderLb0EE7ProduceE18MemLabelIdentifier18ObjectCreationMode
Rvj:_Context_get_WriteSequenceNumber_m243492531
cOa:__ZN6Sprite23VirtualRedirectTransferER19StreamedBinaryWriteILb0EE
tFg:_String_LastIndexOfAny_m1473637802
Z$b:__Z38Transform_CUSTOM_INTERNAL_set_positionP12Il2CppObjectRK8Vector3f
v0e:_ValueList_get_Item_m1783776067
_Xj:_DnsHeader__ctor_m2254563898
s7h:_Version_CompareTo_m596235198
WNf:_Bootstring__ctor_m2567958585
cQm:__ZNK15dense_hashtableINSt3__24pairIK10KeyWrapperINS1_IPK9FieldInfoP11Il2CppClassEEEjEES9_17ReflectionMapHashIS8_EN14dense_hash_mapIS9_jSD_NS9_14EqualsComparerINS0_8equal_toIS8_EEEENS0_9allocatorISB_EEE9SelectKeyESI_SK_E5beginEv
OHj:_DefaultTypeDescriptor_System_ComponentModel_ICustomTypeDescriptor_GetConverter_m1815400674
fFa:__ZNK9ShaderLab7Program19HasMatchingVariantsERK13dynamic_arrayI16ShaderKeywordSetLj4EE
Q3:__ZN14DataBufferGLES11CopySubDataEPKS_jjj
we:_emscripten_glVertexPointer
Uha:__ZNSt3__26__treeI20DeviceDepthStateGLES11memcmp_lessIS1_S1_ENS_9allocatorIS1_EEE7destroyEPNS_11__tree_nodeIS1_PvEE
zKm:__ZN6il2cpp2vm7Runtime47RaiseExecutionEngineExceptionIfMethodIsNotFoundEPK10MethodInfo
$Eb:__Z17GetFrustumPortionPK8Vector3fffPS_
psc:__ZNK5physx2Gu22SupportMapRelativeImplINS0_4BoxVEE18doWarmStartSupportEiRNS_6shdfnd3aos5Vec3VE
mIk:_HttpWebRequest_get_Aborted_m837349671
t3m:__ZN15dense_hashtableINSt3__24pairIK10KeyWrapperIP14Il2CppIUnknownEjEES5_N6il2cpp5utils11PointerHashIS3_EEN14dense_hash_mapIS5_jSB_NS5_14EqualsComparerINS0_8equal_toIS4_EEEENS0_9allocatorIS7_EEE9SelectKeyESG_SI_E14squash_deletedEv
oAa:__ZN5Light13AwakeFromLoadE17AwakeFromLoadMode
KYd:_XmlDocument_set_IsLoading_m2193092029
hmm:_Nullable_1_ToString_m3150199456_AdjustorThunk
yPe:_UriTypeConverter_ConvertFrom_m2743854187
T9f:_Position_t1796812729_marshal_pinvoke
bVd:_XmlConvert_TryVerifyNormalizedString_m2394344042
P6e:_CultureAwareComparer_Compare_m2587353351
WAg:_Zone_ToString_m4007492560
c_:__ZNK9GfxDevice27GetPlatformAdjustedViewportEv
WFf:_Array_InternalArray__IReadOnlyList_get_Item_TisAttributeEntry_t168441916_m799760686_gshared
C4i:_AssemblyBuilder_get_IsRun_m1608974594
oHh:_XmlSchemaType__ctor_m583247436
cip:_SpriteAtlasManager_Register_m447878083
_ig:_PrivateKeyInfo_Normalize_m3959595934
RVk:_Enumerator_System_Collections_IEnumerator_Reset_m1338981133_gshared
qjl:_InternalEnumerator_1_System_Collections_IEnumerator_get_Current_m3125080595_gshared
N$n:__Z59RuntimeInvoker_Boolean_t3825574718_ParsingState_t1278724163PFvvEPK10MethodInfoPvPS4_
Ylc:__ZN5physx3Cct10Controller13onOriginShiftERKNS_6PxVec3E
mie:_SchemaCollectionPreprocessor_CheckRefinedSimpleType_m713683836
Iea:__ZN10Matrix3x3f15InvertTransposeEv
Rqh:_Array_InternalArray__ICollection_Remove_TisKeyValuePair_2_t1174980068_m2768765894_gshared
Lwb:__Z11IsBatchmodev
y9l:_PKCS12_CertificateSafeBag_m3272197807
Kwj:_TlsClientCertificateVerify_ProcessAsTls1_m1960818833
Ycd:__ZN5physx2Gu19_gjkRelativeRayCastINS0_9TriangleVENS0_11ConvexHullVEEEbRT_RT0_RKNS_6shdfnd3aos15PsMatTransformVERKNS9_6FloatVERKNS9_5Vec3VESI_RSD_RSG_SK_f
Kdb:__Z29Transfer_Blittable_ArrayFieldI14SafeBinaryRead8Vector3fEvRT_R9ArrayInfoRK23StaticTransferFieldInfo
K4h:_UInt32_System_IConvertible_ToBoolean_m91295134
eVg:_Monitor_Monitor_test_synchronised_m1542589500
Ojg:_SymmetricTransform_TransformFinalBlock_m4192185386
jid:__ZNK5physx19ActorAABBUpdateTask7getNameEv
PJe:_RegexCharClass_SingletonChar_m2340833677
IYe:_ObjectEqualityComparer_System_Collections_IEqualityComparer_Equals_m3334918040
cVi:_X509CertificateImplApple_get_FallbackImpl_m1027337222
KEi:_Enumerator_MoveNext_m335649778_AdjustorThunk
o9e:_DateTimeFormat_FormatHebrewMonthName_m1217402453
Mq:__ZNSt3__26vectorIN4core12basic_stringIcNS1_20StringStorageDefaultIcEEEENS_9allocatorIS5_EEE8__appendEj
sMm:_il2cpp_gc_collect
JWa:__ZN26PlayerSettingsSplashScreen8TransferI17RemapPPtrTransferEEvRT_
Prl:_InternalEnumerator_1_get_Current_m3922357178_gshared
bJh:_XmlUntypedConverter_ToBoolean_m1431301
FXl:_ConfigurationElementCollection_Reset_m3142114271
y0i:_ParamsArray__ctor_m1620129386_AdjustorThunk
Pyh:_Array_CheckComparerAvailable_TisByte_t3683104436_m831272834_gshared
I1c:__ZN5physx7NpScene14resetFilteringERNS_12PxRigidActorEPKPNS_7PxShapeEj
Zsh:_Array_QSortArrange_TisRuntimeObject_m3676434838_gshared
Rrh:_Array_InternalArray__ICollection_Remove_TisUInt16_t986882611_m65494986_gshared
ALe:_RegexNode__ctor_m1137747379
Hif:_ObjectHolderList__ctor_m2680427155
gE:__ZN11UnityEngine15CloudWebService17CloudJobSchedulerD0Ev
VFg:_String_System_IConvertible_ToBoolean_m2696751322
UDe:_CompiledRegexRunner_SetDelegates_m2077731600
YYa:__ZN18LoadSceneOperation7PerformEv
i7c:__ZN5physx2Sc5Scene26setSimulationEventCallbackEPNS_25PxSimulationEventCallbackEh
r4j:_CultureInfoConverter_GetStandardValues_m4073098172
oGl:_FromAsyncTrimPromise_1_CompleteFromAsyncResult_m2421132540_gshared
qQh:_Ucs4Encoding4321_GetPreamble_m538754537
cbc:__ZL30GeomMTDCallback_CapsuleCapsuleRN5physx6PxVec3ERfRKNS_10PxGeometryERKNS_11PxTransformES5_S8_
m2c:__ZN5physx7NpScene23forceDynamicTreeRebuildEbb
wWi:_FileIOPermission__cctor_m3187115541
tjc:__ZL18intersectAnyVsMeshILi0EEbPKN5physx2Gu6SphereEPKNS1_7CapsuleEPKNS1_3BoxERKNS1_13RTreeMidphaseERKNS0_11PxTransformERKNS0_11PxMeshScaleEP14LimitedResults
ARf:_DateTimeFormatInfo__ctor_m2947683932
rYl:_ConfigurationPermission_Intersect_m1553166340
vhi:_ReadWriteTask__ctor_m877647065
Qrf:_RuntimeType_GetObjectData_m1198978563
xyf:_Array_qsort_TisInt64_t909078037_m2823462476_gshared
EFe:_RegexNode_ChildCount_m3848104061
ayl:_Nullable_1_ToString_m2516240674_AdjustorThunk
SZe:_SyncHashtable_get_Count_m3694444082
Hzc:__ZN5physx14NpArticulation6wakeUpEv
pOm:__ZNSt3__26vectorINS_12basic_stringIcNS_11char_traitsIcEENS_9allocatorIcEEEENS4_IS6_EEE8allocateEj
xXb:__ZNSt3__26vectorI14SubstanceInputNS_9allocatorIS1_EEE6assignIPS1_EENS_9enable_ifIXaasr21__is_forward_iteratorIT_EE5valuesr16is_constructibleIS1_NS_15iterator_traitsIS8_E9referenceEEE5valueEvE4typeES8_S8_
MEk:_AsyncMethodBuilderCore_GetCompletionAction_m4194080255
PZl:_DefaultSection_DeserializeSection_m2332286625
qga:__ZN22VertexDeclarationCache5ClearEv
x6e:_Convert_ToInt16_m2180935370
JVk:_Enumerator_Dispose_m2463219776_gshared
bMb:__ZN17PersistentManager12SetPathRemapERKN4core12basic_stringIcNS0_20StringStorageDefaultIcEEEES6_
dMg:_InternalDecoderBestFitFallback_CreateFallbackBuffer_m1647925295
FGb:__ZN6Camera24PrepareCullingParametersERK23CameraCullingParameters13RenderingPathR11CullResults
D0f:_Datatype_hexBinary_get_TypeCode_m4200969791
jZa:__ZN19RuntimeSceneManager22EndIntegrateMainThreadEP10UnitySceneNS_11LoadingModeE
mch:_Socket_Receive_internal_m3721340271
Hjh:_WebProxy_CreateDefaultProxy_m647391291
drf:_RuntimeType_IsPrimitiveImpl_m871138058
kfb:__Z26Transfer_UnityEngineObjectI17RemapPPtrTransferLb0EEvRK29SerializationCommandArgumentsR31RuntimeSerializationCommandInfo
XUi:__Z30il2cpp_codegen_resolve_pinvokeIPFiiELj55ELj23EET_RAT0__KcRAT1__S3_20Il2CppCallConvention13Il2CppCharSetib
BLk:_in6_addr_t1014645363_marshal_pinvoke_back
_tf:_CryptoConfig_EncodeLongNumber_m2352037787
nBk:_RuntimeFieldInfo_GetRuntimeModule_m2684105281
r1h:_Type_GetMethod_m475234662
rDg:_Single_GetHashCode_m3102305584
Txi:_Enumerator_System_Collections_IDictionaryEnumerator_get_Key_m2319419488_AdjustorThunk
_3l:_ActivationServices_get_ConstructionActivator_m1726426854
Fhb:__Z29Transfer_Blittable_ArrayFieldI24GenerateTypeTreeTransfer4AABBEvRT_R9ArrayInfoRK23StaticTransferFieldInfo
Reo:__ZL52Activator_t1850728717_CustomAttributesCacheGeneratorP21CustomAttributesCache
qln:_GC_adj_bytes_allocd
_Ah:_Array_InternalArray__ICollection_Add_TisKeyframe_t1449471340_m887263954_gshared
k0g:_XPathParser_TestOp_m1827189717
jwd:__ZN5physx20InternalTriangleMesh16allocateVerticesEj
HDh:_Array_InternalArray__Insert_TisDateTime_t693205669_m1484996356_gshared
idf:_Decimal_Equals_m1798565377_AdjustorThunk
LKi:_Dictionary_2_System_Collections_IDictionary_GetEnumerator_m1484720898_gshared
vCe:_X509ChainImplMono__cctor_m915815180
f7i:_FieldOnTypeBuilderInst_GetCustomAttributes_m925164417
ibj:_OpCode_get_Size_m481593949_AdjustorThunk
Ceg:_Array_GetUpperBound_m1352329707
rgd:__ZN5physx6shdfnd5ArrayINS_17PxcBroadPhasePairENS0_19ReflectionAllocatorIS2_EEE8recreateEj
Hwm:_CustomEventData_Add_m1145561703
i4j:_ComponentCollection_get_Item_m824557310
xbf:_DateTimeOffset_Equals_m3728302791_AdjustorThunk
u1k:_ReadOnlyCollection_1_System_Collections_IEnumerable_GetEnumerator_m300291066_gshared
Fhc:__ZThn4_N16RayRTreeCallbackILi1ELb0EED1Ev
hYe:_CompatibleComparer_Compare_m3885503184
Tud:__ZN5physx13BigConvexDataD2Ev
lbm:_X509Extension_Equals_m1304125015
gZh:_TimeSpan_op_GreaterThanOrEqual_m3997050520
UEg:_String_MakeSeparatorList_m1489571801
mW:__Z26ScheduleJobForEachInternalR8JobFencePFvPvjES1_iPFvS1_E11JobPriority
qlh:_OidEnumerator_MoveNext_m1889267785
wwb:__ZZ23InitPlayerLoopCallbacksvEN41PostLateUpdateProfilerEndFrameRegistrator7ForwardEv
eYb:__ZN9Scripting18RaiseMonoExceptionEPKcz
zOe:_Uri_get_Fragment_m769951107
MJa:__ZN9Texture2D8TransferI19StreamedBinaryWriteILb0EEEEvRT_
gFe:_MatchSparse_get_Groups_m151694630
wTb:__ZN9ShaderLab16FastPropertyName15InitBy28BitHashEj
VDg:_Single_System_IConvertible_ToInt32_m3269519527_AdjustorThunk
xmm:_AesCryptoServiceProvider_set_KeySize_m4129728238
g4e:_Decimal_ToInt64_m2030596951
FRi:_SHA1Internal_ProcessBlock_m4070037334
nwf:_Array_InternalArray__set_Item_TisDouble_t4078015681_m24756265_gshared
R3i:_CustomAttributeExtensions_GetCustomAttribute_m714006593
Jij:_ObjRef_GetObjectData_m3081609242
Xvl:_InternalEnumerator_1_System_Collections_IEnumerator_get_Current_m3227205005_AdjustorThunk
UQb:__ZN13ProduceHelperIN2UI13RectTransformELb0EE7ProduceE18MemLabelIdentifier18ObjectCreationMode
eRa:__ZN17PackedFloatVector12UnpackFloatsEPfiiii
fOl:_EqualityComparer_1_CreateComparer_m3502120454_gshared
c1:__ZN13GfxDeviceGLES21DestroyComputeProgramER12ObjectHandleI18ComputeProgram_TagPvE
i5e:_Convert_ToDecimal_m2007036836
XKh:_XsdBuilder_BuildElement_Abstract_m2210584306
aU:__ZN17UniqueIDGenerator16DestroyPureIndexEj
IOj:_IPv6AddressHelper_IsValid_m3512691991
GQ:__ZL21AppendNestedClassName17ScriptingClassPtrRN4core17string_with_labelILi1EEE
_0a:__ZN14SafeBinaryRead21TransferSTLStyleArrayINSt3__26vectorIN9ShaderLab20SerializedSubProgram12UAVParameterENS1_9allocatorIS5_EEEEEEvRT_17TransferMetaFlags
U5l:_Context_NotifyDynamicSinks_m1367144344
pF:__ZN24TextDOMTransferWriteBaseI9JSONWriteE12PushMetaFlagEi
FJi:_Dictionary_2_TryGetValue_m3108198470_gshared
nOc:__ZN5physx7NpCloth22removeCollisionCapsuleEj
lgi:_File_GetLastWriteTime_m2692599876
Duj:_TlsClientCertificateVerify__ctor_m110646389
D9:__ZN6prcoreL26RemapGenericIntegerToFloatI17TexFormatARGB888815TexFormatRFloatEEvPKNS_9InnerInfoE
b6l:_Context_GetServerContextSinkChain_m390126977
cOm:__ZN6il2cpp2vm17TypeNameParseInfoD2Ev
vqd:__ZN5physx18PxsSolverStartTask16articulationTaskEv
mle:_XmlSchemaException__ctor_m3584181553
Rli:_StringReader_Read_m513112775
zLa:__ZNK8Renderer8GetLayerEv
$tc:__ZN5physx6shdfnd4sortIPvNS0_4LessIS2_EENS0_19ReflectionAllocatorINS_2Cm5BlockIS2_Lj16EEEEEEEvPT_jRKT0_RKT1_j
Okp:_Map_Awake_m3837803480
aya:__ZN12FlareManager11DeleteFlareEi
pLg:_Encoding_ThrowBytesOverflow_m2624978298
hBb:__ZNK6Camera20GetReplacementShaderEv
PHc:__ZN18MultiQueryCallbackIN5physx12PxRaycastHitEE6invokeERfPKNS0_2Sq13PrunerPayloadEj
Mcf:_Decimal__ctor_m569480123_AdjustorThunk
BHk:_HttpWebRequest__cctor_m3013631978
kpn:__ZNSt3__26__treeINS_12__value_typeINS_12basic_stringIcNS_11char_traitsIcEENS_9allocatorIcEEEEPFvvEEENS_19__map_value_compareIS7_SA_NS_4lessIS7_EELb1EEENS5_ISA_EEE4findIS7_EENS_15__tree_iteratorISA_PNS_11__tree_nodeISA_PvEEiEERKT_
m1a:__ZNSt3__26vectorIN9ShaderLab20SerializedSubProgram14ConstantBufferENS_9allocatorIS3_EEE7reserveEj
S6:__ZL23stbir__calculate_memoryP11stbir__info
Jrn:__ZN6il2cpp6icalls8mscorlib6System10Reflection4Emit13DynamicMethod21create_dynamic_methodEP29Il2CppReflectionDynamicMethodS7_
IZl:_ConfigurationSectionGroupCollection_GetEnumerator_m2684317377
M8c:__ZN5physx18PxcNpThreadContextD2Ev
nPa:__ZN13sorted_vectorIN4core12basic_stringIcNS0_20StringStorageDefaultIcEEEENSt3__24lessIS4_EE13stl_allocatorIS4_L18MemLabelIdentifier81ELi16EEE4findIS4_EENS5_11__wrap_iterIPS4_EERKT_
Yli:_StringWriter__ctor_m2262370389
Ufg:_X509Store_get_Certificates_m3326507748
nXh:_WaitHandle_InternalWaitOne_m308684161
b6b:__ZL26Transfer_SimpleNativeClassI8JSONRead10RectOffsetLb1EEvRK29SerializationCommandArgumentsR31RuntimeSerializationCommandInfo
Mjp:_U3CExplodeRoutineU3Ec__Iterator0_Reset_m3771138075
wGl:_FromAsyncTrimPromise_1_CompleteFromAsyncResult_m2902511384_gshared
f4f:_Datatype_uuid_ParseValue_m2515696026
_Yd:_XmlTextReaderImpl__ctor_m1037924871
KWi:_FileIOPermission_Copy_m702826169
Yyd:__ZN5physx2Gu27computeBoundsAroundVerticesERNS_9PxBounds3EjPKNS_6PxVec3E
Z1j:_OrderedDictionary__ctor_m3902056581
EVd:_XmlConvert_TryToUInt32_m455053003
S2b:__Z18Transfer_BlittableI9JSONWriteLb1EsEvRK29SerializationCommandArgumentsR31RuntimeSerializationCommandInfo
O0c:__ZNK5physx7NpScene9getLimitsEv
hNd:__Z48UnityAnalyticsHandler_CUSTOM_SendCustomEventNameP12Il2CppObjectP12Il2CppString
fMi:_DSAParameters_t1872138834_marshal_pinvoke_cleanup
sdd:__ZNK5physx2Gu29EPASupportMapPairRelativeImplINS0_9TriangleVENS0_8CapsuleVEE9doSupportERKNS_6shdfnd3aos5Vec3VERS7_SA_SA_
tZl:_ConfigurationSection_SerializeSection_m2886244226
exb:__ZN13RenderManager37RenderCamerasWithScriptableRenderLoopEi
khd:__ZN3MBP12updateObjectEjRK5IAABB
teg:_ASN1_Element_m2600236165
bxc:__ZN5physx6shdfnd5ArrayINS_6PxVec3ENS0_19ReflectionAllocatorIS2_EEE15growAndPushBackERKS2_
$Ll:_Dictionary_2_Remove_m1366616528_gshared
bM:__ZN23InstancedPropInfoStaticL16RegisterCallbackEPv
iHp:_glGenSamplers__wrapper
c8m:__ZN6il2cpp2os19ReleaseSocketHandleEj
YA:__ZN11AudioModule16GetDSPSampleRateEv
Csk:_TypeBuilder_GetPropertyImpl_m1854119335
m2m:__ZN6il2cpp6icalls8mscorlib6System4Type17get_IsGenericTypeEP20Il2CppReflectionType
L4c:__ZN5physx2Sc5Scene20fireTriggerCallbacksEv
Rsk:_TypeBuilder_get_next_table_index_m1415870184
Pak:_Enumerator_System_Collections_IEnumerator_Reset_m3430271327_gshared
Kpj:_SequentialSearchPrimeGeneratorBase_GenerateNewPrime_m296245934
MUe:_Char_GetUnicodeCategory_m4273361321
UIe:_RegexCompiler_AdvanceLabel_m1097335245
CVj:_FtpDataStream_Seek_m2681225308
tme:_XmlSchemaAnyAttribute_get_ProcessContentsCorrect_m1392399240
qZh:_CachedData_get_Local_m958106550
Hcd:__ZN5physx2Gu18GJKRelativeRayCastERNS0_8CapsuleVERNS0_4BoxVERKNS_6shdfnd3aos15PsMatTransformVERKNS6_6FloatVERKNS6_5Vec3VESF_RSA_RSD_SH_fb
J0e:_StackEnumerator__ctor_m2330329829
lrl:_InternalEnumerator_1_get_Current_m1047712960_gshared
gcj:_Identity_get_ClientDynamicProperties_m767245959
dan:__ZN6il2cpp2os5posix15PosixWaitObjectC2ENS2_4TypeE
tzb:__ZN6Camera21PostMultiCustomRenderENS_10RenderFlagEb
nNh:_XsdDateTime_get_Day_m1722361239_AdjustorThunk
rdh:_Socket_Send_m3402392308
qda:__ZN12_GLOBAL__N_112UploadImagesEP7ApiGLESjji14GraphicsFormatPKhjS2_iiii16TextureUsageModePh
Isf:_SByte_ToString_m1320351065_AdjustorThunk
iub:__ZN23ShaderVariantCollection13WarmupShadersEv
Evj:_Context_set_ProtocolNegotiated_m1177527245
p3f:_Datatype_union_HasAtomicMembers_m733058160
M4h:_UInt32_System_IConvertible_ToChar_m1056040486
F4g:_AxisStack_Push_m768581642
lQ:__Z25GetCommonScriptingClassesv
Eyn:__Z80RuntimeInvoker_Void_t1841601450_RuntimeObject_Int32_t2071877448_Int64_t909078037PFvvEPK10MethodInfoPvPS4_
oJf:_Guid_StringToLong_m2743629671
NZa:__Z27scripting_gc_collect_unsafei
e2f:_Datatype_NOTATION_get_FacetsChecker_m1942051496
bB:__ZN11AudioModule20SuspendVideoTexturesEv
bD:__Z59Register_UnityEngine_AudioExtensionManager_GetAudioListenerv
TSb:__ZN12CubemapArrayC2E18MemLabelIdentifier18ObjectCreationMode
eBf:_Array_SortImpl_TisUInt64_t2909196914_m1686067991_gshared
t9g:_Datatype_boolean__cctor_m2984072012
B6f:_FacetsCompiler_CompileEnumerationFacet_m838246689
AYc:__ZN5physx13NpRigidStaticC2ERKNS_11PxTransformE
V2e:_Convert_ToByte_m395020137
Ygb:__Z26Transfer_UnityEngineObjectI24GenerateTypeTreeTransferLb0EEvRK29SerializationCommandArgumentsR31RuntimeSerializationCommandInfo
WZd:_XmlDocument__cctor_m3596304516
K5e:_DateTime__ctor_m4087156809
Tcd:__ZN5physxL20PxcSweepBoxTrianglesERKNS_11PxsCCDShapeES2_RKNS_11PxTransformES5_S5_S5_fRNS_6PxVec3ES7_RNS_10PxcNpCacheERNS_18PxcNpThreadContextERKNS_2Cm23FastVertex2ShapeScalingERNS_2Gu9TriangleVEf
Qke:_SchemaElementDecl_Clone_m1551509425
pRh:_XmlAttributeCollection_get_ItemOf_m832735469
mmc:__ZN5physx3Cct15ObstacleContextD0Ev
Yxa:__ZN15SharedLightData7PrecalcEv
l6l:_Context_get_MyLocalStore_m710296118
ita:__ZN10Matrix4x4fmLERKS_
dEf:_Array_InternalArray__get_Item_TisDouble_t4078015681_m2215331088_gshared
l4f:_Datatype_yearMonth_get_TypeCode_m1271559830
ukb:__Z35Transfer_Blittable_FixedBufferFieldI18StreamedBinaryReadILb1EEsEvRK29SerializationCommandArgumentsR31RuntimeSerializationCommandInfo
Pip:_Vector3_get_magnitude_m4021906415
koa:__ZN15ArchiveReadFileD0Ev
r3d:_XmlNodeReaderNavigator_InitDocTypeAttr_m1542631323
Hjg:_SymmetricTransform_TransformBlock_m1524716432
Y3m:__ZN15dense_hashtableINSt3__24pairIK10KeyWrapperIP14Il2CppIUnknownEjEES5_N6il2cpp5utils11PointerHashIS3_EEN14dense_hash_mapIS5_jSB_NS5_14EqualsComparerINS0_8equal_toIS4_EEEENS0_9allocatorIS7_EEE9SelectKeyESG_SI_E4findERS6_
OOd:__ZN11UnityEngine15PlatformWrapper18GetOperatingSystemEv
C5c:__ZN5physx3Scb9Aggregate9syncStateERNS0_5SceneE
obc:__ZN5physx2Gu13GeometryUnion3setERKNS_10PxGeometryE
mGo:__ZL61ExtensionAttribute_t1840441203_CustomAttributesCacheGeneratorP21CustomAttributesCache
_ef:_Delegate_return_type_match_m4278947849
ndl:_ContractionComparer_Compare_m2233345693
MAm:_deflate_stored_12385
F$h:_TimeZoneInfo_TryGetLocalizedNamesByRegistryKey_m2264964474
n8:__ZN6prcoreL17RemapGenericFloatI15TexFormatRFloat18TexFormatRGBAFloatEEvPKNS_9InnerInfoE
SNf:_GC_SuppressFinalize_m953228702
Nun:__Z75RuntimeInvoker_RuntimeObject_RuntimeObject_Single_t2076509932_RuntimeObjectPFvvEPK10MethodInfoPvPS4_
jkj:_SoapServices_PreLoad_m490411755
JUb:__ZZL23RegisterLightPropertiesR22GenericPropertyBindingEN29Wrapper_LightShadowNormalBias13GetFloatValueEPv
$2l:_Marshal_QueryInterface_m2946688251
aGn:__Z63RuntimeInvoker_RuntimeObject_Int32_t2071877448_SByte_t454417549PFvvEPK10MethodInfoPvPS4_
Gpn:__ZN6il2cpp6icalls8mscorlib4Mono8Security12Cryptography18KeyPairPersistence10_CanSecureEP12Il2CppString
ZGh:_XmlSchemaSimpleContentExtension_set_BaseTypeName_m1621230875
jDc:__ZN5physx7NpActor17resolveReferencesERNS_24PxDeserializationContextE
qKd:__ZN9Rigidbody15InitializeClassEv
qNm:__ZN6il2cpp2os4File11GetFileStatERKNSt3__212basic_stringIcNS2_11char_traitsIcEENS2_9allocatorIcEEEEPNS0_8FileStatEPi
OTe:_Char_CheckLetterOrDigit_m826997570
aXi:_GacIdentityPermission_Intersect_m92111063
xZ:__ZN13GfxDeviceGLES14SetRasterStateEPK17DeviceRasterState
oPg:_UTF32Encoding_GetChars_m2986180139
zpc:__ZN5physx6shdfnd8internal8HashBaseINS0_4PairIKPKNS_2Sc8ShapeSimENS4_10NPhaseCore16ClothListElementEEES7_NS0_4HashIS7_EENS1_11HashMapBaseIS7_SA_SD_NS0_9AllocatorEE6GetKeyESF_Lb1EE5eraseERS8_
epc:__ZN5physx5Elems17setStaticAABBDataEjRKNS_17PxcAABBDataStaticE
$uj:_TlsServerHello__ctor_m3032108168
oia:__ZN14SafeBinaryRead11EndTransferEv
Rlk:_List_1_System_Collections_ICollection_get_SyncRoot_m755691208_gshared
Lbb:__ZN14SafeBinaryRead8TransferI8MonoPPtrEEvRT_PKc17TransferMetaFlags
jah:_WebConnection_Close_m1644251019
qea:__ZN21UniformBufferTFMethod13MapBoneBufferEj
wxh:_Array_InternalArray__IndexOf_TisLabel_t4243202660_m2942482742_gshared
nyj:_RecordProtocol_SendChangeCipherSpec_m3542001341
eze:_XmlSchemaElement_set_RefName_m3754900115
Iff:_IntSizedArray__ctor_m709982894
P_m:__ZNSt3__26vectorIcNS_9allocatorIcEEEC2Ej
e0d:_XmlException_FormatUserMessage_m1448632189
Lhj:_ReturnMessage_get_Properties_m531965085
ZQ:__ZN14SerializedFileD2Ev
mvc:__ZN5physx6shdfnd5ArrayIPvNS0_16AlignedAllocatorILj64ENS0_9AllocatorEEEE15growAndPushBackERKS2_
KDh:_Array_InternalArray__Insert_TisDecimal_t724701077_m1429254816_gshared
Wph:_Array_InternalArray__ICollection_Contains_TisUInt32_t2149682021_m672455245_gshared
B_d:_U3CU3Ec__DisplayClass0_0_U3CGetStreamAsyncU3Eb__0_m2707608296
ipb:__ZNSt3__218__stable_sort_moveIRN10vector_mapI17ScriptingClassPtrPKN5Unity4TypeENS_4lessIS2_EENS_9allocatorINS_4pairIS2_S6_EEEEE13value_compareENS_11__wrap_iterIPSB_EEEEvT0_SJ_T_NS_15iterator_traitsISJ_E15difference_typeEPNSM_10value_typeE
ajn:__ZN6il2cpp2os4Time23GetSystemTimeAsFileTimeEv
U$a:__ZN6Shader21AwakeFromLoadThreadedEv
oRh:_XmlAttributeCollection_get_ItemOf_m2084104187
F8:__ZN6prcoreL17RemapGenericFloatI17TexFormatRGBFloat17TexFormatRGBAHalfEEvPKNS_9InnerInfoE
MFf:_Array_InternalArray__IReadOnlyList_get_Item_TisKeyValuePair_2_t1483742713_m2850236659_gshared
mHe:_RegexParser_HexDigit_m4221083756
QHd:__ZN5physx24PxcContactBoxHeightFieldERKNS_2Gu13GeometryUnionES3_RKNS_11PxTransformES6_RKfRNS_10PxcNpCacheERNS0_13ContactBufferE
drn:__ZN6il2cpp2os9SemaphoreC2Eii
ejl:_InternalEnumerator_1_get_Current_m2960188445_AdjustorThunk
y$m:__ZN6il2cpp6icalls8mscorlib6System9Threading6Thread13SleepInternalEi
Nbb:__ZNSt3__26vectorI8MonoPPtr13stl_allocatorIS1_L18MemLabelIdentifier1ELi16EEE8__appendEj
NTl:_ConfigInfoCollection_get_Item_m4196945655
Zzb:__ZN14qsort_internal30FindAndMovePivotToLastPositionIP17RODataReplacementi19ROSorterReplacementEEvT_S4_T0_T1_
Bea:__ZN15UniformTFMethod20IsBoneCountSupportedEi
aid:__ZNK5physx23AggregateAABBUpdateTask7getNameEv
Kgm:_Logger_Log_m3493909485
OTf:_DateTimeFormatInfo_get_HasYearMonthAdjustment_m2067121635
Wql:_InternalEnumerator_1_System_Collections_IEnumerator_get_Current_m1960136454_gshared
ehi:_FileStream_get_Position_m465478322
TCm:__ZN14dense_hash_setI10KeyWrapperIPK19Il2CppGenericMethodEN6il2cpp8metadata23Il2CppGenericMethodHashENS4_14EqualsComparerINS6_26Il2CppGenericMethodCompareEEENSt3__29allocatorIS4_EEEC2EjRKS7_RKSA_
OBp:dynCall_viidi
lPl:_EqualityComparer_1_CreateComparer_m1489375786_gshared
TDh:_Array_InternalArray__Insert_TisInt64_t909078037_m3039874636_gshared
sPj:_RequestCachePolicy_ToString_m2199045492
ZN:__ZN24ScriptingMethodFiltering17FilterOnSignatureENS_18MethodSearchFilterE
Xtd:__ZN5physx13NpClothFabric16scaleRestlengthsEf
$B:__ZN13ProduceHelperI9AudioClipLb0EE7ProduceE18MemLabelIdentifier18ObjectCreationMode
ELb:__ZN18ScreenManagerWebGL13SetLockCursorE14CursorLockMode
jjg:_RSAManaged_EncryptValue_m4089823119
FQb:__ZN13MonoBehaviour19HandleNotificationsEPviR11MessageData
Ddm:_Component_get_gameObject_m2159020946
h_c:__ZN5physx6shdfnd5ArrayIPNS_2Sc17ParticleSystemSimENS0_19ReflectionAllocatorIS4_EEE8recreateEj
Qnh:_X509Chain_Create_m1128570085
$Zi:_NumberFormatter_NumberToString_m3858766744
K2l:_Marshal_FreeHGlobal_m2238467479
wbe:_NodeData_SetValueNode_m794907977
U$j:_SR_GetString_m3230013847
ssk:_TypeBuilder_GetField_m2112455315
gFp:b59
$Ep:b52
aFp:b53
WEp:b51
Xld:__ZN5physx9PxTaskMgrD0Ev
eFp:b57
Hoh:_Array_InternalArray__ICollection_Contains_TisEntry_t1422871999_m3690856629_gshared
szf:_Array_qsort_TisRangePositionInfo_t2780802922_m494434711_gshared
esn:__ZN6il2cpp6icalls8mscorlib6System8DateTime23GetSystemTimeAsFileTimeEv
Uei:_Path_CanonicalizePath_m383914732
lrg:_Array_CreateInstance_m3310016470
kxn:__Z118RuntimeInvoker_RuntimeObject_Int32_t2071877448_Int32_t2071877448_Int32_t2071877448_Int16_t4041245914_Int32_t2071877448PFvvEPK10MethodInfoPvPS4_
Rvf:_Array_InternalArray__set_Item_TisEntry_t1422871999_m3793145391_gshared
F1m:__ZN30dense_hashtable_const_iteratorINSt3__24pairIK10KeyWrapperIiEPNS0_6vectorIP12Il2CppObjectN6il2cpp2gc9AllocatorIS7_EEEEEES3_21ThreadPoolStateHasherN14dense_hash_mapIS3_SD_SF_NS3_14EqualsComparerINS0_8equal_toIiEEEENS0_9allocatorISE_EEE9SelectKeyESK_SM_EppEv
Vwi:_Enumerator_System_Collections_IEnumerator_Reset_m1718215632_AdjustorThunk
jmg:_X509CertificateCollection_Contains_m2448699237
yVb:__ZN10GameObject12CleanupClassEv
rZf:_TimeSpanParse_TryParseTimeSpanConstant_m3597886976
Yxc:__ZN5physx3Scb5Scene13addRigidNoSimINS0_11RigidStaticELb0ELb1EEEvRT_RNS0_13ObjectTrackerE
HAh:_Array_InternalArray__ICollection_Add_TisTZifType_t1855764066_m2912246271_gshared
l_:__ZN9GfxDevice25SetShaderPropertiesSharedERK19ShaderPropertySheet
s5:__ZN18AsyncUploadManager19AsyncResourceUploadER9GfxDeviceii9TextureID
fUb:__ZL25InitializeDefaultMaterialv
vpe:_XdrBuilder_XDR_BuildAttributeType_DtMinLength_m1822410591
rK:__GLOBAL__sub_I_runtime_graphics_lod_0_cpp
Bqf:_RuntimeType_GetConstructorImpl_m2755041293
rma:__ZN17PersistentManager12UnloadStreamERKN4core12basic_stringIcNS0_20StringStorageDefaultIcEEEEb
F4h:_UInt32_Parse_m1091018398
byh:_Array_InternalArray__IndexOf_TisState_t563545493_m391257352_gshared
XOb:__ZN14dense_hash_mapIN4core12basic_stringIcNS0_20StringStorageDefaultIcEEEE10vector_setI4PPtrI11SpriteAtlasENSt3__24lessIS8_EE13stl_allocatorIS8_L18MemLabelIdentifier81ELi16EEE20StringHash32FunctionIS4_ENS9_8equal_toIS4_EESC_INS9_4pairIKS4_SF_EELSD_81ELi16EEEixERSL_
vqe:_XdrValidator_ValidateEndElement_m3614391661
u$l:_SectionInfo_ReadData_m2814313648
qRj:_SettingsSectionInternal_get_Section_m654624169
ECk:_ReflectionOnlyType_get_TypeHandle_m3890706493
JWh:_Scheduler_get_Instance_m1989471839
jMa:__ZN8Renderer8TransferI17RemapPPtrTransferEEvRT_
E_h:_TimeZoneInfo_TryLoadTzFile_m1540838948
OFh:_XmlSchemaObjectCollection_Clone_m1493490417
S_l:_ProviderSettings__cctor_m1551014246
efi:_Directory_Delete_m1547264965
$5e:_DateTimeParse_GetDateOfNNDS_m2481137932
uEg:_String_StartsWithOrdinalUnchecked_m1876562952
fQl:_EqualityComparer_1_CreateComparer_m4116535204_gshared
eni:_U3CU3Ec_U3C_cctorU3Eb__73_5_m3885228938
r$b:__Z22Input_CUSTOM_GetKeyInti
brk:_SymbolType_get_Name_m3132925348
Udm:_Native_CSSNodeMeasureInvoke_m1438492247
vPc:__ZNK5physx2Sc9ClothCore16getCollisionDataEPNS_22PxClothCollisionSphereEPjPNS_21PxClothCollisionPlaneES4_PNS_24PxClothCollisionTriangleE
FJb:__Z24LookRotationToQuaternionRK8Vector3fS1_P11Quaternionf
DJb:__ZN16ReflectionProbes9GetCameraEv
Deg:_ArgumentException__ctor_m2105824819
gxh:_Array_InternalArray__IndexOf_TisInt64_t909078037_m617406809_gshared
wbn:__ZN6il2cpp2os7ConsoleL11SetPropertyEib
XGm:__ZNSt3__213__vector_baseIN6il2cpp2os11PollRequestENS_9allocatorIS3_EEED2Ev
Q9m:__ZN6il2cpp2vm11MethodStack23CleanupForCurrentThreadEv
pOn:__Z87RuntimeInvoker_Void_t1841601450_RuntimeObject_LineInfo_t1429635508_LineInfo_t1429635508PFvvEPK10MethodInfoPvPS4_
YFk:_FtpWebResponse_UpdateStatus_m1392245858
HMg:_Latin1Encoding_InternalGetBytes_m2900945525
Uya:__ZN20TierGraphicsSettings8TransferI24GenerateTypeTreeTransferEEvRT_
_Dm:__ZN15dense_hashtableINSt3__24pairIK10KeyWrapperIN6il2cpp5utils13dynamic_arrayIPK10Il2CppTypeLj4EEEEPFvvEEESA_NS3_8metadata19Il2CppSignatureHashEN14dense_hash_mapISA_SD_SG_NSA_14EqualsComparerINSF_22Il2CppSignatureCompareEEENS0_9allocatorISE_EEE9SelectKeyESK_SM_E16reset_thresholdsEv
wzi:_Enumerator__ctor_m252254681_gshared
xdb:__ZN14SafeBinaryRead21TransferSTLStyleArrayI13dynamic_arrayI4AABBLj4EEEEvRT_17TransferMetaFlags
zGa:__ZN18UnityPropertySheet8TransferI19StreamedBinaryWriteILb0EEEEvRT_
bxj:_TlsServerCertificate_checkServerIdentity_m3836435780
Uoe:_XdrBuilder_XDR_InitElementType_m2107044772
eX:__ZNSt3__26__treeINS_12__value_typeIiN11TypeManager18TypeCallbackStructEEENS_19__map_value_compareIiS4_NS_4lessIiEELb1EEENS_9allocatorIS4_EEE7destroyEPNS_11__tree_nodeIS4_PvEE
glg:_PKCS12_Decrypt_m2353135969
yYj:_DnsPacket_WriteStringBytes_m1472929151
Swi:_Enumerator_System_Collections_IEnumerator_get_Current_m1492910972_gshared
Qbh:_SocketAddress_ToString_m1143970952
Sal:_KeyHandler_GetValue_m2394195387
s9e:_DateTimeFormat_FormatCustomizedRoundripTimeZone_m1583524769
Bxk:_MonoEvent_ToString_m386956596
z2:__ZL19GetCameraTargetRectRK6Camerabb
ONd:__ZN11UnityEngine7Connect17XRDeviceInfoEventD0Ev
Fra:__ZN13dynamic_arrayIN10GameObject13ComponentPairELj4EE6insertEPS1_RKS1_
_me:_SequenceNode_ConstructPos_m3062321444
BI:__ZN21UnityDefaultAllocatorI17LowLevelAllocatorE10DeallocateEPv
OAa:__ZN15SharedLightData22UpdateCookieTextureRefEv
Er:__ZN15PackedIntVector8TransferI14SafeBinaryReadEEvRT_
yuk:_FieldInfo_get_IsLiteral_m267898096
oBc:__ZNK5physx19NpArticulationJoint20getTangentialDampingEv
ptn:__Z45RuntimeInvoker_RuntimeObject_Int64_t909078037PFvvEPK10MethodInfoPvPS4_
ARg:_ExecutionContext_RunInternal_m2260680098
$ah:_SPKey_get_UsesProxy_m3390917298
bAj:_SslStreamBase_EndNegotiateHandshake_m1732321201
Ku:__ZN13AudioListener8DoUpdateEv
oac:__ZN5physx3Cct10Controller22setUpDirectionInternalERKNS_6PxVec3E
sZb:__ZL34GetComponentsImplementationRecurseILb0ELi0ELi0EEbR10GameObjectbRK17CompareParametersRK39GetComponentsImplementation_ReturnValue
ydf:_Decimal_FCallRound_m4279671537
d4e:__Z13bankers_roundd
yWa:__ZN14SafeBinaryRead8TransferI5RectTIfEEEvRT_PKc17TransferMetaFlags
Oi:_emscripten_glGenFramebuffers
hZe:_Hashtable_CopyTo_m2778915805
$W:__ZN17BaseObjectManager16StaticInitializeEPv
cUl:_ConfigurationErrorsException_GetLineNumber_m1372608032
ZIe:_RegexCompiler_TopTrack_m2106678253
_km:_FileSystemEnumerableIterator_1_Dispose_m2426741989_gshared
nqp:__ZNSt3__215basic_streambufIcNS_11char_traitsIcEEE6xsputnEPKci
z5o:__ZL107TraceSection_t1057220406_CustomAttributesCacheGenerator_TraceSection_t1057220406____IndentSize_PropertyInfoP21CustomAttributesCache
$Gm:__ZN6il2cpp6icalls6System6System3Net7Sockets6Socket12ReceiveArrayEiP11Il2CppArrayNS4_11SocketFlagsEPi
VTl:_ConfigurationErrorsException__ctor_m3571142591
WIi:_Dictionary_2_System_Collections_IDictionary_Add_m3620984067_gshared
xlf:_FormatterServices_GetClrTypeFullName_m595048540
y3b:__Z18Transfer_BlittableI9JSONWriteLb0EyEvRK29SerializationCommandArgumentsR31RuntimeSerializationCommandInfo
JEa:__ZN13RenderTexture15ThreadedCleanupEv
RHa:__ZN12CubemapArray23VirtualRedirectTransferER14SafeBinaryRead
FIk:_HttpWebRequest_SetResponseError_m1533253571
hQc:__ZNK5physx2Sc9ClothCore23getNbCollisionTrianglesEv
nuf:_CryptographicException__ctor_m1012314467
rMc:__ZN5physx7NpShape16setFlagsInternalENS_7PxFlagsINS_11PxShapeFlag4EnumEhEE
ZSj:_CookieTokenizer_Reset_m578845938
ZMf:_Environment_GetResourceStringEncodingName_m2134718391
vic:__ZN5physx2Gu30distanceSegmentTriangleSquaredERKNS_6shdfnd3aos5Vec3VES5_S5_S5_S5_RS3_S6_
hjh:_WebProxy__ctor_m3679722173
tCp:dynCall_vii
N4m:__ZN15dense_hashtableINSt3__24pairIK10KeyWrapperINS1_IPKcS4_EEEiEES6_24NamespaceAndNamePairHashN14dense_hash_mapIS6_iS9_NS6_14EqualsComparerI26NamespaceAndNamePairEqualsEENS0_9allocatorIS8_EEE9SelectKeyESD_SF_E6insertERKS8_
eka:__ZN24GenerateTypeTreeTransfer18BeginArrayTransferEPKcS1_Ri17TransferMetaFlags
UAj:_InstanceDescriptor__ctor_m1126602508
H5:__Z16DecompressCrunchPKhRjR13TextureFormatiiii18MemLabelIdentifier
NVk:_Enumerator_get_Current_m603202274_gshared
Jm:___syscall54
JUl:_ConfigurationErrorsException__ctor_m2905194480
$Ej:_PropertyDescriptorEnumerator_get_Current_m2472504991
j4j:_CultureInfoConverter_get_DefaultCultureString_m1336345119
U3d:_XmlNodeReader_ReadNextNode_m3032160551
o5a:__ZN9ShaderLab9SubShader19CreateFromSubShaderERKS0_
Pyg:_StrongName__ctor_m2607307984
Grh:_Array_InternalArray__ICollection_Remove_TisInternalPrimitiveTypeE_t3020811655_m2070427644_gshared
H5m:__ZN6il2cpp2vm5Image21GetCachedResourceDataEPK11Il2CppImageRKNSt3__212basic_stringIcNS5_11char_traitsIcEENS5_9allocatorIcEEEE
uab:__Z18Transfer_BlittableI14SafeBinaryReadLb0E10ColorRGBAfEvRK29SerializationCommandArgumentsR31RuntimeSerializationCommandInfo
cee:_XmlTextWriter_VerifyPrefixXml_m1293693614
Rmk:_List_1_System_Collections_IList_get_Item_m2867339056_gshared
Ea:invoke_iiiiiiiiii
PNg:_StringBuilder_FindChunkForIndex_m759076341
FC:__ZN11AudioSource25GetNumExtensionPropertiesEv
HNk:_ServerCertValidationCallback_Invoke_m1328861150
KVl:_ConfigurationPropertyCollection_Add_m2387630251
osh:_Array_QSortArrange_TisByte_t3683104436_m282000254_gshared
jQn:__Z59RuntimeInvoker_RuntimeObject_Int64_t909078037_RuntimeObjectPFvvEPK10MethodInfoPvPS4_
ZYa:__ZN18LoadSceneOperation19IntegrateTimeSlicedEi
PWh:_Scheduler_SchedulerThread_m2209572785
T5j:_KeyValuePair_2_ToString_m2613351884_AdjustorThunk
j_i:_Number_HexNumberToInt64_m292732512
rt:__ZN4FMOD7SystemI11createSoundEPKcjP22FMOD_CREATESOUNDEXINFOPPNS_5SoundE
i$l:_SectionGroupInfo_ReadData_m4130533217
LNb:__ZN10FileSystem19SetCurrentDirectoryERKN4core12basic_stringIcNS0_20StringStorageDefaultIcEEEE
HQ:__ZN16ScriptingManager24NotifyScriptCacheReleaseEi
bhl:_InternalEnumerator_1_get_Current_m2151132603_gshared
b9d:_XmlTextReaderImpl_ThrowUnexpectedToken_m3151716184
d_b:__Z47Register_UnityEngine_Coroutine_ReleaseCoroutinev
Wxc:__ZN10ScSceneFnsIN5physx3Scb11RigidStaticEE6insertERNS0_2Sc5SceneERS2_
vv:__ZN15AudioReverbZone13SetFMODValuesEv
gN:__ZL19StaticDestroyShaderPv
re:_glRenderbufferStorageMultisample
LVh:_ThreadPool_RegisterWaitForSingleObject_m1109248666
vTn:__Z94RuntimeInvoker_RuntimeObject_RuntimeObject_Int16_t4041245914_Int32U26_t455636984_RuntimeObjectPFvvEPK10MethodInfoPvPS4_
wal:_KeyHandler_get_UserStore_m1543438488
V4b:__ZN9JSONWrite8TransferI13dynamic_arrayIN4math12int3_storageELj4EEEEvRT_PKc17TransferMetaFlags
oCb:__ZN22MotionVectorRenderLoopD2Ev
qxj:_TlsServerHello_processProtocol_m1241336522
Oic:__ZN5physx2Gu20sweepCCTBoxTrianglesEjPKNS_10PxTriangleEbRKNS_13PxBoxGeometryERKNS_11PxTransformERKNS_6PxVec3EfRSA_SD_RfRjPKjfNS_7PxFlagsINS_9PxHitFlag4EnumEtEE
Pqh:_Array_InternalArray__ICollection_Remove_TisKeyValuePair_2_t888819835_m1287715465_gshared
EDg:_String_TrimHelper_m1110563478
lcc:__ZN5physx2Gu15OBBTriangleTestC2ERKNS0_3BoxE
ice:_XmlTextReaderImpl_DtdParserProxy_ReadData_m2598725144
z6l:_ContextAttribute_IsContextOK_m3281216012
Dji:_PathTooLongException__ctor_m3212099251
tvp:__ZNSt3__211__money_getIcE13__gather_infoEbRKNS_6localeERNS_10money_base7patternERcS8_RNS_12basic_stringIcNS_11char_traitsIcEENS_9allocatorIcEEEESF_SF_SF_Ri
Vdc:__ZN5physx2Gu21computeMTD_SphereMeshERNS_6PxVec3ERfRKNS0_6SphereERKNS_22PxTriangleMeshGeometryERKNS_11PxTransformE
Nr:__ZN17PackedFloatVector8TransferI18StreamedBinaryReadILb0EEEEvRT_
Ipc:__ZN5physx2Sc10NPhaseCore15fetchFilterPairEPv
Fzd:__ZN5physx12SubSortQuick5sort4EPjjRNS_6shdfnd5ArrayINS_11RTreeNodeNQENS2_19ReflectionAllocatorIS4_EEEERjRNS_10PxBounds3VEj
eTh:_TaskSchedulerException__ctor_m3602323360
mwc:__ZN5physx6shdfnd5ArrayIPNS_2Sc8BodyCoreENS0_19ReflectionAllocatorIS4_EEE15growAndPushBackERKS4_
Wxi:_Enumerator__ctor_m2776133184_gshared
eXb:__ZN22BlockMemoryCacheWriter11GetPathNameEv
HXi:_IsolatedStorageFilePermission_ToXml_m1043681582
EYb:__ZN23TransformChangeDispatch38CheckAndClearChangedForMultipleSystemsEyP19ProfilerInformation
oDd:__ZN14PhysicsManager23VirtualRedirectTransferER14SafeBinaryRead
H9e:_DateTime_ToString_m3108726445_AdjustorThunk
W4k:_ReadOnlyCollection_1_System_Collections_Generic_ICollectionU3CTU3E_Remove_m1860213292_gshared
kng:___DTString_GetSeparatorToken_m1712262127_AdjustorThunk
uDf:_Array_InternalArray__get_Item_TisTableRange_t2011406615_m602485977_gshared
$of:_RuntimeMethodHandle_ConstructInstantiation_m3943430214
yXk:_Stack_1_System_Collections_ICollection_get_SyncRoot_m3151629354_gshared
tFc:__ZN5physx7NpActor14onActorReleaseEPNS_7PxActorE
tRj:_SettingsSectionInternal__cctor_m1849839638
Kpg:_ApplicationException__ctor_m1120437222
Qlc:__ZN5physx3Cct26CharacterControllerManager19computeInteractionsEfPNS_26PxControllerFilterCallbackE
N6f:_FacetsCompiler_Preprocess_m2974863914
Ep:stackAlloc
KFh:_XmlSchemaObjectCollection_OnInsert_m3974649934
Euc:__ZN5physx6shdfnd8PoolBaseINS_2Cm5BlockIhLj256EEENS0_19ReflectionAllocatorIS4_EEE12allocateSlabEv
r_b:__Z44Camera_CUSTOM_INTERNAL_CALL_ScreenPointToRayP12Il2CppObjectRK8Vector3fR3Ray
vpa:__ZN25SingleBlockMemoryFileData4LockEPPv
DZf:_StringParser_t2680633667_marshal_pinvoke
I9i:_MethodBuilder_GetHashCode_m1713271764
l3l:_Marshal__cctor_m802981325
Hdl:_MSCompatUnicodeTable_GetResource_m3816716847
xqe:_XdrValidator_Pop_m213241
Ebe:_XmlTextReaderImpl_ResolveEntity_m1996202187
y6i:_DynamicMethod_ToString_m3640450024
jrg:_Array_CreateInstance_m15016505
lop:_stat
oj:_JS_Eval_ClearTimeout
c9d:_XmlTextReaderImpl_HandleGeneralEntityReference_m2097950237
Qyp:__ZNSt3__212basic_stringIcNS_11char_traitsIcEENS_9allocatorIcEEEaSERKS5_
FCh:_Array_InternalArray__ICollection_CopyTo_TisUInt16_t986882611_m3228377237_gshared
KOg:_UnicodeEncoding_GetCharCount_m2022895662
QKm:__Z26hill_climbing_force_changes34ThreadPoolHeuristicStateTransition
M6l:_InternalAsyncResult_get_AsyncWaitHandle_m2297269869
LXf:_TextInfo_ToUpperInternal_m3263566526
HNh:_XsdDateTime__cctor_m1505265867
xva:__ZN6CameraD2Ev
xjd:__ZN5physx2Gu21findUniqueConvexEdgesEjPNS0_10ConvexEdgeEjPKNS0_15HullPolygonDataEPKh
vYc:__ZN5physx20NpRigidActorTemplateINS_14PxRigidDynamicEED0Ev
YOi:_RC2_set_KeySize_m2015782960
pa:invoke_iiiiiiiiiiii
ied:__ZN5physx43solveContactCoulombPreBlock_WriteBackStaticEPKNS_23PxcSolverConstraintDescEjRNS_16PxcSolverContextEPNS_25PxcThresholdStreamElementEjPi
K$f:_Datatype_double_get_ListValueType_m55276046
fkg:_StrongName_get_PublicKey_m3777577320
Cuc:__ZN5physx2Sc5Scene23allocateConstraintBlockEj
sfm:_PersistentCallGroup_Initialize_m3729167844
jy:__ZN10AudioMixer12RebindOutputEv
iXm:__ZNK15dense_hashtableINSt3__24pairIK10KeyWrapperIP11Il2CppClassES4_EES5_N6il2cpp8metadata16SZArrayClassHashEN14dense_hash_mapIS5_S4_SA_NS5_14EqualsComparerINS9_19SZArrayClassCompareEEENS0_9allocatorIS7_EEE9SelectKeyESE_SG_E5beginEv
nPg:_UTF32Encoding_GetCharCount_m845809711
szm:__ZN6il2cpp2vm17SetupFieldsLockedEP11Il2CppClassRKNS_2os12FastAutoLockE
My:__ZN11AudioSourceD0Ev
Svc:__ZN5physx2Sc5Actor15onElementDetachERNS0_7ElementE
asg:_ArraySpec_ToString_m2165949194
V9d:_XmlTextReaderImpl_GetAttribute_m1119393549
dZd:_XmlTextReaderImpl_BlockCopyChars_m1984235994
S8a:__ZN16MemoryFileSystem4NameEv
jpi:_MissingMemberException_get_Message_m2763732423
G1e:_ConsoleDriver_CreateWindowsConsoleDriver_m4061710778
Y1m:__ZN6il2cpp2vm14PlatformInvoke7ResolveERK16PInvokeArguments
Epj:_PrimeGeneratorBase_get_PrimalityTest_m308005118
fok:_List_1_InsertRange_m983989184_gshared
Pun:__Z75RuntimeInvoker_RuntimeObject_RuntimeObject_Decimal_t724701077_RuntimeObjectPFvvEPK10MethodInfoPvPS4_
U9b:__ZN5physx3Cct13BoxController13setHalfHeightEf
f8f:_ListFacetsChecker_CheckValueFacets_m2931024366
RYl:_ConfigurationPropertyCollection_Remove_m3152791538
D5c:__ZN5physx3Scb13ObjectTracker5clearEv
beg:_SafeStringMarshal_Dispose_m1712386720
Y6l:_TlsStream_ReadBytes_m3301522097
fZb:__Z42ScriptingGetComponentsOfTypeFromGameObjectRK26ScriptingGetComponentsArgs
$ac:__ZL28GeomMTDCallback_PlaneCapsuleRN5physx6PxVec3ERfRKNS_10PxGeometryERKNS_11PxTransformES5_S8_
Nzj:_SslServerStream_Dispose_m1476242645
Xeh:_U3CU3Ec_U3C_cctorU3Eb__307_7_m2592603837
jbc:__ZL23GeomMTDCallback_BoxMeshRN5physx6PxVec3ERfRKNS_10PxGeometryERKNS_11PxTransformES5_S8_
Svf:_Array_InternalArray__set_Item_TisEntry_t4214607081_m823317241_gshared
oOc:__ZNK5physx7NpCloth22getNbCollisionCapsulesEv
WGa:__ZNSt3__27__sort4IRPFbRKNS_4pairIN9ShaderLab16FastPropertyNameEN18UnityPropertySheet11UnityTexEnvEEES8_EPS6_EEjT0_SD_SD_SD_T_
c$h:_TimeZoneInfo_GetHashCode_m2847487085
g7d:_XmlText_set_Value_m2616229977
TYn:__Z67RuntimeInvoker_Boolean_t3825574718_RuntimeObject_Double_t4078015681PFvvEPK10MethodInfoPvPS4_
Ovj:_Context_set_SentConnectionEnd_m2641458842
kNi:_HMAC_GetHashAlgorithmWithFipsFallback_m1964063406
ye:_emscripten_glBufferSubData
KZf:_StringParser_ParseTime_m995503884_AdjustorThunk
AQl:_GenericComparer_1_Compare_m117824657_gshared
hzc:__ZN5physx6shdfnd5ArrayIPvNS0_15InlineAllocatorILj256ENS0_19ReflectionAllocatorINS_7NpShapeEEEEEE15growAndPushBackERKS2_
vya:__ZN11HaloManager10UpdateHaloEiR9Transform11ColorRGBA32fjP6Object
W5e:_DateTimeParse_GetTimeOfN_m1682937582
Z0h:_TypeSpec_BoundCheck_m379277001
H7:__ZN6prcoreL12RemapGenericI15TexFormatRGB88817TexFormatARGB8888EEvPKNS_9InnerInfoE
uq:__Z17CalculateGlobalRS23TransformAccessReadOnly
yfl:_Kernel_multiByteDivide_m735279869
Pam:_X509Chain_IsValid_m4184995162
Uzc:__ZNK5physx14NpArticulation22computeImpulseResponseEPNS_18PxArticulationLinkERNS_6PxVec3ES4_RKNS_24PxArticulationDriveCacheERKS3_S9_
irc:__ZN5physx2Sc19ContactReportBuffer23reallocateNotThreadSafeEjRjjj
Upf:_RuntimeType_GetNestedTypes_internal_m293027487
iwm:_CustomEventData_AddInt64_m890154679
d5:__ZN17GenericDynamicVBO17DrawChunkInternalERK21DynamicVBOChunkHandle17ShaderChannelMaskS3_P17VertexDeclarationP16DrawBuffersRangeij
Otc:__ZN5physx2Sc5Actor19registerInteractionEPNS0_11InteractionE
kRj:_ServicePointManagerElement_get_Properties_m437013929
tdb:__ZN14SafeBinaryRead21TransferSTLStyleArrayI13dynamic_arrayI9BoundsIntLj4EEEEvRT_17TransferMetaFlags
H$a:__ZN22MemoryCacherReadBlocks14LockCacheBlockEjPPhS1_
LQe:_Boolean_System_IConvertible_ToChar_m2637404801_AdjustorThunk
T3h:_UInt16_System_IConvertible_ToSByte_m3044765342_AdjustorThunk
M$l:_AsyncTaskMethodBuilder_SetStateMachine_m1055343178
jyb:__ZNK9GfxDevice26GetSinglePassStereoEyeMaskEv
FWe:_ReadOnlyArrayList_CopyTo_m1872456616
Ogn:__ZN4utf88internal15increase_safelyIPKcEENS0_9utf_errorERT_S5_
Nrp:__ZNSt3__227__num_get_unsigned_integralIyEET_PKcS3_Rji
XJd:__ZN13PhysicsModule19CreateNxHeightFieldEPv
DUd:__Z21ArrayElementTypeCheckP11Il2CppArrayPv
yIp:_emscripten_glTexSubImage2D__wrapper
tLl:_Dictionary_2_System_Collections_IDictionary_Add_m3716517866_gshared
Nug:_StrongNameIdentityPermission_FromSecurityElement_m3321721849
IVl:_ConfigurationElement_GetKeyProperties_m4219970304
Wyp:__ZNSt3__212basic_stringIcNS_11char_traitsIcEENS_9allocatorIcEEE6appendEjc
f$i:_Object_InternalGetHashCode_m1371384246
uai:_Int32_System_IConvertible_ToSByte_m1449623243_AdjustorThunk
$dh:_SocketAsyncResult__ctor_m457750009
Sam:_X509ExtensionCollection_IndexOf_m3972100651
Kbb:__Z14resize_trimmedINSt3__26vectorI8MonoPPtr13stl_allocatorIS2_L18MemLabelIdentifier1ELi16EEEEEvRT_j
gf:_TTF_RenderText_Solid
Z4h:_UInt32_System_IConvertible_ToInt64_m3091851828
opi:_MissingMethodException__ctor_m3898429715
MOe:_Uri_TryCreate_m3521936019
Hjj:_RemotingConfiguration_RegisterClientProviderTemplate_m514821425
Iyi:_Enumerator_System_Collections_IEnumerator_Reset_m3085583937_gshared
pIj:_ConfigurationException__ctor_m2016541990
gYd:_XmlDocument_GetSchemaElementDecl_m1932177448
nX:__ZN15dense_hashtableINSt3__24pairIKPKcPK4RTTIEES3_N11TypeManager23ConstCharPtrHashFunctorEN14dense_hash_mapIS3_S7_SA_NS9_19ConstCharPtrEqualToE13stl_allocatorIS8_L18MemLabelIdentifier7ELi16EEE9SelectKeyESC_SF_E15insert_noresizeERKS8_
kjg:_RSAManaged_ExportParameters_m2873993187
pJj:_DiagnosticsConfigurationHandler_ThrowMissingAttribute_m2009841832
SNj:_GZipStream_EndRead_m3433427983
bXk:_Enumerator__ctor_m2816143215_AdjustorThunk
URd:__ZN11UnityEngine7Connect16PersistentValuesC2Ev
NMe:_Uri_CheckCanonical_m3154933242
c3b:__Z18Transfer_BlittableI9JSONWriteLb0E5RectTIiEEvRK29SerializationCommandArgumentsR31RuntimeSerializationCommandInfo
G_i:_Number_TryParseDecimal_m359802636
Kba:__Z15IsIEEE754Format14GraphicsFormat
pfb:__Z19TransferField_ArrayI17RemapPPtrTransfer27Converter_UnityEngineObjectEvRK23StaticTransferFieldInfoR31RuntimeSerializationCommandInfoRT0_
WWa:__ZN19StreamedBinaryWriteILb0EE8TransferI13dynamic_arrayI16SplashScreenLogoLj4EEEEvRT_PKc17TransferMetaFlags
s0c:__ZNK5physx2Sc7BodySim13isConnectedToERKNS0_8RigidSimERb
qRl:_GenericComparer_1_Compare_m1950990020_gshared
FOe:_Uri_IsAsciiLetter_m2324927889
$4l:_ClientActivatedIdentity_OnLifetimeExpired_m3829666701
EZi:_NumberFormatter_InitDecHexDigits_m1612588520
mDd:__ZN14PhysicsManager23VirtualRedirectTransferER17RemapPPtrTransfer
A$:__ZN13GfxDeviceGLES15UploadTexture2DE9TextureID16TextureDimensionPKhiii14GraphicsFormati18TextureUploadFlags16TextureUsageMode
_bi:_IntPtr_System_Runtime_Serialization_ISerializable_GetObjectData_m21554269_AdjustorThunk
sDg:_Single_GetHashCode_m3102305584_AdjustorThunk
LDj:_Int64Converter_FromString_m2272052326
mx:__ZN4FMOD6System9createDSPEP20FMOD_DSP_DESCRIPTIONPPNS_3DSPE
IHm:_send_tree_12562
E6j:_LinkedList_1_CopyTo_m3700485924_gshared
Ff:_JS_SystemInfo_HasCursorLock
pt:__ZN4FMOD8ChannelI11EndCallbackEv
kbj:_OpCode_get_StackBehaviourPop_m3787015663_AdjustorThunk
RMa:__ZN15QualitySettings23VirtualRedirectTransferER24GenerateTypeTreeTransfer
Zvn:__Z87RuntimeInvoker_TimeSpan_t3430258949_DateTime_t693205669_RuntimeObject_Int32_t2071877448PFvvEPK10MethodInfoPvPS4_
xVi:_X509CertificateImplMono_ToString_m3848922889
jkd:__ZN5physx2Gu32PCMConvexVsMeshContactGeneration35generateTriangleFullContactManifoldERNS0_9TriangleVEjPKjhRKNS0_13PolygonalDataEPNS0_16SupportLocalImplIS2_EEPNS0_12SupportLocalEPNS0_21MeshPersistentContactERjRKNS_6shdfnd3aos6FloatVERNSI_5Vec3VE
kNm:__ZN6il2cpp2os10FileHandleC2Ev
zTf:_DateTimeFormatInfo_internalGetLeapYearMonthNames_m1468606865
H5o:__ZL50EventLog_t681067562_CustomAttributesCacheGeneratorP21CustomAttributesCache
pCm:__ZN30dense_hashtable_const_iteratorINSt3__24pairIK10KeyWrapperIPK19Il2CppGenericMethodEPK26Il2CppGenericMethodIndicesEES6_N6il2cpp8metadata23Il2CppGenericMethodHashEN14dense_hash_mapIS6_SA_SE_NS6_14EqualsComparerINSD_26Il2CppGenericMethodCompareEEENS0_9allocatorISB_EEE9SelectKeyESI_SK_EppEv
PFe:_RegexCharClass_AddRange_m608228650
$9c:__ZNK16OBBAABBTest_SIMDclERKN5physx2Sq9BucketBoxE
aKj:_ListenerElement_Unmerge_m1955453591
f3m:__ZN6il2cpp6icalls8mscorlib6System10Reflection10MonoMethod29get_IsGenericMethodDefinitionEP22Il2CppReflectionMethod
KYm:__ZN6il2cpp2vm6Thread21AllocThreadStaticDataEi
G2m:__ZN6il2cpp2vm13LivenessState5ResetEv
Kog:_AppContextSwitches_get_ThrowExceptionIfDisposedCancellationTokenSource_m971285222
dkk:_List_1_System_Collections_IList_set_Item_m3394470674_gshared
oOe:_Uri_GetLocalPath_m3913386168
Bse:_XmlBaseConverter_ToInt32_m609463319
WMh:_Parser_ParseTimeAndZoneAndWhitespace_m2908515596
Yen:__ZN30dense_hashtable_const_iteratorINSt3__24pairIK10KeyWrapperIPK19Il2CppGenericMethodEP10MethodInfoEES6_N6il2cpp8metadata23Il2CppGenericMethodHashEN14dense_hash_mapIS6_S9_SD_NS6_14EqualsComparerINSC_26Il2CppGenericMethodCompareEEENS0_9allocatorISA_EEE9SelectKeyESH_SJ_EppEv
SB:__Z13RegisterClassI13AudioListenerEvv
rHl:_Tuple_2_System_ITupleInternal_ToString_m2018524911_gshared
C2l:_Marshal_AllocHGlobal_m4258042074
Nxg:_String_LastIndexOf_m2194091986
B2b:__Z18Transfer_BlittableI9JSONWriteLb0E8Vector3fEvRK29SerializationCommandArgumentsR31RuntimeSerializationCommandInfo
fg:_emscripten_glUniform4i
uDj:_GuidConverter_ConvertFrom_m3874566802
brj:_KeyPairPersistence_ProtectUser_m3332301771
nkc:__ZN16RayRTreeCallbackILi0ELb1EED2Ev
sf:_emscripten_glUniform4f
Pla:__ZN6Object22CheckInstanceIDsLoadedEPii
zSb:__Z13GrayscaleRampP9Texture2DPhiiii
ena:__ZN15dense_hashtableINSt3__24pairIKN4core12basic_stringIcNS2_20StringStorageDefaultIcEEEEP20ArchiveStorageReaderEES6_20StringHash32FunctionIS6_EN14dense_hash_mapIS6_S9_SC_NS0_8equal_toIS6_EE13stl_allocatorISA_L18MemLabelIdentifier55ELi16EEE9SelectKeyESF_SI_ED2Ev
kxh:_Array_InternalArray__IndexOf_TisWin32_IP_ADAPTER_ADDRESSES_t680756680_m3384890477_gshared
dMb:__ZN13sorted_vectorINSt3__24pairIN4core12basic_stringIcNS2_20StringStorageDefaultIcEEEES6_EEN10vector_mapIS6_S6_27compare_tstring_insensitiveIS6_E13stl_allocatorIS7_L18MemLabelIdentifier38ELi16EEE13value_compareESD_E9erase_oneIS6_EEjRKT_
sqp:__ZTv0_n12_NSt3__213basic_istreamIcNS_11char_traitsIcEEED1Ev
UPg:_UTF7Encoding_GetCharCount_m3778256117
tXe:_Comparer_Compare_m4132969818
ICg:_String_CompareOrdinalIgnoreCaseHelper_m964621052
vz:__ZN20SoundChannelInstance19setReverbPropertiesEP29FMOD_REVERB_CHANNELPROPERTIES
C6f:_FacetsCompiler_CompileWhitespaceFacet_m3038054342
Sak:_Enumerator__ctor_m1581482514_AdjustorThunk
tMj:_DomainNameHelper_IsIdnAce_m2520283918
asf:_RuntimeType_ActivationCreateInstance_m3912325409
Yqp:__ZNKSt3__27collateIcE10do_compareEPKcS3_S3_S3_
XFe:_RegexCharClass_Parse_m1847859560
SCj:_EventDescriptorCollection_IndexOf_m3026506957
rlc:__ZN5physx3Cct17CapsuleController15setClimbingModeENS_21PxCapsuleClimbingMode4EnumE
acd:__ZN5physx6shdfnd9atomicAddEPVii
IVe:_ArrayList_Sort_m923359189
hgm:_Gradient_Init_m3042650694
a3j:_StringCollection__ctor_m467153844
Y9j:_Enumerator__ctor_m1421995279_AdjustorThunk
M6c:__ZN5physx6shdfnd5ArrayINS_3Scb13MaterialEventENS0_19ReflectionAllocatorIS3_EEE6resizeEjRKS3_
Yhd:__ZNK5physx14SingleAABBTask25updateNumFastMovingShapesEv
byl:_Nullable_1__ctor_m1785320616_gshared
Wma:__ZNK6Object22GetTypeVirtualInternalEv
pjh:_WebProxy_get_BypassArrayList_m754857652
Ssb:__Z11StringToKeyRKN4core12basic_stringIcNS_20StringStorageDefaultIcEEEE
pzk:_MonoParameterInfo_IsDefined_m1781033269
_xk:_MonoField_CheckGeneric_m1527550038
Zyd:__ZN5physx17ConvexMeshBuilder16computeGaussMapsEv
dNk:_PathList__ctor_m627770875
mV:__ZN13RuntimeStaticI15DirectorManagerLb0EE16StaticInitializeEPv
rnf:_SafeSerializationManager_System_Runtime_Serialization_IObjectReference_GetRealObject_m2007563835
nVa:__ZN11TimeManager6UpdateEv
aub:__ZN6Shader18LoadDefaultShadersEv
Xzc:__ZNK5physx2Sc16ArticulationCore22computeImpulseResponseERNS0_8BodyCoreERNS_6PxVec3ES5_RKNS_9PxcFsDataERKS4_SA_
zld:__ZN5physx21PxsBodyTransformVaultC2Ev
rOl:_EqualityComparer_1_CreateComparer_m2390620562_gshared
jkh:_WebRequest_get_InternalDefaultWebProxy_m635545916
kyi:_Enumerator__ctor_m867384631_gshared
ujd:__ZL6IsInYZffPPK10VertexInfo
Tzd:__ZN5physx19TriangleMeshBuilderD0Ev
sop:_fflush
Uta:__ZN17LightProbeContext4InitERK16LightmapSettingsRK14RenderSettings
Unf:_SerializationFieldInfo_GetCustomAttributes_m3484574288
ksn:__GLOBAL__sub_I_Error_cpp
Inm:_AudioSource_INTERNAL_CALL_ReadExtensionPropertyName_m3694806886
W_d:_XmlElement_AppendChildForLoad_m3672103450
$Pa:__ZN9Texture3DD2Ev
Jnh:_X509Certificate2ImplMono_Import_m4020327771
_Mk:_Win32IPInterfaceProperties2_get_DnsAddresses_m1140426308
hWk:_Enumerator_MoveNext_m3315718998_gshared
yef:_DefaultBinder_FindMostSpecific_m1204326189
iLe:_RegexInterpreter_Go_m615932932
xvn:__Z87RuntimeInvoker_TimeSpan_t3430258949_DateTime_t693205669_Int32_t2071877448_RuntimeObjectPFvvEPK10MethodInfoPvPS4_
ACf:_AsyncTaskMethodBuilder_1_AwaitUnsafeOnCompleted_TisRuntimeObject_TisRuntimeObject_m563926451_gshared
Sxj:_RecordProtocol_ProcessChangeCipherSpec_m3233959862
SHb:__Z34ProcessIndexListIsNodeVisibleStep2RK22SceneCullingParametersPK9SceneNodePK4AABBR9IndexList
irb:__ZN10MonoScriptD2Ev
$di:_BinaryWriter_Write_m2521294184
Ash:_Array_QSortArrange_TisDecimal_t724701077_m3889708357_gshared
PNh:_Parser_ParseTimeAndWhitespace_m675492641_AdjustorThunk
cjh:_WebHeaderCollection_Get_m3391944907
u$b:__Z39Input_CUSTOM_INTERNAL_get_mousePositionP8Vector3f
D_l:_PropertyInformationCollection_GetObjectData_m1752565104
l5a:__ZN9ShaderLab4Pass16SetupPassOptionsEv
wph:_Array_InternalArray__ICollection_Contains_TisILExceptionBlock_t2042475189_m1156070515_gshared
zh:_JS_Sound_ReleaseInstance
DOh:_XsdValidator_ValidateEndElement_m2828589352
z_:__ZN13GfxDeviceGLES19DrawBuffersIndirectEP9GfxBufferPK18VertexStreamSourceiP17VertexDeclaration17ShaderChannelMask16GfxPrimitiveType15ComputeBufferIDj
O0e:_StackEnumerator_MoveNext_m987358617
DHl:_Tuple_3_System_ITupleInternal_ToString_m3465599898_gshared
xsd:__ZN5physx16PxsCCDBlockArrayINS_13PxsCCDOverlapELi128EE8pushBackEv
TGh:_XmlSchemaSet_get_SubstitutionGroups_m1324444813
xsp:__ZNSt3__214__scan_keywordINS_19istreambuf_iteratorIwNS_11char_traitsIwEEEEPKNS_12basic_stringIwS3_NS_9allocatorIwEEEENS_5ctypeIwEEEET0_RT_SE_SD_SD_RKT1_Rjb
HIi:_Dictionary_2_OnDeserialization_m1530974153_gshared
lHp:_emscripten_glPixelStorei__wrapper
npf:_RuntimeType_MakeArrayType_m2884374796
mef:_Decimal_System_IConvertible_ToDecimal_m1541432424_AdjustorThunk
Wm:FUNCTION_TABLE_diddi
heh:_Socket_Disconnect_internal_m3251286451
ywd:__ZN5physx2Gu12TriangleMesh7releaseEv
DFh:_XmlSchemaObject_Clone_m2531417009
ncj:_InternalRemotingServices__cctor_m3821625125
bOg:_StringBuilder_Insert_m3322917127
axl:_InternalEnumerator_1_System_Collections_IEnumerator_get_Current_m2808766757_gshared
d9c:__ZN5physx14PxsAABBManagerD2Ev
udb:__ZN9BoundsInt8TransferI14SafeBinaryReadEEvRT_
kgi:_MonoIO_GetFileAttributes_m2061483138
CFe:_RegexFCD_Anchors_m4267880789
J4e:_Convert_ToDouble_m3520060872
FGp:_emscripten_glUniform1f__wrapper
uBp:dynCall_di
Jyj:_SslCipherSuite_ComputeServerRecordMAC_m1876572367
P8c:__ZN5physx16PxsIslandManagerD2Ev
i2b:__Z28RegisterModule_JSONSerializev
j7j:_Enumerator__ctor_m3029487006_gshared
jUg:_Interlocked_CompareExchange_m3227034792
xMi:_HashAlgorithm_get_Hash_m931854461
qed:__ZN5physx21solveFriction_BStaticERKNS_23PxcSolverConstraintDescERNS_16PxcSolverContextE
e6a:__ZN2UI13RectTransform8TransferI14SafeBinaryReadEEvRT_
u3b:__Z35Transfer_Blittable_FixedBufferFieldI9JSONWriteaEvRK29SerializationCommandArgumentsR31RuntimeSerializationCommandInfo
M$j:_MonoSslStreamWrapper_Dispose_m2095678901
EXb:__Z20IsHumanControllingUsv
Fxb:__ZNK19RenderEventsContext21ExecuteCommandBuffersEijR17ShaderPassContextR15RenderNodeQueueP19ProfilerInformationi
S6d:_XmlResolver_SupportsType_m3297289732
B6d:_XmlRegisteredNonCachedStream_EndRead_m3603103733
MBp:dynCall_viiiiiiiiiiiiiiiiiiiiiiiiiiiiiiiiii
rog:_AggregateException__ctor_m4228358451
Hma:__ZN10systeminfo21GetPersistentDataPathEv
X_j:_LegacySslStream_set_Position_m1560588018
q_:__ZN13GfxDeviceGLES17DestroyGpuProgramEPK10GpuProgram
OUf:_GregorianCalendar_GetMonth_m523739832
Kzf:_Array_Sort_TisDouble_t4078015681_m4273987210_gshared
U9a:__Z44InitializeTransferFunctionScriptingTraitsForI18StreamedBinaryReadILb0EEEvR31TransferFunctionScriptingTraits
RDb:__ZNSt3__218__insertion_sort_3IR23CompareReflectionProbesP31RuntimeReflectionProbeBlendInfoEEvT0_S5_T_
zfb:__ZN12NativeBufferI27Converter_SimpleNativeClassI8GradientEE15SetupForWritingER9ArrayInfo
bAp:__ZNKSt9bad_alloc4whatEv
Bhm:_MessageEvent__ctor_m1822782644
Wdl:_SimpleCollator_GetNeutralCulture_m740567665
lVh:_Thread_set_ExecutionContextBelongsToCurrentScope_m1653811160
aL:__ZN12_GLOBAL__N_113StaticDestroyEPv
ZPe:_BadImageFormatException_ToString_m331538524
$Ji:_Dictionary_2__ctor_m1512192236_gshared
O3f:_Datatype_unsignedLong_get_ValueType_m1593789890
BLp:_glUnmapBuffer__wrapper
paf:_DateTime_System_IConvertible_ToUInt32_m1363211018_AdjustorThunk
mce:_XmlTextReaderImpl_DtdParserProxy_ParseComment_m1012751148
kfg:_X509Chain_Build_m3597492778
a7b:__ZN8JSONRead21TransferSTLStyleArrayINSt3__26vectorI8Gradient13stl_allocatorIS3_L18MemLabelIdentifier1ELi16EEEEEEvRT_17TransferMetaFlags
KVa:__ZNSt3__218__insertion_sort_3IRNS_6__lessINS_4pairIPKN5Unity4TypeE7Hash128EES8_EEPS8_EEvT0_SC_T_
hhb:__ZN10RectOffset8TransferI24GenerateTypeTreeTransferEEvRT_
Vrg:_SimpleEnumerator_get_Current_m482975946
Ftp:__ZNKSt3__28time_getIcNS_19istreambuf_iteratorIcNS_11char_traitsIcEEEEE13__get_percentERS4_S4_RjRKNS_5ctypeIcEE
tgb:__Z18Transfer_BlittableI24GenerateTypeTreeTransferLb1E5RectTIiEEvRK29SerializationCommandArgumentsR31RuntimeSerializationCommandInfo
DLc:__ZN5physx7NpShape18setQueryFilterDataERKNS_12PxFilterDataE
Dfm:_UnityEventBase_RemoveListener_m1982084330
kkg:_Uri__ctor_m1623294148
oDm:__ZN15dense_hashtableI10KeyWrapperIPK17Il2CppGenericInstES4_N6il2cpp8metadata21Il2CppGenericInstHashEN14dense_hash_setIS4_S7_NS4_14EqualsComparerINS6_24Il2CppGenericInstCompareEEENSt3__29allocatorIS4_EEE8IdentityESB_SE_E12resize_deltaEjj
mHm:__ZN6il2cpp6icalls6System6System3Net7Sockets6Socket18IOControl_internalEiiP11Il2CppArrayS7_Pi
AOd:__ZN11UnityEngine15PlatformWrapper25GetGraphicsRendererStringEv
knd:__ZN5physx20PxcNpCacheStreamPair5resetEv
F$j:_MonoSslStreamWrapper_CheckDisposed_m1150088706
ZH:__ZN11UnityEngine15CloudWebService17WebFileDownloaderINS0_20WebRequestRestClientENS0_23WebRequestRestHeaderMapEED2Ev
_b:invoke_vi
J4b:__ZN9JSONWrite8TransferI13dynamic_arrayI9BoundsIntLj4EEEEvRT_PKc17TransferMetaFlags
Yb:invoke_vd
tMh:_XsdBuilder_InitAppinfo_m2051908868
Zb:invoke_vf
Owp:__ZNSt3__25ctypeIcED2Ev
V0m:__ZN6il2cpp2vm9Exception34GetMaxmimumNestedGenericsExceptionEv
yS:__ZNK10GameObject8IsActiveEv
J_b:__Z34Component_Get_Custom_PropTransformP12Il2CppObject
bug:_SecurityPermissionAttribute_set_ControlAppDomain_m1075038748
Ocp:__ZL67g_UnityEngine_PhysicsModule_Assembly_CustomAttributesCacheGeneratorP21CustomAttributesCache
Zsf:_SByte_System_IConvertible_ToUInt32_m4256495110
yZd:_XmlLoader_LoadAttributeNodeDirect_m45231346
yba:__ZN18GfxFramebufferGLES23SetupDefaultFramebufferEPP17RenderSurfaceBaseS2_N2gl6HandleILNS3_10ObjectTypeE9EEE
Aop:_mbsinit
FIi:_Dictionary_2_Initialize_m2298844920_gshared
czf:_Array_qsort_TisUInt32_t2149682021_TisRuntimeObject_m1704937494_gshared
zvc:__ZN5physx2Sq16computeWorldAABBERKNS_3Scb5ShapeERKNS1_5ActorE
Z4k:_ReadOnlyCollection_1_System_Collections_ICollection_get_SyncRoot_m2459574040_gshared
UNa:__ZN13ScreenManager18RequestOrientationE17ScreenOrientation
Rzm:__ZN6il2cpp2vm5Class12SetupMethodsEP11Il2CppClass
Ghd:__ZN5physx14PxsAABBManager31updateAggregateBPOverlapRecordsEv
NYb:__Z39DeleteLastPathNameComponentWithAnySlashRKN4core12basic_stringIcNS_20StringStorageDefaultIcEEEE
wef:_DefaultBinder_ReorderParams_m2412553824
Jdj:_MethodCall__ctor_m4106494862
tWi:_FileDialogPermission_IsUnrestricted_m881790096
HNn:__Z167RuntimeInvoker_Void_t1841601450_SByte_t454417549_SByte_t454417549_SByte_t454417549_SByte_t454417549_SByte_t454417549_SByte_t454417549_SByte_t454417549_SByte_t454417549PFvvEPK10MethodInfoPvPS4_
ePb:__Z18GetApplicationInfov
Sa:invoke_iiifii
wCg:_TokenizerStream_GetNextString_m451719883
Gdi:_BinaryReader_FillBuffer_m3097603599
CVg:_ReaderWriterLock_AcquireWriterLock_m724200662
QIm:__ZN6il2cpp6icalls8mscorlib6System8MonoType13IsPointerImplEP20Il2CppReflectionType
m5e:_Convert_ToDecimal_m2284596541
HGb:__ZN19CullingGroupManager17CullAndSendEventsERK22SceneCullingParametersiRK13CullingOutputRK8JobFence
Lsg:_String_FillStringChecked_m319226230
del:_SimpleCollator_FilterOptions_m4044781893
v3d:_XmlNodeReaderNavigator_GetDeclarationAttr_m4201616649
yIk:_HttpWebRequest_GetHeaders_m3197447662
MFh:_XmlSchemaObjectCollection_OnClear_m2560364073
Gra:__ZN9Transform30EnsureTransformHierarchyExistsEv
tyf:_Array_qsort_TisInt64_t909078037_m254768551_gshared
t6c:__ZN5physx2Sc14ConstraintCore15getPxConstraintEv
RAd:__ZNK8Collider12GetRigidbodyEv
NXi:_KeyContainerPermission_SetFlags_m138120612
uo:FUNCTION_TABLE_viiiiiiii
brl:_InternalEnumerator_1_get_Current_m1089848479_gshared
DKf:_Double_System_IConvertible_ToInt64_m3798425616
Wg:___cxa_find_matching_catch_4
BXo:__ZL74XmlSchemaDerivationMethod_t3165007540_CustomAttributesCacheGenerator_EmptyP21CustomAttributesCache
Ise:_XmlBaseConverter_ToInt64_m3799945595
WLb:__ZNSt3__26vectorINS_4pairIN4core12basic_stringIcNS2_20StringStorageDefaultIcEEEEPK17MessageIdentifierEENS_9allocatorISA_EEE12__move_rangeEPSA_SE_SE_
_zb:__ZN14qsort_internal17MedianOfThreeSwapIP17RODataReplacement19ROSorterReplacementEEvT_S4_S4_T0_
Hym:__ZNK15dense_hashtableINSt3__24pairIK10KeyWrapperIPK22Il2CppGenericParameterEP11Il2CppClassEES6_N6il2cpp5utils11PointerHashIS4_EEN14dense_hash_mapIS6_S9_SE_NS6_14EqualsComparerINS0_8equal_toIS5_EEEENS0_9allocatorISA_EEE9SelectKeyESJ_SL_E3endEv
IYb:__ZN17TransformInternal36OnScaleChangedCalculateTransformTypeE15TransformAccess
xna:__ZN17ArchiveFileSystem10ToAbsoluteEPKc
knj:_BinaryObject_Write_m2439385551
Hoj:_BigInteger_op_Modulus_m13450242
ZJh:_XsdBuilder_IsSkipableElement_m1343954215
DWi:_FileIOPermission_AddPathInternal_m4062248273
fJj:_DiagnosticsConfigurationHandler_GetSharedListeners_m1921093363
E0f:_Datatype_hexBinary_get_ValueType_m2979132141
nPd:__ZN19UnityConnectService15GetPlayerUserIdEv
Iwl:_InternalEnumerator_1_System_Collections_IEnumerator_get_Current_m2417091700_gshared
mPh:_HashCodeOfStringDelegate_BeginInvoke_m2490805899
z4e:_Convert_ToSingle_m915696580
I2e:_Convert_ToInt32_m2988544165
cBa:__ZN11LightProbes23VirtualRedirectTransferER18StreamedBinaryReadILb0EE
mXb:__ZL12SetPrefValueRKN4core12basic_stringIcNS_20StringStorageDefaultIcEEEERK9PrefValue
l3f:_Datatype_union_get_FacetsChecker_m3543184087
yXm:__ZNSt3__26vectorIN6il2cpp8metadata18GenericArrayMethodENS_9allocatorIS3_EEE7reserveEj
iHa:__ZN15NameToObjectMapI6ShaderNSt3__23mapI4PPtrIS0_EN4core12basic_stringIcNS5_20StringStorageDefaultIcEEEENS1_4lessIS4_EENS1_9allocatorINS1_4pairIKS4_S9_EEEEEENS1_8multimapIS9_S4_NSA_IS9_EENSC_INSD_IKS9_S4_EEEEEEE4FindERSK_
qIa:__ZN24GenerateTypeTreeTransfer21TransferResourceImageE19ActiveResourceImagePKcR13StreamingInfoPvjiPKN5Unity4TypeE
iFp:_glBlitFramebuffer__wrapper
V$n:__Z113RuntimeInvoker_Int32_t2071877448_RuntimeObject_Int32_t2071877448_Int32_t2071877448_Int64_t909078037_RuntimeObjectPFvvEPK10MethodInfoPvPS4_
kzj:_NegotiateAsyncResult__ctor_m2350576294
F8i:_ILGenerator_make_room_m373147874
RGd:__ZN5physx6shdfnd8PoolBaseINS_24NpPtrTableStorageManager8PtrBlockILi16EEENS0_19ReflectionAllocatorIS4_EEED2Ev
Epn:__ZN6il2cpp6icalls8mscorlib6System9Threading5Mutex20CreateMutex_internalEbP12Il2CppStringPb
Mzm:__ZN6il2cpp2vm5Class12GetFinalizerEP11Il2CppClass
BQe:_Boolean_CompareTo_m3691698947_AdjustorThunk
Owh:_Array_InternalArray__IndexOf_TisKeyValuePair_2_t888819835_m2660446234_gshared
pfg:_PKCS1_Verify_v15_m2571212635
kCa:__ZNSt3__212__deque_baseI18ReflectionProbeJobNS_9allocatorIS1_EEED2Ev
R0a:__ZN15dense_hashtableINSt3__24pairIKiN4core17string_with_labelILi1EEEEEi18SInt32HashFunctionN14dense_hash_mapIiS5_S7_NS0_8equal_toIiEE13stl_allocatorIS6_L18MemLabelIdentifier1ELi16EEE9SelectKeyESA_SD_E13set_empty_keyERKS6_
WFc:__ZN5physx2Sc9ShapeCore23setSimulationFilterDataERKNS_12PxFilterDataE
c0h:_TransitionTime_get_Day_m2388081942_AdjustorThunk
Eak:_Enumerator_System_Collections_IEnumerator_Reset_m865521125_AdjustorThunk
hzg:_FileCodeGroup_ParseXml_m1874382825
HIg:_DecoderReplacementFallbackBuffer__ctor_m1305504326
_6b:__Z13TransferFieldI8JSONReadLb0E27Converter_SimpleNativeClassI10RectOffsetEEvRK23StaticTransferFieldInfoR31RuntimeSerializationCommandInfoRT1_
Vsg:_String_IndexOf_m570401060
jMf:_Enum_System_IConvertible_ToDateTime_m2924690746
glm:_FileSystemEnumerableIterator_1_GetFullSearchString_m1508346836_gshared
K5m:__GLOBAL__sub_I_GenericMetadata_cpp
aGd:__ZN5physx7profile12MemoryBufferINS0_21WrapperNamedAllocatorEE5writeIyEEvRKT_
Rti:_ArraySegment_1_System_Collections_Generic_ICollectionU3CTU3E_Add_m1858285465_AdjustorThunk
gxm:_Physics_Internal_Raycast_m1071596076
tHb:__Z24CalculateSpotLightBoundsffRK10Matrix4x4fR15SpotLightBounds
oE:__ZN23CloudWebServicesManager23VirtualRedirectTransferER14SafeBinaryRead
XLn:__Z150RuntimeInvoker_Int32_t2071877448_RuntimeObject_Int32_t2071877448_Int32_t2071877448_RuntimeObject_Int32_t2071877448_Int32_t2071877448_Int32_t2071877448PFvvEPK10MethodInfoPvPS4_
gQh:_Ucs4Encoding_get_UCS4_3412_m1126744260
Nqb:__Z19ShouldTransferFieldR32SerializationCommandQueueBuilder17ScriptingClassPtriR18TransferField_InfoRK20CoreScriptingClasses
wMl:_Dictionary_2__ctor_m3404182622_gshared
TNe:_Uri_GetRelativeSerializationString_m1375946501
nEh:_Array_InternalArray__Insert_TisEphemeron_t1875076633_m1801598433_gshared
Qii:_MemoryStream_Read_m2289595005
xDl:_ListBuilder_1_get_Item_m2628732860_gshared
aga:__ZN26SinglePassStereoSupportExt21SetStereoMatrixCommonE21MonoOrStereoscopicEye24BuiltinShaderMatrixParamRK10Matrix4x4f
Vuk:_LocalVariableInfo_ToString_m1995184630
Ux:__ZN5audio5mixer22UpdateAudioMixerMemoryERKNS0_18AudioMixerConstantERNS0_16AudioMixerMemoryEfPN4FMOD6SystemEf
isn:__ZN6il2cpp6icalls6System6System3Net7Sockets15SocketException15WSAGetLastErrorEv
eLd:__ZL21InitializeCachedStripPv
tta:__ZNK6Camera22GetWorldToCameraMatrixEv
YUm:__ZN14dense_hash_mapI10KeyWrapperINSt3__24pairIPK10MethodInfoP11Il2CppClassEEEj17ReflectionMapHashIS8_ENS9_14EqualsComparerINS1_8equal_toIS8_EEEENS1_9allocatorINS2_IKS9_jEEEEE15set_deleted_keyERSH_
G9m:__ZN6il2cpp2vm12GenericClass11IsValueTypeEP18Il2CppGenericClass
vEi:_Enumerator__ctor_m3539306986_gshared
Kpb:__ZN13MonoBehaviour7SetNameEPKc
bch:_NetworkStream_get_Position_m2575302747
GWj:_CFRunLoop_get_CurrentRunLoop_m2534753840
xkf:_SerializationEvents_InvokeOnSerializing_m2143118582
dgp:_Ray_get_origin_m1676163607_AdjustorThunk
n9c:__ZN5physx6shdfnd8PoolBaseINS_2Sc26ActorPairContactReportDataENS0_19ReflectionAllocatorIS3_EEE15disposeElementsEv
Dql:_InternalEnumerator_1_System_Collections_IEnumerator_get_Current_m1497460596_AdjustorThunk
POl:_EqualityComparer_1_CreateComparer_m4290030782_gshared
FK:__GLOBAL__sub_I_runtime_shaders_shaderimpl_0_cpp
Rkp:_Map_InBounds_m2621776235
nZa:__ZN18AwakeFromLoadQueue5ClearEv
lud:__ZN5physx6shdfnd5ArrayIfNS0_19ReflectionAllocatorIfEEE8recreateEj
YFb:__ZNSt3__27__sort5IR15ReflProbeSorterPP15ReflectionProbeEEjT0_S6_S6_S6_S6_T_
KV:__ZN8Playable10DisconnectEPS_i
Kll:_InternalEnumerator_1_get_Current_m1526874475_AdjustorThunk
wFk:_FtpWebRequest_set_Credentials_m720584709
Nk:_glGenTransformFeedbacks
ima:__ZN13LoadOperationD2Ev
cgg:_KeyPairPersistence__ctor_m1817312194
Udd:__ZN5physx20PxsSolverCoreGeneral6createEv
zrc:__ZL29GeomOverlapCallback_SphereBoxRKN5physx10PxGeometryERKNS_11PxTransformES2_S5_PNS_2Gu12TriggerCacheE
ohk:_List_1_IsCompatibleObject_m3735785970_gshared
Irk:_TypeBuilder_get_AssemblyQualifiedName_m2097258567
XGa:__ZNSt3__27__sort5IRPFbRKNS_4pairIN9ShaderLab16FastPropertyNameEN18UnityPropertySheet11UnityTexEnvEEES8_EPS6_EEjT0_SD_SD_SD_SD_T_
hnm:_AudioClip__ctor_m1722546287
r3:__ZNK7ApiGLES18GetExtensionStringEv
bQf:_CompareInfo_GetHashCodeOfString_m1316578660
B$f:_Datatype_decimal_Compare_m995326423
uTn:__Z137RuntimeInvoker_Void_t1841601450_RuntimeObject_Int32_t2071877448_Int32U26_t455636984_Int16_t4041245914_Int16_t4041245914_Int16_t4041245914PFvvEPK10MethodInfoPvPS4_
Rrf:_RuntimeType_GetCustomAttributes_m1950602041
v$m:__ZN6il2cpp6icalls8mscorlib6System9Threading6Thread23ConstructInternalThreadEP12Il2CppThread
$6a:__ZNK12HandlerChain4SizeERK13FileEntryData
hjj:_RealProxy_GetObjectData_m1274810128
Cp:FUNCTION_TABLE_iiiiiiiii
KNc:__ZN5physx7NpCloth15setInertiaScaleEf
hvf:_DES_IsSemiWeakKey_m3967392585
M6k:_ReadOnlyCollection_1_System_Collections_ICollection_CopyTo_m2072417409_gshared
CQj:_ConnectionManagementSection_get_Properties_m3806413249
q0d:_XmlImplementation_CreateDocument_m1202067868
C9h:_Int16_System_IConvertible_ToUInt32_m883204517_AdjustorThunk
vzk:_MonoProperty_get_PropertyType_m1921201152
yxd:__ZN5physx6shdfnd4sortIPvNS0_4LessIS2_EENS0_19ReflectionAllocatorIN17PxcPoolMallocData10PoolData16EEEEEvPT_jRKT0_RKT1_j
Jec:__Z19sweepBox_SphereGeomRKN5physx10PxGeometryERKNS_11PxTransformERKNS_2Gu3BoxERKNS_6PxVec3EfRNS_10PxSweepHitENS_7PxFlagsINS_9PxHitFlag4EnumEtEEf
Pjn:_GC_allochblk
CZa:__Z15UnloadGameScenev
v$e:_SortedList_Synchronized_m1768633674
Ptp:__ZNKSt3__28time_getIwNS_19istreambuf_iteratorIwNS_11char_traitsIwEEEEE6do_getES4_S4_RNS_8ios_baseERjP2tmcc
wLp:_glCheckFramebufferStatus__wrapper
rvd:__ZNK5physx13GuMeshFactory15getHeightFieldsEPPNS_13PxHeightFieldEjj
iYa:__ZNSt3__26vectorIN30RuntimeInitializeOnLoadManager15ClassMethodInfoE13stl_allocatorIS2_L18MemLabelIdentifier13ELi16EEE7reserveEj
ECd:__ZN15CapsuleCollider9SetRadiusEf
E_c:__ZN5physx2Cm20visualizeJointFramesERNS0_12RenderOutputEfRKNS_11PxTransformES5_
uXe:_CaseInsensitiveHashCodeProvider__ctor_m3775398833
l7g:_Compiler_CompileAttribute_m2873978455
cjd:__ZN5physx22PxcContactPlaneCapsuleERKNS_2Gu13GeometryUnionES3_RKNS_11PxTransformES6_RKfRNS_10PxcNpCacheERNS0_13ContactBufferE
Ghi:_FileStream_Write_m368821387
uQm:__ZNK15dense_hashtableINSt3__24pairIK10KeyWrapperIPK10Il2CppTypeEjEES6_N6il2cpp8metadata14Il2CppTypeHashEN14dense_hash_mapIS6_jSB_NS6_14EqualsComparerINSA_26Il2CppTypeEqualityComparerEEENS0_9allocatorIS8_EEE9SelectKeyESF_SH_E13find_positionERS7_
jtb:__ZN8Material10SetTextureEN9ShaderLab16FastPropertyNameEP7Texture
Vfb:__Z18Transfer_BlittableI24GenerateTypeTreeTransferLb0E8Vector2fEvRK29SerializationCommandArgumentsR31RuntimeSerializationCommandInfo
Pzh:_Array_InternalArray__ICollection_Add_TisDateTime_t693205669_m3559987213_gshared
zei:_CStreamWriter_InternalWriteString_m2976066110
Alf:_LongList__ctor_m2660354693
MTl:_SectionGroupInfo_get_Groups_m2080419472
nlc:__ZN5physx3Cct17CapsuleController9setRadiusEf
Byh:_Task_FromCancellation_TisRuntimeObject_m3194616731_gshared
TU:__ZnwjRKSt9nothrow_t
Hng:___DTString_SkipWhiteSpaceCurrent_m1956883273_AdjustorThunk
Jai:_Int32_System_IConvertible_ToSingle_m4225885999_AdjustorThunk
VDd:__ZN9Rigidbody17MainThreadCleanupEv
bmh:_X500DistinguishedName_Decode_m3070515374
EFa:__ZN14SafeBinaryRead19TransferSTLStyleMapINSt3__23mapI39DeprecatedFastPropertyNameSerializationN18UnityPropertySheet11UnityTexEnvENS1_4lessIS3_EENS1_9allocatorINS1_4pairIKS3_S5_EEEEEEEEvRT_17TransferMetaFlags
drp:__ZNKSt3__27collateIwE7do_hashEPKwS3_
IUl:_SectionGroupInfo_GetConfigInfo_m1968621232
Wmf:_ObjectManager_RaiseOnDeserializedEvent_m512850179
wKc:__ZN5physx9NpPhysics26unregisterDeletionListenerERNS_18PxDeletionListenerE
FLe:_RegexNode_UseOptionR_m326973074
NZb:__Z35UnregisterSerializationCacheBuilderPFv17ScriptingClassPtrR23CachedSerializationDataRbE
Yge:_XPathException_GetObjectData_m3640268612
jua:__Z30GetBuiltinVectorParamArraySize24BuiltinShaderVectorParam
d_d:_XmlLoader_CreateInnerXmlReader_m1874524402
cIn:__Z76RuntimeInvoker_Int64_t909078037_RuntimeObject_SByte_t454417549_RuntimeObjectPFvvEPK10MethodInfoPvPS4_
I1f:_Datatype_negativeInteger_get_FacetsChecker_m2741931597
jdl:_CodePointIndexer__ctor_m797342079
oGm:__ZN6il2cpp2vm13MetadataCache28GetMethodDefinitionFromIndexEi
opf:_RuntimeType_MakeArrayType_m3678084225
U5e:_DateTimeParse_GetDayOfYN_m715232560
yTf:_DateTimeFormatInfo_internalGetMonthName_m1380767586
bLa:__ZN18StreamedBinaryReadILb0EE21TransferSTLStyleArrayI13dynamic_arrayI7Hash128Lj8EEEEvRT_17TransferMetaFlags
aRl:_GenericComparer_1_Compare_m3311684598_gshared
rLk:_LinuxNetworkInterface__ctor_m4238128715
SLa:__ZN21RendererUpdateManager11AddRendererER8Renderer
SPb:__Z13RegisterClassI15ResourceManagerEvv
_Cc:__ZNK5physx18NpArticulationLink15getArticulationEv
PZo:__ZL64XmlSchemaUse_t3553149267_CustomAttributesCacheGenerator_RequiredP21CustomAttributesCache
anh:_X509Certificate2Enumerator_System_Collections_IEnumerator_get_Current_m3551585134
Cab:__Z35Transfer_Blittable_FixedBufferFieldI14SafeBinaryReadsEvRK29SerializationCommandArgumentsR31RuntimeSerializationCommandInfo
mRa:__ZN14SafeBinaryRead21TransferSTLStyleArrayI13dynamic_arrayIfLj4EEEEvRT_17TransferMetaFlags
vgn:__ZN6il2cpp5utils11StringUtils11Utf16ToUtf8EPKDs
NXa:__ZN18StreamedBinaryReadILb0EE21TransferSTLStyleArrayINSt3__26vectorIN15ResourceManager10DependencyE13stl_allocatorIS5_L18MemLabelIdentifier52ELi16EEEEEEvRT_17TransferMetaFlags
ROd:__ZN11UnityEngine15PlatformWrapper20IsRootedOrJailbrokenEv
Ewb:__ZZ23InitPlayerLoopCallbacksvEN52PreLateUpdateScriptRunBehaviourLateUpdateRegistrator7ForwardEv
Aui:_ConcurrentDictionary_2_TryGetValue_m3944320056_gshared
IZi:_NumberFormatter_set_CurrentCulture_m2777724942
Gmh:_X509Certificate2_GetNameInfo_m402390219
pHb:__Z33IntersectAABBPlaneBoundsOptimizedRK4AABBPKN4math7_float4Ei
D_:__ZN9GfxDevice19EndGeometryJobFrameEv
Efb:__ZN27Converter_SimpleNativeClassI17AnimationCurveTplIfEE17ScriptingToNativeER18ScriptingObjectPtrPS1_
zhk:_List_1_System_Collections_ICollection_CopyTo_m834453045_gshared
L5e:_DateTime_get_UtcNow_m1309841468
QZf:_TimeSpanRawInfo_get_NegativeInvariant_m2967863427_AdjustorThunk
BDc:__ZN5physx2Sc15CoreInteraction17isCoreInteractionEPNS0_11InteractionE
vqn:__ZN6il2cpp8metadata24Il2CppGenericInstCompare7CompareERK10KeyWrapperIPK17Il2CppGenericInstES8_
VFd:__ZThn132_N5physx7profile8ZoneImplINS_28PxProfileNameProviderForwardEED0Ev
EKo:__ZL69DebuggerBrowsableAttribute_t1386379234_CustomAttributesCacheGeneratorP21CustomAttributesCache
V9b:__ZN5physx3Cct13BoxController17setHalfSideExtentEf
ewh:_Array_IndexOf_TisRuntimeObject_m1148150237_gshared
mCm:__ZNK15dense_hashtableINSt3__24pairIK10KeyWrapperIPK19Il2CppGenericMethodEPK26Il2CppGenericMethodIndicesEES6_N6il2cpp8metadata23Il2CppGenericMethodHashEN14dense_hash_mapIS6_SA_SE_NS6_14EqualsComparerINSD_26Il2CppGenericMethodCompareEEENS0_9allocatorISB_EEE9SelectKeyESI_SK_E5beginEv
CIi:_Dictionary_2_FindEntry_m3797812493_gshared
pRb:__ZNK17AnimationCurveTplIfE8EvaluateEfPNS0_5CacheE
Ivb:__Z31ManagerContextInitializeClassesv
$Yi:_NumberFormatter_AppendIntegerString_m868842252
OEh:_Array_InternalArray__Insert_TisState_t563545493_m411074175_gshared
bBb:__Z20LightAttenuateApproxRKfS0_
oja:__ZN9Scripting30SetCachedPtrOnScriptingWrapperE18ScriptingObjectPtrP6Object
ajb:__Z18Transfer_BlittableI19StreamedBinaryWriteILb0EELb0EdEvRK29SerializationCommandArgumentsR31RuntimeSerializationCommandInfo
i$d:_XmlElement_set_InnerXml_m2688686740
xYe:_ByteEqualityComparer_Equals_m1039387571
Szf:_Array_Sort_TisWin32_IP_ADAPTER_ADDRESSES_t680756680_m2836334756_gshared
kwn:__Z107RuntimeInvoker_Boolean_t3825574718_RuntimeObject_SByte_t454417549_TimeZoneInfoU26_t1715422761_RuntimeObjectPFvvEPK10MethodInfoPvPS4_
aZe:_Hashtable_putEntry_m2930206103
kya:__ZN18BlockRangeInternal16PopLastNodeIndexEP10BlockRangeji
c7h:_Version__ctor_m2972638031
kOc:__ZN5physx7NpCloth19setCollisionSpheresEPKNS_22PxClothCollisionSphereEj
Gfl:_Kernel_MultiplyByDword_m155008287
IQa:__ZN4MeshD0Ev
nUd:__ZL42RequestRecreateEyeTexturesBeforeNextUpdatev
F3f:_Datatype_unsignedInt_get_TypeCode_m3989026591
t2:__ZNK6Camera20IsCurrentlyRenderingEv
O0h:_TypeSpec_Resolve_m1841079937
wAj:_SslStreamBase_Read_m1036897444
B3b:__Z18Transfer_BlittableI9JSONWriteLb0EdEvRK29SerializationCommandArgumentsR31RuntimeSerializationCommandInfo
awa:__ZN6Camera8TransferI19StreamedBinaryWriteILb0EEEEvRT_
ozg:_GacInstalled_Equals_m2767348069
bnp:_wctomb
Fqf:_RuntimeType_GetNestedType_m3556372426
GCf:_AsyncTaskMethodBuilder_1_Start_TisRuntimeObject_m1187880960_gshared
u_b:__Z27Camera_CUSTOM_GetAllCamerasP11Il2CppArray
id:___cxa_rethrow
mwd:__ZN5physx20InternalTriangleMesh17allocateFaceRemapEv
Lwg:_PermissionSet_ToXml_m3312410464
e5b:__Z18Transfer_BlittableI8JSONReadLb1EhEvRK29SerializationCommandArgumentsR31RuntimeSerializationCommandInfo
NGp:_glBindRenderbuffer__wrapper
mJe:_Regex_System_Runtime_Serialization_ISerializable_GetObjectData_m4035555909
sYh:_TimeSpan_Add_m3228293154
wIi:_Dictionary_2_ContainsKey_m551967442_gshared
jKb:__ZN13MonoBehaviour8SetClassE17ScriptingClassPtr18ScriptingObjectPtr
Prj:_RC4__cctor_m523650203
T1c:__ZNK5physx7NpScene26getBounceThresholdVelocityEv
r8c:__ZN5physx6shdfnd8PoolBaseINS_2Sc12SimStateDataENS0_19ReflectionAllocatorIS3_EEE15disposeElementsEv
P7a:__ZN20LocalFileSystemPosix4ReadER13FileEntryDatayyPvPy
DEb:__ZNSt3__211__sift_downIRN23ForwardShaderRenderLoop18RenderObjectSorterILb0EEEP21ForwardRenderPassDataEEvT0_S7_T_NS_15iterator_traitsIS7_E15difference_typeES7_
Xni:_UnmanagedMemoryStream_get_Position_m4093669769
_pb:__ZN13MonoBehaviour5DoGUIENS_13GUILayoutTypeEii
Zka:__ZNK12TLSAllocatorI14StackAllocatorE8ContainsEPKv
pVa:__ZN11TimeManager8TransferI18StreamedBinaryReadILb0EEEEvRT_
dwd:__ZNK5physx13GuMeshFactory19getNbTriangleMeshesEv
K5a:__ZN15SerializeTraitsINSt3__23mapI4PPtrI6ShaderEN4core12basic_stringIcNS5_20StringStorageDefaultIcEEEENS0_4lessIS4_EENS0_9allocatorINS0_4pairIKS4_S9_EEEEEEE8TransferI24GenerateTypeTreeTransferEEvRSH_RT_
Bvf:_DESTransform__cctor_m1179482644
VQa:__ZN14BlendShapeData8TransferI14SafeBinaryReadEEvRT_
ifc:__ZN5physx2Gu15getPolygonIndexERKNS0_13PolygonalDataEPNS0_12SupportLocalERKNS_6shdfnd3aos5Vec3VE
oLe:_RegexRunner_Crawl_m3720684328
u_g:_XPathDocumentNavigator_IsSamePosition_m3489840602
awm:_CustomEventData_AddString_m1682987767
LLf:_Enum_Format_m2294492821
kpd:__ZN5physx36normalizePartitionsWithArticulationsERNS_6shdfnd5ArrayIjNS0_19ReflectionAllocatorIjEEEEPNS_23PxcSolverConstraintDescEPKNS_13PxcSolverBodyEjjS5_Pjj
bIa:__ZN7Texture25ReloadFromStorageIfNeededEPvb
v2b:__Z35Transfer_Blittable_FixedBufferFieldI9JSONWritehEvRK29SerializationCommandArgumentsR31RuntimeSerializationCommandInfo
RHg:_Decoder_GetCharCount_m427443384
CMj:_DeflateStreamNative_Create_m1396377879
Q$i:_OverflowException__ctor_m2564269836
Nof:_RuntimeFieldHandle_SetValueInternal_m3683398867
m5c:__ZN5physx2Sq17SceneQueryManager17processSimUpdatesEv
oNe:_Uri_CheckForUnicode_m1884258463
Che:_XPathNavigatorKeyComparer_System_Collections_IEqualityComparer_GetHashCode_m1106969561
Dmj:___BinaryWriter_WriteBoolean_m3235957763
x_m:__ZN6il2cpp6icalls8mscorlib6SystemL15ThrowNoWideningEv
Vyc:__ZN5physx6shdfnd5ArrayIPvNS0_19ReflectionAllocatorINS_13NpRigidStaticEEEE15growAndPushBackERKS2_
xRb:__ZNK23TransformChangeDispatch24GetChangeMaskForInterestENS_12InterestTypeE
fBp:dynCall_viiiiiiiiiii
ywf:_Array_InternalArray__set_Item_TisHeaderVariantInfo_t2058796272_m1316157791_gshared
t4c:__ZN5physx10PxsContext25setVisualizationParameterENS_24PxVisualizationParameter4EnumEf
pZk:_ReadOnlyCollection_1_System_Collections_ICollection_get_SyncRoot_m82731682_gshared
hOb:__ZL10KeyHandleriPK23EmscriptenKeyboardEventPv
VIk:_U3CU3Ec__DisplayClass241_0_U3CBeginGetResponseU3Eb__0_m1752057644
WFa:__ZNSt3__26__treeINS_12__value_typeI39DeprecatedFastPropertyNameSerializationfEENS_19__map_value_compareIS2_S3_NS_4lessIS2_EELb1EEENS_9allocatorIS3_EEE7destroyEPNS_11__tree_nodeIS3_PvEE
$ec:__ZN24ConvexVsHeightfieldSweepC2ERN5physx2Gu15HeightFieldUtilERKNS1_14ConvexHullDataERKNS0_11PxMeshScaleERKNS0_11PxTransformESC_RKNS0_6PxVec3EfNS0_7PxFlagsINS0_9PxHitFlag4EnumEtEEfbb
O$e:_SortedListEnumerator_get_Key_m1579068782
aZh:_TimeSpan_op_Addition_m3421801803
SXf:_TextInfo_ToLowerAsciiInvariant_m3544209121
Ueb:__ZL26Transfer_SimpleNativeClassI17RemapPPtrTransfer10RectOffsetLb0EEvRK29SerializationCommandArgumentsR31RuntimeSerializationCommandInfo
mVb:__ZN16GraphicsSettings12CleanupClassEv
mWk:_Enumerator_System_Collections_IEnumerator_get_Current_m2381241800_AdjustorThunk
tYi:_NotSupportedException__ctor_m836173213
fJp:_glUniform1fv__wrapper
TCh:_Array_InternalArray__ICollection_CopyTo_TisTagInfo_t1244462138_m1162973671_gshared
OFk:_FtpWebRequest_InFinalState_m3996200151
naf:_DateTime_System_IConvertible_ToInt32_m2789391054_AdjustorThunk
PNl:_EqualityComparer_1_CreateComparer_m3811803183_gshared
veg:_ASN1Convert_FromInt32_m1541043489
b3e:_Convert_ToByte_m1008221737
iFf:_Array_InternalArray__get_Item_TisXPathResultType_t1521569578_m3711281163_gshared
Rcl:_Win32RegistryApi_RegQueryValueEx_m947253854
k6d:_XmlReaderSettings_set_CheckCharacters_m866972330
Pmc:__ZNK5physx2Cm12RenderBuffer8getTextsEv
X1a:__ZNSt3__26vectorIN9ShaderLab20SerializedSubProgram13BufferBindingENS_9allocatorIS3_EEEC2ERKS6_
Huf:_CryptoStream_ReadAsync_m2488699695
C4m:__ZN15dense_hashtableINSt3__24pairIK10KeyWrapperINS1_IPKcS4_EEEiEES6_24NamespaceAndNamePairHashN14dense_hash_mapIS6_iS9_NS6_14EqualsComparerI26NamespaceAndNamePairEqualsEENS0_9allocatorIS8_EEE9SelectKeyESD_SF_E4findERS7_
x1d:_SingleObjectEnumerator_MoveNext_m877245040
wch:_Socket_Close_m2025852140
fua:__ZNK9ShaderLab20ShaderBlendStateDesc15ToGfxBlendStateEPK19ShaderPropertySheetS3_R13GfxBlendState
oEk:_ResourceSet_GetString_m1844724967
yad:__ZN5physx2Sq8AABBTree11shiftOriginERKNS_6PxVec3E
r5a:__ZN9ShaderLab9IntShaderC2Ev
UIm:__ZN6il2cpp6icalls8mscorlib6SystemL9IsPrivateEPK9EventInfo
oyd:__ZN5physx11AdjacenciesD2Ev
t1d:_SmallXmlNodeList_Insert_m3647810138_AdjustorThunk
fEk:_ResourceSet_CommonInit_m4203158591
zHj:_TypeDescriptionNode_GetTypeDescriptor_m709836588
V_c:__ZN5physx6shdfnd8PoolBaseINS_2Sc24ElementInteractionMarkerENS0_19ReflectionAllocatorIS3_EEE12allocateSlabEv
T9c:__ZN5physx2Sq16BucketPrunerCore11shiftOriginERKNS_6PxVec3E
Ibe:_NodeData_CopyTo_m1847582135
Wok:_List_1_GetEnumerator_m1710004748_gshared
vMm:_il2cpp_gc_disable
b0m:__ZN6il2cpp6icalls8mscorlib6System2IO6MonoIO13FindFirstFileEP12Il2CppStringPS6_PiS8_
F1b:__ZN5Unity9rapidjson6WriterI16TempBufferWriterNS0_4UTF8IcEES4_13JSONAllocatorE11WriteUint64Ey
Brp:__ZNKSt3__27num_getIcNS_19istreambuf_iteratorIcNS_11char_traitsIcEEEEE23__do_get_floating_pointIeEES4_S4_S4_RNS_8ios_baseERjRT_
AFp:_glGetShaderInfoLog__wrapper
cZe:_Hashtable_Clone_m165405752
$Gj:_TypeDescriptionProvider_GetReflectionType_m2751304960
Yii:_MemoryStream_WriteByte_m3737173846
H4c:__ZN5physx6shdfnd5ArrayIPNS_3Scb5ShapeENS0_19ReflectionAllocatorIS4_EEE6resizeEjRKS4_
Pcl:_Win32RegistryApi_RegQueryValueEx_m4278124034
ICd:__ZN5physx14PxRigidBodyExt23addLocalForceAtLocalPosERNS_11PxRigidBodyERKNS_6PxVec3ES5_NS_11PxForceMode4EnumEb
rym:__ZN13Il2CppHashMapIPK22Il2CppGenericParameterP11Il2CppClassN6il2cpp5utils11PointerHashIS1_EENSt3__28equal_toIS2_EENS9_9allocatorINS9_4pairIK10KeyWrapperIS2_ES4_EEEEEC2EjRKS8_RKSB_
kOd:__ZN11UnityEngine15PlatformWrapper19GetPhysicalMemoryMBEv
gqa:__Z15CreateDirectoryRKN4core12basic_stringIcNS_20StringStorageDefaultIcEEEE
$Ca:__Z21CalculateGlobalMatrix23TransformAccessReadOnly
yyh:_Task_FromCancellation_TisInt32_t2071877448_m200848717_gshared
pGo:__ZL70InternalsVisibleToAttribute_t1037732567_CustomAttributesCacheGeneratorP21CustomAttributesCache
uVa:__ZNK13BuildSettings22GetTypeVirtualInternalEv
B:tempBigIntD
iLg:_UTF8Encoding__ctor_m3336862259
yPg:_UTF32Encoding_GetHashCode_m4205784236
qEe:_GroupCollection_get_Item_m1747374437
$8e:_DateTime_ToUniversalTime_m1815024752
cbd:__ZN5physx2Cm10FanoutTaskC2EPKc
B7c:__ZNK5physx2Sc5Scene17prefetchForRemoveERKNS0_8BodyCoreE
ZRg:_ExecutionContext_Capture_m282038903
QPb:__Z13RegisterClassI14RenderSettingsEvv
n0m:__ZN6il2cpp2vm9Exception20GetOverflowExceptionEv
pZo:__ZL127XmlSchemaSimpleTypeList_t2170323082_CustomAttributesCacheGenerator_XmlSchemaSimpleTypeList_t2170323082____ItemType_PropertyInfoP21CustomAttributesCache
QYh:_TimeSpan_Subtract_m3597791685_AdjustorThunk
swc:__ZN5physx2Sc8RigidSimD2Ev
eXh:_WaitHandle_WaitOneNative_m608816303
kJh:_XmlUntypedConverter_ToDouble_m1089911033
Qpj:_PrimalityTests_RabinMillerTest_m2029846965
b4d:_XmlNodeReader_SetEndOfFile_m2874917083
bmb:__Z29Transfer_Blittable_ArrayFieldI18StreamedBinaryReadILb1EE5RectTIfEEvRT_R9ArrayInfoRK23StaticTransferFieldInfo
Kgh:_WebRequest_PopulatePrefixList_m410745537
V3c:__ZNK5physx13NpVolumeCache7raycastERKNS_6PxVec3ES3_fRNS_13PxHitCallbackINS_12PxRaycastHitEEENS_7PxFlagsINS_9PxHitFlag4EnumEtEERKNS_17PxQueryFilterDataEPNS_21PxQueryFilterCallbackE
c$:__ZNK9GfxDevice27GetActiveRenderSurfaceWidthEv
p9l:_PKCS12_get_Keys_m1312614820
yld:__ZN5physx16PxsIslandManagerC2EjRNS_19PxcScratchAllocatorEPNS_2Cm13EventProfilerE
COd:__ZN11UnityEngine15PlatformWrapper28GetCleanGraphicsFixedVersionEv
izi:_Enumerator_MoveNext_m1909606490_gshared
Aji:_Path_CheckInvalidPathChars_m53672918
Lte:_XmlBaseConverter_GMonthDayToString_m2193213456
jKl:_Dictionary_2_Initialize_m3609240515_gshared
xJh:_XmlUntypedConverter_ToString_m2716620360
jui:_DictionaryEnumerator_get_Entry_m2554486071_gshared
pid:__ZN5physx13ActorAABBTask11runInternalEv
yXh:_WaitHandleCannotBeOpenedException__ctor_m935135748
HVj:_FtpDataStream_EndRead_m85311356
nTa:__ZN18ProceduralMaterial17MainThreadCleanupEv
Atf:_Aes__ctor_m3396468388
Oxp:__ZNSt3__26locale5__imp7installINS_7codecvtIwc11__mbstate_tEEEEvPT_
lDf:_ThrowHelper_IfNullAndNullsAreIllegalThenThrow_TisXmlSchemaObjectEntry_t2510586510_m82835532_gshared
M8:__ZN6prcoreL17RemapGenericFloatI18TexFormatRGBAFloat17TexFormatRGBAHalfEEvPKNS_9InnerInfoE
Eue:_XmlDateTimeConverter_ChangeType_m821011890
lXc:__ZN5physx14NpRigidDynamic18setKinematicTargetERKNS_11PxTransformE
KXj:_CFWebProxy_IsBypassed_m1359120371
BKa:__ZN10GISettings8TransferI14SafeBinaryReadEEvRT_
Sn:FUNCTION_TABLE_vifff
qkp:_BombExplodedHandler__ctor_m2174285080
bLb:__ZN19CustomRenderTexture12ClearGPUDataEv
d7j:_Enumerator_MoveNextRare_m1273098188_AdjustorThunk
J7n:__Z86RuntimeInvoker_Int32_t2071877448_DateTimeOffset_t1362988906_DateTimeOffset_t1362988906PFvvEPK10MethodInfoPvPS4_
VDa:__ZN13RenderTexture13ApplySettingsEv
mEp:_glVertexAttrib4f__wrapper
_Km:__ZL10initializePv
lf:_JS_Sound_SetListenerPosition
Kn:FUNCTION_TABLE_fiffi
jrn:__ZN6il2cpp6icalls8mscorlib6System6Object15MemberwiseCloneEP12Il2CppObject
Nvh:_Array_FindIndex_TisRuntimeObject_m4149904176_gshared
b9f:_Parser_ParseReaderNode_m2488397405
L2m:__ZN6il2cpp2vm13LivenessState13TraverseArrayEP11Il2CppArrayPS1_
ENc:__ZN5physx7NpCloth21setLinearInertiaScaleENS_6PxVec3E
Uwf:_Array_InternalArray__set_Item_TisInternalPrimitiveTypeE_t3020811655_m2316068393_gshared
VGg:_TermInfoDriver_ReadKeyInternal_m3966448064
s6h:_UnauthorizedAccessException__ctor_m3480402128
xfl:_BigInteger_op_Modulus_m3788401748
Xcj:_ArgInfo_GetInOutArgs_m3184132151
x$a:__ZNK8Material16MarkDependenciesER27GarbageCollectorThreadState
aFg:_String__ctor_m2799310185
SDd:__ZN5Unity10FastCookerD2Ev
E3b:__ZL17Transfer_GUIStyleI9JSONWriteLb0EEvRK29SerializationCommandArgumentsR31RuntimeSerializationCommandInfo
E5o:__ZL128DefaultTraceListener_t1568159610_CustomAttributesCacheGenerator_DefaultTraceListener_t1568159610____AssertUiEnabled_PropertyInfoP21CustomAttributesCache
yWh:_Timer_Init_m158808653
VBb:__Z28GetHaloVertexPositionsStereoP8Vector3fRKS_S2_f
vJd:__ZN17TriggerStayStates20executeDeferredEraseEv
B9:__ZN6prcoreL27StretchGenericFloatBilinearI15TexFormatRGHalfEEvPKNS_9InnerInfoE
m_g:_XPathDocumentNavigator_get_NameTable_m653729407
AK:__GLOBAL__sub_I_runtime_misc_0_cpp
ZHm:__ZN6il2cpp6icalls8mscorlib6SystemL16CheckMemberMatchI9FieldInfoNS_5utils10functional6FilterINSt3__212basic_stringIcNS8_11char_traitsIcEENS8_9allocatorIcEEEENS5_13VmStringUtils21CaseSensitiveComparerEEEEEbPKT_PK11Il2CppClassSN_iRKT0_
eXo:__ZL109XmlSchema_t880472818_CustomAttributesCacheGenerator_XmlSchema_t880472818____AttributeFormDefault_PropertyInfoP21CustomAttributesCache
nzl:_Predicate_1_BeginInvoke_m767759683_gshared
_ug:_SNIP_IsSubsetOf_m1312559857
Ihd:__ZN5physx14PxsAABBManager22processAggregateSingleERKNS_19AggregateSortedDataERKNS_9AggregateEjPNS_2Cm10BitMapBaseINS_6shdfnd9AllocatorEEE
knb:__Z18Transfer_BlittableI18StreamedBinaryReadILb0EELb1E9BoundsIntEvRK29SerializationCommandArgumentsR31RuntimeSerializationCommandInfo
lua:__ZNK9ShaderLab7Program21GetMatchingSubProgramEPK6ShaderPKNS_4PassERK16ShaderKeywordSetjPS7_R19ShaderSnippetResult
o9f:_ParticleContentValidator_InitValidation_m3203296595
tmd:__ZN5physx2Sc17ParticleSystemSim20scheduleCollisionCpuERNS0_16InteractionSceneERKNS_6shdfnd5ArrayIPS1_NS4_19ReflectionAllocatorIS6_EEEERNS_10PxBaseTaskE
Ygf:_ObjectReader_GetSimplyNamedTypeFromAssembly_m303544277
VJe:_LowerCaseMapping__ctor_m308930688_AdjustorThunk
Vym:__ZN15dense_hashtableINSt3__24pairIK10KeyWrapperIPK22Il2CppGenericParameterEP11Il2CppClassEES6_N6il2cpp5utils11PointerHashIS4_EEN14dense_hash_mapIS6_S9_SE_NS6_14EqualsComparerINS0_8equal_toIS5_EEEENS0_9allocatorISA_EEE9SelectKeyESJ_SL_E3endEv
IFg:_String_Remove_m3580114465
THn:__Z172RuntimeInvoker_RuntimeObject_RuntimeObject_RuntimeObject_RuntimeObject_RuntimeObject_StreamingContext_t1417235061_RuntimeObject_RuntimeObject_RuntimeObject_SByte_t454417549PFvvEPK10MethodInfoPvPS4_
JC:__ZN11AudioSource24ClearExtensionPropertiesE12PropertyName
K3a:__ZN9ShaderLab22SerializedBindChannels8TransferI19StreamedBinaryWriteILb0EEEEvRT_
OHe:_RegexCompiler_GenerateGo_m2715159166
ddb:__ZN15SerializeTraitsI5RectTIiEE8TransferI14SafeBinaryReadEEvRS1_RT_
OCn:__Z82RuntimeInvoker_Int32_t2071877448_RuntimeObject_Int32_t2071877448_Int16_t4041245914PFvvEPK10MethodInfoPvPS4_
RAj:_InstanceDescriptor__ctor_m2253228209
kHm:__ZN6il2cpp6icalls6System6System3Net7Sockets6Socket15Socket_internalEP12Il2CppObjectNS4_13AddressFamilyENS4_10SocketTypeENS4_12ProtocolTypeEPi
DFa:__ZNSt3__26__treeINS_12__value_typeIN4core12basic_stringIcNS2_20StringStorageDefaultIcEEEES6_EENS_19__map_value_compareIS6_S7_NS_4lessIS6_EELb1EEE13stl_allocatorIS7_L18MemLabelIdentifier1ELi16EEE7destroyEPNS_11__tree_nodeIS7_PvEE
Whn:__ZN6il2cpp2vm8Profiler7GCEventE13Il2CppGCEvent
w_m:__ZN6il2cpp6icalls8mscorlib6SystemL16ThrowInvalidCastEPK11Il2CppClassS5_
I4:__Z13IsDepthFormat14GraphicsFormat
EWa:__ZN12AspectRatios8TransferI24GenerateTypeTreeTransferEEvRT_
Xnc:__Z12FormatBufferPciPKcz
mcc:__ZN37ConvexVsMeshContactGenerationCallback10processHitERKN5physx12PxRaycastHitERKNS0_6PxVec3ES6_S6_RfPKj
ag:_emscripten_glUniform1fv
zod:__ZL28removeBrokenEdgesFromIslandsPKjjS0_jS0_RKN5physx11NodeManagerERNS1_11EdgeManagerERNS1_13IslandManagerERNS1_2Cm10BitMapBaseINS1_6shdfnd9AllocatorEEEPSD_
gzm:__ZN6il2cpp2vm5Class13GetArrayClassEP11Il2CppClassj
Htb:__ZN19RuntimeSceneManager18LoadSceneAsyncIntoER10UnitySceneRKN4core12basic_stringIcNS2_20StringStorageDefaultIcEEEENS_11LoadingModeEb
Xn:FUNCTION_TABLE_iifff
La:invoke_difi
TAb:__Z30IntersectTransformedAABBSphereRK4AABBRK10Matrix4x4f13TransformTypeRK6Sphere
jHp:_glDeleteSamplers__wrapper
uU:__ZL50StaticRegisterSceneLoadedCallback_LightmapSettingsPv
qHn:__Z119RuntimeInvoker_Void_t1841601450_RuntimeObject_RuntimeObject_RuntimeObject_RuntimeObject_Int32_t2071877448_RuntimeObjectPFvvEPK10MethodInfoPvPS4_
gn:FUNCTION_TABLE_iiffi
itj:_Alert_inferAlertLevel_m721669111
bDf:_ThrowHelper_IfNullAndNullsAreIllegalThenThrow_TisRuntimeObject_m2993502500_gshared
bOc:__ZNK5physx7NpCloth24getSeparationConstraintsEPNS_35PxClothParticleSeparationConstraintE
wqe:_XdrValidator_CheckValue_m2484350937
g4:__ZN21GLESGpuProgramApplier11ApplyVectorERKN20GpuProgramParameters14ValueParameterEPK8Vector4ft
CNd:__ZN22BaseUnityConnectClient17SaveSessionValuesEv
qO:__ZN19RuntimeSceneManager19UnloadSceneInternalEP10UnityScene
vjf:_ObjectWriter_Serialize_m2284077386
kHb:__ZN29ExtractProjectionPlanesHelperILb1EE5ApplyERK10Matrix4x4fP5Plane
bpd:__ZN5physx6shdfnd5ArrayINS_17PxcSolverBodyDataENS0_16AlignedAllocatorILj128ENS0_19ReflectionAllocatorIS2_EEEEE6resizeEjRKS2_
Z8f:_Numeric2FacetsChecker_MatchEnumeration_m2346161128
Bac:__ZN5physx2Cm12RenderOutputlsEj
rLb:__ZN6Camera34UpdatePreviousViewProjectionMatrixEv
aFa:__ZN9ShaderLab11ShaderState25RemoveUnsupportedProgramsEPK6Shader
E4a:__ZL23AddGpuProgramParametersR20GpuProgramParametersRKNSt3__26vectorIN9ShaderLab20SerializedSubProgram15MatrixParameterENS1_9allocatorIS5_EEEERKNS2_INS4_15VectorParameterENS6_ISB_EEEEiP16PropertyNamesSet
C5d:_XmlReader_ReadEndElement_m2186922488
CNf:_Exception_GetMessageFromNativeResources_m3142851929
HFf:_Array_InternalArray__IReadOnlyList_get_Item_TisEntry_t3540233226_m1866598340_gshared
jwh:_Array_IndexOf_TisUInt16_t986882611_m1224514913_gshared
ONh:_Parser_ParseTimeAndZoneAndWhitespace_m2908515596_AdjustorThunk
cEo:__ZL62_ConstructorBuilder_t1236878896_CustomAttributesCacheGeneratorP21CustomAttributesCache
oYb:__Z26scripting_class_has_parent17ScriptingClassPtrS_
ZGe:_RegexCharClass_IsMergeable_m4152220892
OFf:_Array_InternalArray__IReadOnlyList_get_Item_TisKeyValuePair_2_t3749587448_m350009048_gshared
Ouk:_InvalidFilterCriteriaException__ctor_m3626671395
xT:__ZN13RuntimeStaticI21AssetReferenceStorageLb0EE16StaticInitializeEPv
WJk:_IPHostEntry__ctor_m1980718113
IGl:_TaskFactory_1_FromAsyncImpl_m2198391319_gshared
Nhp:_Transform_INTERNAL_get_localPosition_m130325652
Ruf:_U3CReadAsyncInternalU3Ed__34_SetStateMachine_m3474270530_AdjustorThunk
pD:__Z71Register_UnityEngine_AudioSource_INTERNAL_CALL_ClearExtensionPropertiesv
oqk:_PointerType_InternalResolve_m1277754605
WZj:_MonoTlsProviderFactory_CreateDefaultProviderImpl_m275362681
RCg:_TokenizerStream_Reset_m2822977731
bIk:_HttpWebRequest_get_ServicePoint_m3026856356
Pre:_XmlAtomicValue_get_ValueAsBoolean_m3931816481
Ucm:_Behaviour_set_enabled_m602406666
Ucj:_LifetimeServices_set_SponsorshipTimeout_m1403222216
K$g:_Function__ctor_m3881570929
HTe:_Char_ToString_m1401375624_AdjustorThunk
izh:_Array_InternalArray__ICollection_Add_TisTableRange_t2011406615_m147373358_gshared
wNc:__ZN5physx7NpCloth13setTargetPoseERKNS_11PxTransformE
rzh:_Array_InternalArray__ICollection_Add_TisBoolean_t3825574718_m1009318882_gshared
X$e:_SyncSortedList_set_Item_m3648005470
Xhf:_ReadObjectInfo_AddValue_m1564278471
zGg:_TermInfoReader_ReadHeader_m1440274131
Ere:_XmlListConverter__ctor_m3041918840
IAm:__ZN6il2cpp2vm5Class40GetInterfaceInvokeDataFromVTableSlowPathEPK12Il2CppObjectPK11Il2CppClassj
xtg:_RegistryPermission_GetPathList_m2457794834
Zjo:__ZL58IAppDomainSetup_t2062568297_CustomAttributesCacheGeneratorP21CustomAttributesCache
bza:__ZN20TierGraphicsSettings8TransferI18StreamedBinaryReadILb0EEEEvRT_
Nyl:_Nullable_1_Equals_m2848647165_AdjustorThunk
Moe:_XdrBuilder_XDR_BuildRoot_Name_m2936448274
LFa:__ZN14SafeBinaryRead8TransferINSt3__24pairIN9ShaderLab16FastPropertyNameE10ColorRGBAfEEEEvRT_PKc17TransferMetaFlags
tVm:__ZN14dense_hash_mapI10KeyWrapperINSt3__24pairIPK12PropertyInfoP11Il2CppClassEEEj17ReflectionMapHashIS8_ENS9_14EqualsComparerINS1_8equal_toIS8_EEEENS1_9allocatorINS2_IKS9_jEEEEE13set_empty_keyERSH_
hh:_glRenderbufferStorage
J4m:__ZNK15dense_hashtableINSt3__24pairIK10KeyWrapperINS1_IPKcS4_EEEiEES6_24NamespaceAndNamePairHashN14dense_hash_mapIS6_iS9_NS6_14EqualsComparerI26NamespaceAndNamePairEqualsEENS0_9allocatorIS8_EEE9SelectKeyESD_SF_E13find_positionERS7_
GOd:__ZN11UnityEngine15PlatformWrapper28GetTextureFormatSupportFlagsEv
coo:__ZL53Comparer_1_t1036860714_CustomAttributesCacheGeneratorP21CustomAttributesCache
XQa:__ZN14SafeBinaryRead21TransferSTLStyleArrayI13dynamic_arrayI12BoneWeights4Lj16EEEEvRT_17TransferMetaFlags
Pmn:__ZN6il2cpp6icalls8mscorlib6System10Reflection4Emit13ModuleBuilder17set_wrappers_typeEP29Il2CppReflectionModuleBuilderP20Il2CppReflectionType
g_a:__Z33InterpolateLightProbeCoefficientsRK17LightProbeContextRK29LightProbeSamplingCoordinatesR20SphericalHarmonicsL2
ewb:__ZZ23InitPlayerLoopCallbacksvEN35PreUpdateSendMouseEventsRegistrator7ForwardEv
ngg:_SmallXmlParser_HandleBufferedContent_m3397096753
h7i:_FieldOnTypeBuilderInst_ToString_m3466164798
Z2f:_Datatype_string_TryParseValue_m2487196769
lWf:_NumberFormatInfo_get_CurrencyGroupSizes_m662249153
w2:__ZNK6Camera25GetNormalizedViewportRectEP13RenderTextureb
uh:_glDisable
Rb:invoke_vffff
Oye:_XmlSchemaDatatype_TypeCodeToString_m2262088703
ZAf:_Array_SortImpl_TisTimeSpan_t3430258949_m646617898_gshared
hve:_XmlNumeric10Converter_ToString_m485722812
vVe:_ArrayList_CopyTo_m2353632788
Dvm:__ZN6il2cpp6icalls8mscorlib6System7Decimal12FCallCompareEP13Il2CppDecimalS5_
$fc:__ZN5physx10getInverseERNS_7PxMat33ERNS_6PxVec3ERKS0_RKS2_
vWd:_XmlTextReaderImpl_InitFragmentReader_m620864462
lU:__ZNSt3__26vectorINS_4pairIyP17VertexDeclarationEENS_9allocatorIS4_EEE6assignIPS4_EENS_9enable_ifIXaasr21__is_forward_iteratorIT_EE5valuesr16is_constructibleIS4_NS_15iterator_traitsISB_E9referenceEEE5valueEvE4typeESB_SB_
$Lp:b118
aMp:b119
bxb:__ZNK8Material12GetPassCountEv
TLp:b110
ULp:b111
VLp:b112
HAp:_bitshift64Ashr
XLp:b114
YLp:b115
ZLp:b116
_Lp:b117
Vqh:_Array_InternalArray__ICollection_Remove_Tisbucket_t976591655_m1403040701_gshared
gCp:dynCall_diii
rbd:__ZN5physx6shdfnd5ArrayIPhNS0_19ReflectionAllocatorIS2_EEE8recreateEj
kil:_InternalEnumerator_1_System_Collections_IEnumerator_get_Current_m1712462060_gshared
_5:__ZN4crnd12crn_unpacker22decode_alpha_endpointsEv
QHb:__Z23CullDynamicObjectsUmbraPK4AABBPKN5Umbra15OcclusionBufferER9IndexList
jFf:_Array_InternalArray__get_Item_TisContactPoint_t1376425630_m3234597783_gshared
Kep:__ZL67FieldWithTarget_t2256174789_CustomAttributesCacheGenerator_m_TargetP21CustomAttributesCache
dTj:_CookieContainer_InternalGetCookies_m792426199
Vgm:_Mathf_Approximately_m1944881077
v8l:_GeneralNames_ToString_m800435094
xHg:_ASCIIEncoding_GetString_m3931709239
cjp:_Vector4_Equals_m2166390052
ZJ:__GLOBAL__sub_I_runtime_assetbundles_1_cpp
Tv:__ZN4FMOD7Channel11setPositionEjj
ni:_glBindSampler
Ukn:_GC_reclaim_block
LDc:__ZN5physx2Sc8BodyCore20clearSpatialVelocityEbb
ri:_glGetVertexAttribiv
tzh:_Array_InternalArray__ICollection_Add_TisChar_t3454481338_m422084244_gshared
J7c:__ZN5physx6shdfnd5ArrayINS_9PxBounds3ENS0_15InlineAllocatorILj192ENS0_19ReflectionAllocatorIS2_EEEEE8recreateEj
$4d:_XmlQualifiedName_ToString_m1178550110
J6b:__ZN8JSONRead8TransferIbEEvRT_PKc17TransferMetaFlagsb
krc:__ZN5physx6shdfnd5ArrayIPvNS0_19ReflectionAllocatorINS_2Sc24ElementInteractionMarkerEEEE4copyINS0_15InlineAllocatorILj256ES6_EEEEvRKNS1_IS2_T_EE
lgn:__ZN6il2cpp6icalls8mscorlib6System9Threading11Interlocked3AddEPii
nLc:__ZNK5physx7NpShape15getGeometryTypeEv
mof:_SerializationInfo_GetSingle_m971148481
hDe:_X509KeyUsageExtension_Decode_m3292847033
$kp:_Map_Uncover_m2771005175
K6j:_LinkedList_1_RemoveLast_m2904732739_gshared
X1f:_Datatype_nonPositiveInteger__cctor_m36427206
bkp:_Cover_OnRightClick_m659458015
bwh:_Array_IndexOf_TisWin32_IP_ADAPTER_ADDRESSES_t680756680_m2270594185_gshared
qwk:_Module_filter_by_type_name_ignore_case_m3574895736
eKa:__ZN26CustomRenderTextureManager19PreAllocateMaterialEP19CustomRenderTexture
fAg:_PolicyStatement_Equals_m318008089
tpf:_RuntimeType_get_ContainsGenericParameters_m1772146496
_Zm:__ZNSt3__215basic_stringbufIcNS_11char_traitsIcEENS_9allocatorIcEEE9underflowEv
x7b:__Z29Transfer_Blittable_ArrayFieldI8JSONRead8Vector4fEvRT_R9ArrayInfoRK23StaticTransferFieldInfo
$fh:_WebAsyncResult_SetCompleted_m2908552542
c7g:_Compiler_CleanupAttributes_m2963252756
So:FUNCTION_TABLE_vd
Uo:FUNCTION_TABLE_vi
GL:__ZN13RuntimeStaticI37UnityShaderCompilerExtPluginConfigureLb0EE16StaticInitializeEPv
eQd:__ZN11UnityEngine7Connect17DeviceStatusEvent20SetDeviceAspectRatioEf
qYb:__ZN10systeminfo24GetRuntimePlatformStringEv
Iif:_ReadObjectInfo_Position_m186369513
Xed:__ZN5physxL25solveContact4_StaticBlockEPKNS_23PxcSolverConstraintDescERNS_16PxcSolverContextE
ael:_SimpleCollator_GetContraction_m1391584430
kJf:_CultureInfo_get_InvariantCulture_m398972276
YRl:_GenericEqualityComparer_1_Equals_m1169714461_gshared
eRe:_Boolean_System_IConvertible_ToInt64_m4142756949_AdjustorThunk
Y0b:__ZN5Unity9rapidjson13GenericReaderINS0_4UTF8IcEES3_13JSONAllocatorE10ParseFalseILj0ENS0_19GenericStringStreamIS3_EENS0_15GenericDocumentIS3_S4_S4_EEEEvRT0_RT1_
Kqj:_HMAC_initializePad_m3828610671
Tkc:__ZNK5physx3Cct17CapsuleController15getFootPositionEv
lRi:_RSAParameters_t1462703416_marshal_pinvoke_cleanup
rKm:__ZN6il2cpp2vm7Runtime9SetConfigEPKc
N0j:_NodeEnumerator_MoveNext_m4114285084
B1b:__ZN5Unity9rapidjson12PrettyWriterI16TempBufferWriterNS0_4UTF8IcEES4_13JSONAllocatorE10StartArrayEv
$Kj:_SystemDiagnosticsSection_get_Properties_m1547028736
xa:invoke_iiifiii
oRg:_AutoResetEvent__ctor_m2634317352
yBj:_TypeDescriptor_RaiseRefresh_m661417192
t7g:_Compiler_IsProcessContentsRestricted_m843098600
k0m:__ZN6il2cpp2vm9Exception11FromNameMsgEPK11Il2CppImagePKcS6_S6_
x0h:_Type_internal_from_name_m1506974323
cfd:__ZN5physx25solveContact_BStaticBlockEPKNS_23PxcSolverConstraintDescEjRNS_16PxcSolverContextE
uW:__Z14GetTimeManagerv
wTd:__ZN19TransportJavaScript7CleanupEv
KAe:_XmlSchemaLengthFacet__ctor_m4191449567
fqa:__Z12GUIDToStringRK9UnityGUIDPc
Phl:_InternalEnumerator_1_get_Current_m3611165223_gshared
NKj:_SwitchElement_get_Name_m2006181122
Bbi:_Int64_System_IConvertible_ToUInt32_m850395426_AdjustorThunk
vRj:_SocketElement_get_Properties_m942773792
JWo:__ZL149XmlSchemaComplexContentRestriction_t1722137421_CustomAttributesCacheGenerator_XmlSchemaComplexContentRestriction_t1722137421____Particle_PropertyInfoP21CustomAttributesCache
Gdc:__ZL4facejjjRN5physx6PxVec3ERKS0_S3_S3_PfRf
T4c:__ZN5physx6shdfnd5ArrayIPNS_2Sc14ConstraintCoreENS0_19ReflectionAllocatorIS4_EEE6resizeEjRKS4_
fz:__ZN11AudioSource22UnmuteActiveVideoSinksEv
Ngn:__ZN4utf88internal20is_overlong_sequenceIiEEbjT_
Vra:__Z9SetLocalR15TransformAccessRKN4math7_float4Ey
TZm:__ZNSt3__218basic_stringstreamIcNS_11char_traitsIcEENS_9allocatorIcEEED1Ev
Upd:__ZL18getFrictionPatchesRN5physx26PxcFrictionPatchStreamPairERNS_20PxcCorrelationBufferEPKhjRKNS_11PxTransformES8_f
e3m:__ZN6il2cpp6icalls8mscorlib6System10Reflection10MonoMethod14InternalInvokeEP22Il2CppReflectionMethodP12Il2CppObjectP11Il2CppArrayPS8_
Qji:_Stream_Close_m1499612649
hVl:_ConfigurationCollectionAttribute__ctor_m1251693102
eDb:__Z14SetupLightmapsRK8Vector4fS1_R17ShaderPassContext
kDa:__ZL20InitializeGUIShadersv
HAi:_Enumerator_MoveNext_m639383991_gshared
oRb:__Z20DestroyObjectDelayedP6Objectf
kJ:__ZN20DynamicHeapAllocatorI17LowLevelAllocatorED0Ev
DOj:_IPv6AddressHelper_Parse_m2145285632
hQg:_DecoderUTF7Fallback_Equals_m3242491635
D_j:_MonoTlsProviderFactory_IsBtlsSupported_m3998326362
xBd:__ZN8Collider16RecreateColliderEPK9Rigidbody
efl:_PreviousInfo__ctor_m1442166472_AdjustorThunk
BAb:__ZN9DepthPassD2Ev
p0h:_TZifHead__ctor_m207812626_AdjustorThunk
l8e:_DateTime_get_Kind_m1331920314_AdjustorThunk
$xl:_Nullable_1_ToString_m2516240674_gshared
Mu:__ZN11AudioFilter6GetDSPEv
oZk:_ReadOnlyCollection_1_System_Collections_IEnumerable_GetEnumerator_m1724229251_gshared
xIc:__ZN5physx2Sc14ConstraintCore9setBodiesEPNS0_9RigidCoreES3_
$zl:_Predicate_1_BeginInvoke_m3863950084_gshared
pO:__ZN19RuntimeSceneManager14CanUnloadSceneEP10UnityScene
Kee:_TagInfo_t1244462138_marshal_pinvoke_cleanup
DAb:__Z22ExtractRenderNodeQueueRK11CullResults15ExtractionFlagsR15RenderNodeQueue
pEm:__ZN14dense_hash_mapI10KeyWrapperIN6il2cpp5utils13dynamic_arrayIPK10Il2CppTypeLj4EEEEPFvvENS1_8metadata19Il2CppSignatureHashENS8_14EqualsComparerINSB_22Il2CppSignatureCompareEEENSt3__29allocatorINSG_4pairIKS8_SA_EEEEEC2EjRKSC_RKSF_
cHd:__ZN5physx6shdfnd8PoolBaseINS_24NpPtrTableStorageManager8PtrBlockILi64EEENS0_19ReflectionAllocatorIS4_EEE12allocateSlabEv
JFe:_RegexFCD_RegexFCFromRegexTree_m3058700454
Tt:__ZN24AudioScriptBufferManagerC2Ev
F8b:__ZN11UnityEngine9Analytics18SceneLoadTimeEvent12ToJsonStringER9JSONWrite
P0b:__ZN8JSONRead32GetValueForKeyWithNameConversionEPKN5Unity9rapidjson12GenericValueINS1_4UTF8IcEE13JSONAllocatorEEPKc
zQe:_Boolean_Equals_m294106711_AdjustorThunk
gYh:_TimeSpan_get_Hours_m3804628138_AdjustorThunk
w2b:__Z18Transfer_BlittableI9JSONWriteLb0EfEvRK29SerializationCommandArgumentsR31RuntimeSerializationCommandInfo
q5:__Z21GetAsyncUploadManagerv
qDh:_Array_InternalArray__Insert_TisEntry_t827949121_m2861475152_gshared
Yhe:_SchemaCollectionPreprocessor_PreprocessParticle_m3980180467
bk:_emscripten_glDetachShader
Rkl:_InternalEnumerator_1_System_Collections_IEnumerator_get_Current_m3763842195_AdjustorThunk
Yue:_XmlNumeric10Converter__ctor_m433562302
EIh:_XmlSchemaValidator_BuildElementName_m786665894
Rbl:_SafeHandleZeroOrMinusOneIsInvalid_get_IsInvalid_m2033528032
GAc:__ZNK5physx2Sc15ArticulationSim16createDriveCacheEfj
e5:__ZN17GenericDynamicVBO20ReleaseChunkInternalERK21DynamicVBOChunkHandlejj
kif:_ObjectHolder_get_CompletelyFixed_m472628843
GKa:__ZN14SafeBinaryRead21TransferSTLStyleArrayI13dynamic_arrayI7Hash128Lj8EEEEvRT_17TransferMetaFlags
xbl:_SafeHandleZeroOrMinusOneIsInvalid__ctor_m3340306667
eof:_SerializationInfo_AddValue_m902275108
I5g:_BaseProcessor_IsValidAttributeGroupRedefine_m2604996278
ktp:__ZNKSt3__220__time_get_c_storageIcE8__monthsEv
$np:_fmodf
Moc:__ZN5physx6shdfnd5ArrayIPNS_3Scb5ActorENS0_19ReflectionAllocatorIS4_EEE6resizeEjRKS4_
fja:__ZN12CachedWriter11Align4WriteEv
HBb:__Z20DoDeferredRenderLoopR17RenderLoopContextR13dynamic_arrayI16RenderObjectDataLj4EES4_RK11CullResultsRP13RenderTextureSA_Pb
Ltb:__ZN19RuntimeSceneManager11CreateSceneEv
OVl:_PropertyInformationCollection_get_Item_m1640937095
S6g:_CompiledIdentityConstraint__ctor_m1919467926
HDb:__Z27SetupBakedOcclusionForLightbRK15SharedLightDataR17ShaderPassContext
OPg:_UTF7Encoding_GetCharCount_m4051464058
UQl:_GenericComparer_1_Compare_m78150427_gshared
BJc:__ZN5physx7NpScene14removeMaterialERNS_10NpMaterialE
Wuc:__ZN5physx16PxsIslandManager24setEdgeArticulationJointERKNS_20PxsIslandManagerHookIjLj4294967295EEE
hil:_InternalEnumerator_1_get_Current_m706977411_gshared
sKi:_Dictionary_2_Initialize_m1088865348_gshared
DDc:__ZN5physx2Sc10NPhaseCore25addToDirtyInteractionListEPNS0_15CoreInteractionE
H9f:_ParticleContentValidator_AddLeafRange_m482258245
sui:_ConcurrentDictionary_2_IsValueWriteAtomic_m2271604519_gshared
Tdk:_List_1_GetEnumerator_m317405760_gshared
Dxb:__Z18RenderImageFiltersR10RenderLoopb
EJ:__Z19free_alloc_internalPv18MemLabelIdentifier
uEl:_Task_1__ctor_m4222636859_gshared
xtk:_TypeBuilderInstantiation_get_FullName_m3346366459
SDb:__ZNSt3__227__insertion_sort_incompleteIR23CompareReflectionProbesP31RuntimeReflectionProbeBlendInfoEEbT0_S5_T_
PUe:_Char_IsHighSurrogate_m2174111326
S7b:__ZN8JSONRead21TransferSTLStyleArrayI13dynamic_arrayI11QuaternionfLj4EEEEvRT_17TransferMetaFlags
Zqd:__ZN5physx2Cm12DelegateTaskINS_2Sc5SceneEXadL_ZNS3_19islandGenSecondPassEPNS_10PxBaseTaskEEEE11runInternalEv
drg:_Array_UnsafeCreateInstance_m3279355098
$wk:_MonoCMethod_Invoke_m931478014
fph:_Array_InternalArray__ICollection_Contains_TisInternalCodePageDataItem_t1742109366_m404798709_gshared
xYb:__ZN19RuntimeSceneManager32LoadSceneAsyncByNameOrBuildIndexERKN4core12basic_stringIcNS0_20StringStorageDefaultIcEEEEiNS_11LoadingModeEb
VIc:__ZN5physx6shdfnd4sortIPvNS0_4LessIS2_EENS0_19ReflectionAllocatorINS_10NpMaterialEEEEEvPT_jRKT0_RKT1_j
tkp:_Health__ctor_m3898564637
NT:__ZN10InputEventD2Ev
P1h:_Type_get_IsInterface_m3583817465
tZi:_NumberFormatter_Append_m3268121457
_Qk:_List_1_GetEnumerator_m2408052766_gshared
c4:__ZN15dense_hashtableINSt3__24pairIK9TextureIDiEES2_N12TextureIdMap20TextureIDHashFunctorEN14dense_hash_mapIS2_iS6_NS0_8equal_toIS2_EE13stl_allocatorIS4_L18MemLabelIdentifier67ELi16EEE9SelectKeyES9_SC_E12resize_deltaEjj
ITd:__ZN22UnityWebRequestManagerD2Ev
$bm:_SecurityParser_OnChars_m3000299379
tQi:_RSA_ToXmlString_m4145056574
$Zj:_ChainValidationHelper_Create_m71373399
GKf:_Double_System_IConvertible_ToUInt64_m1318285078_AdjustorThunk
Zlc:__ZN5physx3Cct15ObstacleContext13onOriginShiftERKNS_6PxVec3E
inp:_isalpha
N$c:__ZN5physx6shdfnd8PoolBaseINS_2Gu31SpherePersistentContactManifoldENS0_19ReflectionAllocatorIS3_EEE12allocateSlabEv
svc:__ZN5physx6shdfnd5ArrayIPNS_2Sc7BodySimENS0_19ReflectionAllocatorIS4_EEE8recreateEj
n1j:_NameObjectCollectionBase_BaseGet_m4152270534
X0f:_Datatype_int_get_ListValueType_m2996769098
$Xh:_TimeSpan__ctor_m423866652
hdh:_Socket_IsProtocolSupported_m3323164301
dgn:__ZN6il2cpp2vm6String6NewLenEPKcj
Mrb:__ZN17PersistentManager9AddStreamEv
DUi:_X509Helper_ImportCore_m3614837981
ql:_time
Eaj:_ModuleBuilder_GetPseudoToken_m2394719232
VJh:_XsdBuilder_SendValidationEvent_m1743893827
fqc:__ZNK5physx2Sc8ShapeSim15getPxsRigidCoreEv
NY:__ZN18SpriteAtlasManagerD2Ev
jrc:__ZN5physx2Sc20ContactStreamManager28fillInContactReportExtraDataEPNS_17PxContactPairPoseEjRKNS0_8RigidSimEb
xOc:__ZN5physx7NpCloth23removeCollisionTriangleEj
P6b:__ZN8JSONRead21TransferSTLStyleArrayI13dynamic_arrayIyLj8EEEEvRT_17TransferMetaFlags
Xkl:_InternalEnumerator_1_get_Current_m2987216314_gshared
jgj:_MethodResponse_get_OutArgs_m3501114825
Yfe:_XmlValidatingReaderImpl_MoveToAttribute_m3832430673
add:__ZNK5physx2Gu29EPASupportMapPairRelativeImplINS0_9TriangleVENS0_11ConvexHullVEE9doSupportERKNS_6shdfnd3aos5Vec3VERS7_SA_SA_
vng:___DTString_MatchLongestWords_m670456305
$Ij:_DiagnosticsConfiguration_IsInitializing_m2497673730
KPm:__ZN15dense_hashtableINSt3__24pairIK10KeyWrapperINS1_IPK9FieldInfoP11Il2CppClassEEEjEES9_17ReflectionMapHashIS8_EN14dense_hash_mapIS9_jSD_NS9_14EqualsComparerINS0_8equal_toIS8_EEEENS0_9allocatorISB_EEE9SelectKeyESI_SK_E4findERSA_
nbl:_Win32RegistryApi__ctor_m380794313
VWk:_Queue_1_Enqueue_m1606384729_gshared
V4e:_Decimal_op_Implicit_m623319612
ZCa:__ZNK9Transform21GetLocalToWorldMatrixEv
CVh:_ThreadAbortException__ctor_m1623816114
XRb:__ZN13ProduceHelperI30RuntimeInitializeOnLoadManagerLb0EE7ProduceE18MemLabelIdentifier18ObjectCreationMode
sJb:__ZN13RenderTexture19SetAutoGenerateMipsEb
I6:__Z20GetTextureFormatInfo13TextureFormat
LGf:_Array_InternalArray__IReadOnlyList_get_Item_TisLowerCaseMapping_t2153935826_m2186423004_gshared
oUb:__Z40InitializeLightAnimationBindingInterfacev
Ihe:_SchemaCollectionPreprocessor_Preprocess_m32230808
SDj:_MemberDescriptor_get_Attributes_m217354542
inh:_X509CertificateImplCollection_Clone_m1677691416
dxp:__ZNKSt3__28numpunctIcE11do_groupingEv
zUd:_XmlReaderSection_get__ProhibitDefaultResolver_m3298667495
zzm:__ZN6il2cpp2vm5Class4InitEP11Il2CppClass
spc:__ZN5physx2Sc8ShapeSim21destroyLowLevelVolumeEv
QKj:_SwitchElement_PreSerialize_m919223162
lt:__ZN11SoundHandle8InstanceD2Ev
nCj:_DoubleConverter_ToString_m1099292225
WW:__ZN31CanvasBatchIntermediateRenderer13StaticDestroyEPv
tbm:_X509Store_BuildCrlsCollection_m52567568
UP:__ZNSt3__23mapIiP15MonoScriptCacheNS_4lessIiEE13stl_allocatorINS_4pairIKiS2_EEL18MemLabelIdentifier78ELi16EEEixERS7_
Vxh:_Array_InternalArray__IndexOf_TisSequenceConstructPosContext_t3853454650_m4127930401_gshared
s3c:__ZNK5physx2Sc5Scene20getBroadPhaseRegionsEPNS_22PxBroadPhaseRegionInfoEjj
psf:_RuntimeTypeHandle_IsInterface_m334789581
Klh:_OSX509Certificates_CFArrayCreate_m2709764472
SLf:_Enum_ToString_m662345249
IHp:_emscripten_glBindProgramARB__wrapper
a9d:_XmlTextReaderImpl_Throw_m2153506420
L4k:_ReadOnlyCollection_1_Contains_m3357556345_gshared
P_b:__Z41Register_UnityEngine_CullingGroup_Disposev
tbn:__ZN6il2cpp6icalls8mscorlib6System6String18FastAllocateStringEi
FFc:__ZN5physx14NpShapeManagerD2Ev
RIa:__ZN7Cubemap23VirtualRedirectTransferER19StreamedBinaryWriteILb0EE
rHf:_Array_UnsafeLoad_TisDouble_t4078015681_m3372075856_gshared
Srp:__ZNKSt3__27num_getIcNS_19istreambuf_iteratorIcNS_11char_traitsIcEEEEE17__do_get_unsignedItEES4_S4_S4_RNS_8ios_baseERjRT_
Goa:__ZN25MultiBlocksMemoryFileData5WriteEyyPKv
z5f:_DoubleLinkAxis_ConvertTree_m3966538269
MHm:__ZN6il2cpp6icalls8mscorlib6System8MonoType12GetArrayRankEP20Il2CppReflectionType
saa:__ZL17ProgramUniform2fvPK7ApiGLESjiihPKv
UEc:__ZN5physx2Sc5Scene16removeConstraintERNS0_14ConstraintCoreE
$ak:_Enumerator_System_Collections_IEnumerator_Reset_m2023954240_gshared
qsn:__ZN6il2cpp6icalls8mscorlib6System4Text14EncodingHelper16InternalCodePageEPi
Wop:_htonl
S1:__Z20GetBufferManagerGLESv
fSg:_CancellationToken_Register_m1856959685_AdjustorThunk
SDk:_ResourceReader__LoadObjectV2_m858072932
_Ge:_RegexCharClass_IsNegated_m3224241686
gob:__ZN18StreamedBinaryReadILb0EE21TransferSTLStyleArrayI31ArrayOfManagedObjectsTransfererEEvRT_17TransferMetaFlags
K6c:__ZN5physx2Sc18ParticleSystemCore18addDeltaVelocitiesERKNS_2Cm10BitMapBaseINS_6shdfnd9AllocatorEEEPKNS_6PxVec3Ef
Zcf:_Decimal_System_Runtime_Serialization_IDeserializationCallback_OnDeserialization_m1617409306_AdjustorThunk
H5b:__Z18Transfer_BlittableI8JSONReadLb0EtEvRK29SerializationCommandArgumentsR31RuntimeSerializationCommandInfo
Dnd:__ZN5physx6shdfnd8PoolBaseINS_2Sc16ActorElementPairENS0_19ReflectionAllocatorIS3_EEE12allocateSlabEv
xcl:_Win32Native_MakeHRFromErrorCode_m3590669561
dKc:__ZNK5physx9NpPhysics17getNbClothFabricsEv
Ggn:__ZNSt3__212basic_stringIDsNS_11char_traitsIDsEENS_9allocatorIDsEEE9__grow_byEjjjjjj
uv:__ZN12AudioManager21FixMasterGroupRoutingEv
Xxb:__ZNK19ShaderPropertySheet11HasPropertyERKN9ShaderLab16FastPropertyNameE
kPa:__ZN15dense_hashtableINSt3__24pairIKN4core12basic_stringIcNS2_20StringStorageDefaultIcEEEE13dynamic_arrayI4PPtrI6SpriteELj4EEEES6_20StringHash32FunctionIS6_EN14dense_hash_mapIS6_SC_SF_NS0_8equal_toIS6_EE13stl_allocatorISD_L18MemLabelIdentifier81ELi16EEE9SelectKeyESI_SL_E4findERS7_
X0d:_XmlNamedNodeMap_FindNodeOffset_m2124955671
v$h:_TimeZoneInfo_TryGetTimeZoneFromLocalMachine_m1454662294
UYe:_Hashtable__ctor_m4280223555
mzp:__ZNSt3__212basic_stringIwNS_11char_traitsIwEENS_9allocatorIwEEED2Ev
gcn:__ZN6il2cpp2os10ThreadImpl33UnregisterCurrentThreadForCleanupEv
ryd:__ZL10UpdateLinkjjjjPN5physx11AdjTriangleERKNS_17ADJACENCIESCREATEE
Ntc:__ZN5physx2Sc16InteractionScene19registerInteractionEPNS0_11InteractionEb
xab:__Z18Transfer_BlittableI14SafeBinaryReadLb1E4AABBEvRK29SerializationCommandArgumentsR31RuntimeSerializationCommandInfo
Aed:__ZN5physx19solveContactCoulombERKNS_23PxcSolverConstraintDescERNS_16PxcSolverContextE
wmn:_GC_set_no_dls
asn:__ZN6il2cpp8metadata26Il2CppGenericMethodCompare6EqualsEPK19Il2CppGenericMethodS4_
lV:__Z22CreateMutexLockedQueue18MemLabelIdentifier
Zqc:__ZNK5physx2Sc9ActorPair23createContactReportDataEv
fBm:__ZN15dense_hashtableINSt3__24pairIK10KeyWrapperIPK11Il2CppClassEPKcEES6_N6il2cpp5utils11PointerHashIS3_EEN14dense_hash_mapIS6_S9_SE_NS6_14EqualsComparerINS0_8equal_toIS5_EEEENS0_9allocatorISA_EEE9SelectKeyESJ_SL_E15set_deleted_keyERKSA_
ezh:_Array_CheckComparerAvailable_TisRangePositionInfo_t2780802922_m1102593590_gshared
$t:__ZN9AudioClip7WWWOpenEPKciPjPPvS4_
Pci:___Error_GetDisplayablePath_m2920594668
LCc:__ZN5physx18NpArticulationLink18setAngularVelocityERKNS_6PxVec3Eb
oab:__Z18Transfer_BlittableI14SafeBinaryReadLb0E8Vector2fEvRK29SerializationCommandArgumentsR31RuntimeSerializationCommandInfo
PXl:_ConfigurationErrorsException__ctor_m1926925674
O4m:__ZN15dense_hashtableINSt3__24pairIK10KeyWrapperINS1_IPKcS4_EEEiEES6_24NamespaceAndNamePairHashN14dense_hash_mapIS6_iS9_NS6_14EqualsComparerI26NamespaceAndNamePairEqualsEENS0_9allocatorIS8_EEE9SelectKeyESD_SF_E12resize_deltaEjj
vxf:_Array_InternalArray__set_Item_TisPlayableBinding_t2498078091_m2071396616_gshared
$c:_emscripten_glVertexAttrib2f
iTh:_TaskExceptionHolder_ShouldFailFastOnUnobservedException_m3342269293
x1i:_Assembly_GetCodeBase_m2735209720
C1a:__ZN15SerializeTraitsIN9ShaderLab20SerializedSubProgram16TextureParameterEE8TransferI14SafeBinaryReadEEvRS2_RT_
Ivm:__ZL9Div96By32Pjj
HSe:_Byte_System_IConvertible_ToInt16_m1575115635_AdjustorThunk
Jyk:_MonoMethod_GetGenericMethodDefinition_impl_m422532500
YHl:_Tuple_4_System_IComparable_CompareTo_m2767899169_gshared
p9c:__ZN5physx6shdfnd8PoolBaseINS_2Sc19ShapeInstancePairLLENS0_19ReflectionAllocatorIS3_EEE15disposeElementsEv
wme:_SchemaInfo_Add_m3392872008
R7g:_Compiler_CannonicalizeAll_m627972311
zRj:_WebProxyScriptElement_get_Properties_m2386725536
Wgc:__ZN5physx2Gu14sweepTriSphereERKNS_10PxTriangleERKNS_6PxVec3ES6_fS6_Rf
rAj:_SslStreamBase_EndRead_m1072850679
Xej:_MessageDictionary_Clear_m2618720312
JPd:__ZThn1044_N18UnityConnectClientD0Ev
cfg:_SignedData__ctor_m2823395776
vd:_SDL_GetTicks
mmg:_X509CertificateEnumerator_System_Collections_IEnumerator_get_Current_m1643583406
DRm:__ZN15dense_hashtableINSt3__24pairIK10KeyWrapperINS1_IPK11Il2CppImageP11Il2CppClassEEEjEES9_17ReflectionMapHashIS8_EN14dense_hash_mapIS9_jSD_NS9_14EqualsComparerINS0_8equal_toIS8_EEEENS0_9allocatorISB_EEE9SelectKeyESI_SK_E6insertERKSB_
lge:_XmlValidatingReaderImpl_ResolveEntity_m47200441
vHb:__Z21CreateShadowCullerJobP30CreateUmbraShadowCullerJobData
COc:__ZNK5physx7NpCloth21getNbVirtualParticlesEv
nqd:__ZN5physx17PxcNpMemBlockPool23releaseConstraintBlocksERNS_6shdfnd5ArrayIPNS_13PxcNpMemBlockENS1_19ReflectionAllocatorIS4_EEEE
ONe:_Uri_GetCombinedString_m2004901677
uom:_AudioConfigurationChangeHandler_BeginInvoke_m1585211075
tEb:__Z33GenerateShadowCasterPartsSortDataRK16ShadowCasterDatajRK15RenderNodeQueueRKNSt3__26vectorI20ShadowCasterPartData13stl_allocatorIS7_L18MemLabelIdentifier2ELi16EEEERK10Matrix4x4fRjP20ShadowCasterSortData
bYj:_DnsHeader_get_IsQuery_m3658080368
Jum:_UnityAction_2_Invoke_m319876726_gshared
rfg:_PKCS1_I2OSP_m3905712516
sdb:__Z29Transfer_Blittable_ArrayFieldI14SafeBinaryRead9BoundsIntEvRT_R9ArrayInfoRK23StaticTransferFieldInfo
GDc:__ZN5physx2Sq17SceneQueryManager13markForUpdateEPNS0_10ActorShapeE
tIe:_RegexCompiler_Ldstr_m510073422
fup:__ZNKSt3__28time_getIwNS_19istreambuf_iteratorIwNS_11char_traitsIwEEEEE11__get_am_pmERiRS4_S4_RjRKNS_5ctypeIwEE
kVh:_Thread_get_ExecutionContextBelongsToCurrentScope_m546492951
onj:_BinaryConverter_WriteTypeInfo_m262875298
Tjn:_GC_expand_hp_inner
q6m:__ZNK15dense_hashtableI10KeyWrapperIP18Il2CppGenericClassES3_N6il2cpp8metadata22Il2CppGenericClassHashEN14dense_hash_setIS3_S6_NS3_14EqualsComparerINS5_25Il2CppGenericClassCompareEEENSt3__29allocatorIS3_EEE8IdentityESA_SD_E12test_deletedEj
$Yl:_SectionInformation_set_ConfigSource_m2152533200
$Ek:_U3CU3Ec__DisplayClass4_0_U3COutputAsyncCausalityEventsU3Eb__0_m429016387
Cgn:__ZN4utf812find_invalidIPKcEET_S3_S3_
SCe:_X509ExtensionCollection_System_Collections_ICollection_CopyTo_m3421329346
ljn:_GC_err_printf
_6i:_FieldBuilder_SetValue_m3109503557
Mmh:_X509Certificate2_Verify_m1574874641
mG:__ZN11UnityEngine15CloudWebService20WebRequestRestClient7PrepareEv
ECg:_TokenizerStream_GoToPosition_m551198113
yLh:_XsdBuilder_BuildComplexType_Final_m501529980
v7d:_XmlTextEncoder_WriteEntityRef_m182377868
I9g:_Datatype_char__ctor_m1822494885
wJh:_XmlUntypedConverter_ToString_m2743569669
j$e:_SortedList_GetEnumerator_m1318483481
WMl:_Dictionary_2_GetValueOrDefault_m1175002119_gshared
_pl:_InternalEnumerator_1_System_Collections_IEnumerator_get_Current_m523037883_gshared
Mwh:_Array_InternalArray__IndexOf_TisKeyValuePair_2_t4275477795_m2719975710_gshared
zEp:_emscripten_glDepthRange__wrapper
VQ:__ZN14SerializedFile7ReleaseEv
exm:_Physics_Raycast_m1723091198
D8a:__ZN16MemoryFileSystem4OpenER13FileEntryData14FilePermission16FileAutoBehavior
JW:__ZN13RuntimeStaticI13RendererSceneLb0EE13StaticDestroyEPv
Pse:_XmlBaseConverter_ToString_m532654
dFn:__Z90RuntimeInvoker_RuntimeObject_RuntimeObject_Int32_t2071877448_CancellationToken_t1851405782PFvvEPK10MethodInfoPvPS4_
jnf:_SerializationInfo_GetElementNoThrow_m1244930482
mUb:__ZN5Light15InitializeClassEv
CVa:__ZN14SafeBinaryRead21TransferSTLStyleArrayI10vector_mapIPKN5Unity4TypeE7Hash128NSt3__24lessIS5_EENS7_9allocatorINS7_4pairIS5_S6_EEEEEEEvRT_17TransferMetaFlags
gqh:_Array_InternalArray__ICollection_Contains_TisState_t563545493_m1535020970_gshared
_t:__ZN9AudioClip18GetQueuedAudioDataEPPvj
eNe:_Uri_InitializeUriConfig_m3107217631
k6e:_DateTimeParse_GetHebrewDayOfNM_m3371069715
kan:__ZN6il2cpp2os5posix15PosixWaitObject13InterruptWaitEv
oib:__Z18Transfer_BlittableI19StreamedBinaryWriteILb0EELb0E9BoundsIntEvRK29SerializationCommandArgumentsR31RuntimeSerializationCommandInfo
AOc:__ZNK5physx7NpCloth16getCollisionDataEPNS_22PxClothCollisionSphereEPjPNS_21PxClothCollisionPlaneES3_PNS_24PxClothCollisionTriangleE
kAb:__Z18SetShadowsKeywordsR17ShaderPassContext9LightType10ShadowType16ShadowProjectionbb
bUb:__ZN17CollisionMeshDataC2Ev
Hsh:_Array_QSortArrange_TisInt16_t4041245914_TisRuntimeObject_m2910540023_gshared
U9c:__ZN5physx2Sq11PruningPool11preallocateEj
sKa:__ZN16LightmapSettings23VirtualRedirectTransferER19StreamedBinaryWriteILb0EE
T7g:_Compiler_CannonicalizeSequence_m561360959
vwb:__ZZ23InitPlayerLoopCallbacksvEN47PostLateUpdateMemoryFrameMaintenanceRegistrator7ForwardEv
Wo:FUNCTION_TABLE_viiififii
Wvh:_Array_IndexOf_TisDateTime_t693205669_m2485393129_gshared
dJi:_Dictionary_2__ctor_m878210833_gshared
lbg:_SchemaCollectionCompiler_IsGroupBaseFromAny_m3178736118
t_a:__ZN18IDCollectorFunctor18GenerateInstanceIDEi17TransferMetaFlags
$Hl:_Tuple_4_System_Collections_IStructuralEquatable_GetHashCode_m4281699352_gshared
dcf:_DateTimeRawInfo_GetNumber_m1288261758_AdjustorThunk
m9g:_Datatype_boolean_get_ValueType_m3566690891
FZi:_NumberFormatter_ToDecHex_m1474793296
fEc:__ZN5physx2Sc17ParticleSystemSim15onRbShapeChangeERKNS0_19ParticlePacketShapeERKNS0_8ShapeSimE
Gka:__ZN14StackAllocatorD0Ev
EYm:__ZN6il2cpp2vm6Thread8SetStateEP12Il2CppThreadNS0_11ThreadStateE
y$i:_OperatingSystem_Clone_m1943707477
AWh:_Scheduler_Change_m4063588742
drd:__ZN5physx27updateIslandsSecondPassMainEjRNS_2Cm10BitMapBaseINS_6shdfnd9AllocatorEEEPKjjRNS_11NodeManagerERNS_11EdgeManagerERNS_13IslandManagerERNS_23ArticulationRootManagerERNS_33ProcessSleepingIslandsComputeDataERNS_30IslandManagerUpdateWorkBuffersEPNS0_13EventProfilerE
Gze:_XmlSchemaException__ctor_m1970800393
Pkg:_Uri_ToString_m4249100766
rS:__ZNSt3__27__sort4IRNS_6__lessI14ObjectLoadDataS2_EEPS2_EEjT0_S6_S6_S6_T_
S8l:_PKCS12_Decrypt_m1557069392
a8e:_DateTime_get_Day_m2066530041
fop:_uname
K4i:_ModuleBuilder_IsTransient_m3442266478
cXa:__ZN15ResourceManagerD2Ev
G_b:__Z41Register_UnityEngine_Camera_GetAllCamerasv
R7e:_DateTime_IsDaylightSavingTime_m3893318119
gPi:_RC2Transform__ctor_m492910827
$2d:_XmlNodeReaderNavigator_get_NamespaceURI_m3112005851
U5:__ZN4crnd12crn_unpacker10unpack_dxnEPPhjjjjjj
dXo:__ZL51XmlSchema_t880472818_CustomAttributesCacheGeneratorP21CustomAttributesCache
DUg:_LockRecursionException__ctor_m4288372321
pnp:___ctype_tolower_loc
QQd:__ZN28PerformanceReportingSettings8TransferI14SafeBinaryReadEEvRT_
P$a:__ZN15CacheWriterBase18GetAddressOfMemoryEv
cWh:_WorkStealingQueue__ctor_m2856752545
P5b:__Z18Transfer_BlittableI8JSONReadLb1E5RectTIiEEvRK29SerializationCommandArgumentsR31RuntimeSerializationCommandInfo
qJc:__ZN5physx10NpMaterial17resolveReferencesERNS_24PxDeserializationContextE
LCh:_Array_InternalArray__ICollection_CopyTo_TisXmlSchemaObjectEntry_t2510586510_m1962042017_gshared
d$m:__ZN6il2cpp2vm22EmbeddedResourceRecordC2ERKS1_
o2j:_OrderedDictionary_OnDeserialization_m2956246762
MIa:__ZN9Texture2D13AwakeFromLoadE17AwakeFromLoadMode
Qdl:_MSCompatUnicodeTableUtil__cctor_m1479836795
lah:_WebConnectionData_set_ReadState_m3964811265
XQi:_RSAEncryptionPadding__ctor_m2223635548
v9m:__ZN6il2cpp2vm3RCW14QueryInterfaceILb0EEEP14Il2CppIUnknownP15Il2CppComObjectRK10Il2CppGuid
Ccn:__ZN6il2cpp2os9Directory12FindNextFileEPNS1_10FindHandleEPNSt3__212basic_stringIcNS4_11char_traitsIcEENS4_9allocatorIcEEEEPi
ASj:_CookieCollection_IndexOf_m1849424453
o8:__ZN6prcoreL17RemapGenericFloatI15TexFormatRFloat18TexFormatARGBFloatEEvPKNS_9InnerInfoE
wEo:__ZL50_Thread_t1894135853_CustomAttributesCacheGeneratorP21CustomAttributesCache
WBj:_DesignerAttribute_GetHashCode_m1478989101
uIc:__ZN5physx7NpActor15removeConnectorERNS_7PxActorENS_15NpConnectorType4EnumEPNS_6PxBaseEPKc
_Me:_UriHelper_EnsureDestinationSize_m1071400871
kid:__ZN5physx19ActorAABBUpdateTask11runInternalEv
lFf:_Array_InternalArray__get_Item_TisPlayableBinding_t2498078091_m3248833039_gshared
SRd:__ZN11UnityEngine15PlatformWrapper20GetPlayerPrefsUInt64ERKN4core12basic_stringIcNS1_20StringStorageDefaultIcEEEEy
tBp:dynCall_iiiifii
VDb:__ZN20ReflectionProbeCacheC2ER13BatchRendererR15RenderLoopStats
xX:__ZN18AssetBundleManagerC2Ev
B7a:__ZNK12HandlerChain6ExistsERK13FileEntryData
prd:__ZN5physx10PxsContext28runModifiableContactManagersEv
I3e:_Convert_ToInt32_m2734833291
KEb:__Z30FindDirectAttenuationFromProbeP18ForwardLightsBlockbiRK10RenderNodeRK23FindForwardLightsParamsf
N$l:_AsyncTaskMethodBuilder_SetStateMachine_m1055343178_AdjustorThunk
G6a:__ZN9Transform23VirtualRedirectTransferER24GenerateTypeTreeTransfer
Ind:__ZN5physx21PxsBodyTransformVault7addBodyERKNS_11PxsBodyCoreE
U4a:__ZNSt3__26vectorIN9ShaderLab20SerializedSubProgram12UAVParameterENS_9allocatorIS3_EEE21__push_back_slow_pathIKS3_EEvRT_
xPc:__ZN5physx6shdfnd5ArrayINS_35PxClothParticleSeparationConstraintENS0_19ReflectionAllocatorIS2_EEE6resizeEjRKS2_
vym:__ZN14dense_hash_mapI10KeyWrapperIPK22Il2CppGenericParameterEP11Il2CppClassN6il2cpp5utils11PointerHashIS2_EENS4_14EqualsComparerINSt3__28equal_toIS3_EEEENSC_9allocatorINSC_4pairIKS4_S6_EEEEE15set_deleted_keyERSI_
VAe:_X509ChainElement_Count_m228862214
kBh:_Array_InternalArray__ICollection_CopyTo_TisOp_t1831748991_m3952658228_gshared
Jqe:_XdrValidator_LoadSchemaFromLocation_m564920616
PWe:_ReadOnlyArrayList_ToArray_m3852421885
efm:_InvokableCallList_ClearPersistent_m2011323876
WKn:__Z154RuntimeInvoker_Void_t1841601450_SByte_t454417549_RuntimeObject_RuntimeObject_RuntimeObject_RuntimeObject_Int32_t2071877448_Int32_t2071877448_RuntimeObjectPFvvEPK10MethodInfoPvPS4_
Dhb:__Z29Transfer_Blittable_ArrayFieldI24GenerateTypeTreeTransfer9BoundsIntEvRT_R9ArrayInfoRK23StaticTransferFieldInfo
kTe:_ByteMatcher_StartsWith_m2926882109
jpa:__ZN10MemoryFile4ReadEyyPvPy
Cqp:__ZTv0_n12_NSt3__214basic_iostreamIcNS_11char_traitsIcEEED1Ev
pZh:_CachedData_GetCorrespondingKind_m1342391511
YRh:_XmlCharType_IsOnlyWhitespace_m4101091751
LZ:__ZN13GfxDeviceGLES26UpdateViewProjectionMatrixEv
AMm:_il2cpp_unity_liveness_calculation_begin
m4m:_il2cpp_z_crc32
yBh:_Array_InternalArray__ICollection_CopyTo_TisEntry_t4272951227_m3911538739_gshared
flk:_List_1_System_Collections_IList_Contains_m149594880_gshared
I4d:_XmlParserContext_get_HasDtdInfo_m1027936745
CUb:__ZZL23RegisterLightPropertiesR22GenericPropertyBindingEN22Wrapper_LightIntensity13SetFloatValueEPvf
As:__ZN4FMOD3DSP12setParameterEif
hsb:__ZN13MemoryManager16StaticInitializeEv
Ldi:_BinaryWriter_Dispose_m1628302520
wKo:__ZL53StackFrame_t2050294881_CustomAttributesCacheGeneratorP21CustomAttributesCache
vce:_XmlTextReaderImpl_get_InEntity_m3592269669
Df:___cxa_free_exception
bNk:_Win32NetworkInterface2_GetIPProperties_m3901510816
Bw:__ZN4FMOD22FakeModChannelCallbackEPv
DXi:_IsolatedStoragePermission_IsEmpty_m1648581657
Jf:_emscripten_glValidateProgram
COf:_NumberFormatInfo_get_InvariantInfo_m2658215204
nza:__ZN4Mesh10CreateMeshEv
LSm:__ZN6il2cpp2gc19AppendOnlyGCHashMapINSt3__24pairIPK9EventInfoP11Il2CppClassEEP21Il2CppReflectionEvent17ReflectionMapHashIS9_ENS2_8equal_toIS9_EEE3AddERKS9_SB_
Wed:__ZN5physx36solveContactPreBlock_WriteBackStaticEPKNS_23PxcSolverConstraintDescEjRNS_16PxcSolverContextEPNS_25PxcThresholdStreamElementEjPi
NJj:_ListenerElement__ctor_m2273985280
wam:_X509Chain__ctor_m1113875360
nKf:_Double_System_IConvertible_ToBoolean_m4251806534_AdjustorThunk
Qhh:_WebConnectionStream_set_SendChunked_m2739119874
joi:_LocalDataStore__ctor_m367054581
xKk:_NclUtilities_get_LocalAddresses_m3046526075
yCh:_Array_InternalArray__ICollection_CopyTo_TisTermInfoStrings_t1425267120_m1096284412_gshared
tJb:__ZN7Texture13SetAnisoLevelEi
AE:__ZNSt3__26__treeINS_12__value_typeIN4core12basic_stringIcNS2_20StringStorageDefaultIcEEEEjEENS_19__map_value_compareIS6_S7_NS_4lessIS6_EELb1EEE13stl_allocatorIS7_L18MemLabelIdentifier88ELi16EEE7destroyEPNS_11__tree_nodeIS7_PvEE
Ozj:_SslServerStream_BeginNegotiateHandshake_m2417864591
A6j:_LinkedList_1_AddFirst_m2972012563_gshared
X9j:_Enumerator__ctor_m1421995279_gshared
ADi:_Enumerator__ctor_m37346643_AdjustorThunk
u8b:__ZN27PerformanceReportingManager23VirtualRedirectTransferER24GenerateTypeTreeTransfer
wce:_XmlTextReaderImpl_BlockCopy_m2557423393
Tac:__ZL28GeomMTDCallback_SphereSphereRN5physx6PxVec3ERfRKNS_10PxGeometryERKNS_11PxTransformES5_S8_
eIj:_WeakKeyComparer_System_Collections_IEqualityComparer_Equals_m1408687839
ofh:_SocketAsyncResult_CompleteDisposed_m315976200
Bsk:_TypeBuilder_GetProperties_m2211539685
NSi:_SHA512Managed__HashData_m4016652166
eM:__ZN33InstancedMeshIntermediateRenderer13StaticDestroyEPv
h_f:_TimeSpanResult_Init_m2245422732_AdjustorThunk
k9h:_Int16_Parse_m3012618547
UCn:__Z86RuntimeInvoker_Void_t1841601450_DateTime_t693205669_TimeSpan_t3430258949_RuntimeObjectPFvvEPK10MethodInfoPvPS4_
tWd:_XmlTextReaderImpl__ctor_m1145274292
nKk:_LazyAsyncResult_get_IsCompleted_m2700053383
v1c:__ZN5physx7NpScene26setSimulationEventCallbackEPNS_25PxSimulationEventCallbackEh
p3m:__ZN14dense_hash_mapI10KeyWrapperIP14Il2CppIUnknownEjN6il2cpp5utils11PointerHashIS1_EENS3_14EqualsComparerINSt3__28equal_toIS2_EEEENS9_9allocatorINS9_4pairIKS3_jEEEEE13set_empty_keyERSF_
ZJn:__Z50RuntimeInvoker_Void_t1841601450_OpCode_t2247480392PFvvEPK10MethodInfoPvPS4_
N6e:_Convert__cctor_m926133987
T$e:_SortedListEnumerator_Reset_m333621728
lxa:__Z21DestroyShadowMapCacheP14ShadowMapCache
iIk:_HttpWebRequest_get_ProxyQuery_m343708170
bkn:_GC_hblk_fl_from_blocks
SUm:__ZN15dense_hashtableINSt3__24pairIK10KeyWrapperIPK10Il2CppTypeEjEES6_N6il2cpp8metadata14Il2CppTypeHashEN14dense_hash_mapIS6_jSB_NS6_14EqualsComparerINSA_26Il2CppTypeEqualityComparerEEENS0_9allocatorIS8_EEE9SelectKeyESF_SH_E14squash_deletedEv
r_f:_TimeSpanToken_IsInvalidNumber_m1415252417_AdjustorThunk
Wpc:__ZN5physx6shdfnd4sortIPvNS0_4LessIS2_EENS0_19ReflectionAllocatorINS_2Sc16ActorElementPairEEEEEvPT_jRKT0_RKT1_j
Z1b:__ZN9JSONWrite8TransferI11KeyframeTplIfEEEvRT_PKc17TransferMetaFlags
q4f:_DatatypeImplementation__cctor_m1119477751
wyd:__ZN5physx2Gu15EdgeListBuilder18ComputeActiveEdgesEjPKjPKtPKNS_6PxVec3Ef
vMf:_Environment_get_CurrentManagedThreadId_m3251091306
_ub:__ZN24BuiltinShaderParamValuesC2Ev
IVi:_NamedPermissionSet_Copy_m2397189205
m2b:__ZL41CreateJSONTransferFunctionScriptingTraitsv
hRi:_Utils_DoesRsaKeyOverride_m3506104764
gle:_SchemaElementDecl_AddAttDef_m1789336442
$gi:_FileStream_get_CanWrite_m775322953
LR:__Z24ConvertSeparatorsToUnityPc
iqb:__Z23GetLateBehaviourManagerv
inc:__ZN5physx6shdfnd5ArrayIPNS_7PxShapeENS0_15InlineAllocatorILj64ENS0_19ReflectionAllocatorIS3_EEEEE6resizeEjRKS3_
PQ:__ZN10MemoryPool10DeallocateEPv
yRf:_CultureInfo_set_NumberFormat_m1618950525
eWf:_NumberFormatInfo__ctor_m2752806684
KYk:_ReadOnlyCollection_1_System_Collections_IEnumerable_GetEnumerator_m1151476557_gshared
bPf:_CharUnicodeInfo_InitTable_m1462512337
Mvp:__ZNKSt3__29money_putIwNS_19ostreambuf_iteratorIwNS_11char_traitsIwEEEEE6do_putES4_bRNS_8ios_baseEwe
rcc:__ZN5physx6shdfnd19optimizeBoundingBoxERNS_7PxMat33E
P3n:__Z74RuntimeInvoker_Void_t1841601450_Int32_t2071877448_ParsingState_t1278724163PFvvEPK10MethodInfoPvPS4_
Sti:_ArraySegment_1_System_Collections_Generic_ICollectionU3CTU3E_Clear_m3866522125_gshared
WDf:_Array_InternalArray__get_Item_TisKeyValuePair_2_t3716250094_m3120861630_gshared
wdh:_Socket_Receive_internal_m2724139400
gdd:__ZN5physx2Gu22gjkRelativePenetrationINS0_9TriangleVENS0_10ShrunkBoxVEEEjRKT_RKT0_RKNS_6shdfnd3aos15PsMatTransformVERKNSB_6FloatVERNSB_5Vec3VESJ_SJ_RSF_PhSL_Rh
N8l:_PKCS12_set_Password_m64359107
Mmj:___BinaryWriter_WriteDouble_m3409557975
cre:_XmlAnyConverter_ToInt64_m819243472
qCp:dynCall_vif
rCp:dynCall_vid
jyp:__ZNSt3__26locale5__imp7installINS_8messagesIcEEEEvPT_
cHl:_Tuple_2_GetHashCode_m3704074721_gshared
jKk:_LazyAsyncResult_get_AsyncWaitHandle_m359849950
Xnb:__Z18Transfer_BlittableI18StreamedBinaryReadILb0EELb0EdEvRK29SerializationCommandArgumentsR31RuntimeSerializationCommandInfo
ymi:_SyncTextReader_Dispose_m3210507871
Gki:_ReadWriteTask_InvokeAsyncCallback_m2718254743
oAb:__ZNK17InstancedPropInfo14IsInstanceableERK19ShaderPropertySheet
dia:__ZN5Unity9Component16CheckConsistencyEv
L_h:_TimeZoneInfo_CreateAdjustmentRuleFromTimeZoneInformation_m3060928568
aYg:_Task_NotifyDebuggerOfWaitCompletion_m3117134446
cba:__ZN7ApiGLES11CheckShaderERjb
ava:__ZN19ShaderPropertySheet37CreateTextureAuxPropertyUninitializedEN9ShaderLab16FastPropertyNameES1_PKc
Sib:__ZL26Transfer_SimpleNativeClassI19StreamedBinaryWriteILb0EE10RectOffsetLb1EEvRK29SerializationCommandArgumentsR31RuntimeSerializationCommandInfo
MNe:_Uri_GetComponents_m1386410759
VDf:_Array_InternalArray__get_Item_TisKeyValuePair_2_t1174980068_m964958642_gshared
XPd:__ZN11UnityEngine7Connect17DeviceStatusEventD2Ev
RXh:_ThrowHelper_ThrowSerializationException_m1589037686
pQm:__ZN15dense_hashtableINSt3__24pairIK10KeyWrapperIPK10Il2CppTypeEjEES6_N6il2cpp8metadata14Il2CppTypeHashEN14dense_hash_mapIS6_jSB_NS6_14EqualsComparerINSA_26Il2CppTypeEqualityComparerEEENS0_9allocatorIS8_EEE9SelectKeyESF_SH_E3endEv
MEb:__Z28GetNonInterpolatedLightProbeRK17LightProbeContextjR20SphericalHarmonicsL2
Cxh:_Array_InternalArray__IndexOf_TisEphemeron_t1875076633_m158202308_gshared
C0:__ZN13GfxDeviceGLES17SetGpuProgramNameEP10GpuProgramPKc
zG:__ZNK11UnityEngine15CloudWebService25WebRequestDownloadHandler11GetProgressEv
wEk:_RuntimeResourceSet_GetEnumeratorHelper_m1571615706
Btl:_InternalEnumerator_1_System_Collections_IEnumerator_get_Current_m4166161178_AdjustorThunk
JWe:_ReadOnlyArrayList_InsertRange_m3374223771
Ndn:__ZN6il2cpp2os20FileErrnoToErrorCodeEi
GFa:__ZN14SafeBinaryRead19TransferSTLStyleMapINSt3__23mapI39DeprecatedFastPropertyNameSerialization10ColorRGBAfNS1_4lessIS3_EENS1_9allocatorINS1_4pairIKS3_S4_EEEEEEEEvRT_17TransferMetaFlags
vxk:_MonoEventInfo_GetEventInfo_m2331957186
Cdm:_Component_get_transform_m3374354972
wh:_atexit
Djn:_GC_gcj_fake_mark_proc
Lei:_IOException__ctor_m613517077
M0c:__ZNK5physx7NpScene8getFlagsEv
pUi:_X509Certificate_ToString_m3833178309
jlc:__ZN5physx3Cct17CapsuleController6resizeEf
Fuc:__ZN5physx6shdfnd8PoolBaseINS_2Cm5BlockIhLj384EEENS0_19ReflectionAllocatorIS4_EEE12allocateSlabEv
ecd:__Z13sweepAABBAABBRKN5physx6PxVec3ES2_S2_S2_S2_S2_
X$h:_OffsetAndRule__ctor_m3335257906
TNd:__ZN11UnityEngine15PlatformWrapper30GetVRPlayAreaBoundaryDimensionEv
A1f:_Datatype_month_get_TypeCode_m4184731269
Ech:_Socket_EndReceive_m568791588
TDm:__ZNK15dense_hashtableINSt3__24pairIK10KeyWrapperIN6il2cpp5utils13dynamic_arrayIPK10Il2CppTypeLj4EEEEPFvvEEESA_NS3_8metadata19Il2CppSignatureHashEN14dense_hash_mapISA_SD_SG_NSA_14EqualsComparerINSF_22Il2CppSignatureCompareEEENS0_9allocatorISE_EEE9SelectKeyESK_SM_E10test_emptyEj
l2a:__ZN9ShaderLab14SerializedPassC2ERKS0_
JCc:__ZN5physx18NpArticulationLink17setLinearVelocityERKNS_6PxVec3Eb
kKc:__ZN5physx9NpPhysics20createParticleSystemEjb
K_l:_ProtectedConfigurationSection__cctor_m710069301
l:STACKTOP
j7a:__ZNK12HandlerChain8IsHiddenERK13FileEntryData
cHe:_RegexParser_ScanBasicBackslash_m792108873
Wyd:__ZN5physx17ConvexHullBuilder14CreateEdgeListEv
MWb:__ZN17TransformInternal27UpdateDeepChildCountUpwardsER18TransformHierarchyii
Lzp:__ZNK10__cxxabiv117__class_type_info16search_above_dstEPNS_19__dynamic_cast_infoEPKvS4_ib
Scd:__ZN5physxL24PxcSweepCapsuleTrianglesERKNS_11PxsCCDShapeES2_RKNS_11PxTransformES5_S5_S5_fRNS_6PxVec3ES7_RNS_10PxcNpCacheERNS_18PxcNpThreadContextERKNS_2Cm23FastVertex2ShapeScalingERNS_2Gu9TriangleVEf
CAm:__ZN6il2cpp2vm5Class19GetGenericContainerEP11Il2CppClass
Ete:_XmlBaseConverter_Base64BinaryToString_m3198479788
qDg:_Single_Equals_m3359827399_AdjustorThunk
SIb:__ZNK25CameraStackRenderingState25CalculateCameraTargetTypeEv
A:tempBigIntI
Txn:__Z86RuntimeInvoker_Int32_t2071877448_Int16_t4041245914_Int32_t2071877448_Int32_t2071877448PFvvEPK10MethodInfoPvPS4_
cGf:_Array_InternalArray__IReadOnlyList_get_Item_TisInternalEncodingDataItem_t82919681_m2698192731_gshared
z:tempBigIntR
y:tempBigIntS
x:tempBigIntP
Pn:FUNCTION_TABLE_viffi
HZd:_XmlNodeChangedEventArgs__ctor_m567919617
ckj:_ServerIdentity_CreateObjRef_m1056204803
GXo:__ZL74XmlSchemaDerivationMethod_t3165007540_CustomAttributesCacheGenerator_UnionP21CustomAttributesCache
vS:__ZN6Object18RegisterInstanceIDEPS_
ggb:__Z18Transfer_BlittableI24GenerateTypeTreeTransferLb1EsEvRK29SerializationCommandArgumentsR31RuntimeSerializationCommandInfo
iSm:__ZN15dense_hashtableINSt3__24pairIK10KeyWrapperINS1_IPK12PropertyInfoP11Il2CppClassEEEjEES9_17ReflectionMapHashIS8_EN14dense_hash_mapIS9_jSD_NS9_14EqualsComparerINS0_8equal_toIS8_EEEENS0_9allocatorISB_EEE9SelectKeyESI_SK_E6insertERKSB_
VZ:__ZNK9GfxDevice18GetWorldViewMatrixEv
Vhp:_Transform_Find_m2140075701
d$l:_SectionGroupInfo_HasChild_m1202859971
sqf:_RuntimeType_GetPropertyCandidates_m2985362442
Mee:_XmlTextWriterBase64Encoder_WriteChars_m3930537038
wck:_List_1__ctor_m2080105584_gshared
jld:__ZN5physx2Gu18pcmContactPlaneBoxERKNS0_13GeometryUnionES3_RKNS_11PxTransformES6_RKfRNS0_5CacheERNS0_13ContactBufferE
Jpe:_DeclBaseInfo__ctor_m2769606087
mNl:_EnumEqualityComparer_1_GetObjectData_m2305904934_gshared
_Sf:_DateTimeFormatInfo_get_AbbreviatedEnglishEraNames_m613845091
yDm:__ZNSt3__218__insertion_sort_3IRN6il2cpp5utils11collections13ArrayValueMapIPK10Il2CppType17Il2CppInteropData26InteropDataToTypeConverterNS1_8metadata14Il2CppTypeLessENSA_26Il2CppTypeEqualityComparerEE12SortComparerEPS8_EEvT0_SH_T_
g_j:_ChainValidationHelper_ValidateChain_m1571474394
HDc:__ZN5physx6shdfnd5ArrayIPNS_2Sq10ActorShapeENS0_19ReflectionAllocatorIS4_EEE15growAndPushBackERKS4_
tgh:_WebConnection_ReadHeaders_m1460563433
xkh:_WebResponse_Dispose_m315723442
GIj:_AssertSection__cctor_m1698059771
ZZ:__ZNK9GfxDevice25GetDeviceProjectionMatrixEv
t_g:_XPathNodeHelper_GetParent_m534062446
n_h:_TimeZoneInfo_TZif_ParseMDateRule_m1782929698
DHk:_HttpWebRequest__ctor_m1248252412
_Dl:_SparselyPopulatedArrayFragment_1__ctor_m3720000803_gshared
qa:invoke_iidiii
hlh:_OidCollection_get_Item_m3853520517
nEf:_Array_InternalArray__get_Item_TisRecognizedAttribute_t3930529114_m847014918_gshared
mgb:__Z18Transfer_BlittableI24GenerateTypeTreeTransferLb1EtEvRK29SerializationCommandArgumentsR31RuntimeSerializationCommandInfo
i1i:_RankException__ctor_m2119191472
CC:__ZN12AudioManager33GetCurrentAmbisonicDefinitionNameE31UnityAudioEffectDefinitionFlags
iNk:_PathList_get_Item_m1262574078
Xfc:__ZL13midPhaseQueryRKN5physx22PxTriangleMeshGeometryERKNS_11PxTransformERNS_2Gu3BoxERNS6_9ContainerE
M4b:__ZN9JSONWrite8TransferI13dynamic_arrayI4AABBLj4EEEEvRT_PKc17TransferMetaFlags
bKn:__Z64RuntimeInvoker_Void_t1841601450_OpCode_t2247480392_RuntimeObjectPFvvEPK10MethodInfoPvPS4_
